xc:_glClearStencil
b0f:_UInt16_System_IConvertible_ToChar_m2096055221_AdjustorThunk
BLf:_Array_TrueForAll_TisRuntimeObject_m1084992726_gshared
oOi:_PlayableOutputHandle_get_Null_m1200584339
hri:__ZN6il2cpp2vm5Array13GetByteLengthEP11Il2CppArray
MGh:_KeyBuilder_get_Rng_m3373220441
hxj:__ZL102Image_t2670269651_CustomAttributesCacheGenerator_Image_t2670269651____eventAlphaThreshold_PropertyInfoP21CustomAttributesCache
zSa:__Z30GetIntermediateRendererManagerv
Yxa:__Z21SourceMipLevelForBlitiiii
DWa:__ZN31CanvasBatchIntermediateRenderer15AddAsRenderNodeER15RenderNodeQueueRK20DeprecatedSourceData
sZf:_TimeSpan_get_Hours_m550761902
Bkj:__ZL63PlayableOutputHandle_t4208053793_CustomAttributesCacheGeneratorP21CustomAttributesCache
bQd:_UnmanagedMemoryStream_Write_m930787521
yr:__ZN11UnityEngine9Animation28GenericAnimationBindingCacheD2Ev
qxh:_X509Store_LoadCrl_m1881903843
Gnh:_Array_Sort_TisUICharInfo_t75501106_TisUICharInfo_t75501106_m722747892_gshared
a7a:__ZNSt3__26vectorI13dynamic_arrayI8Vector2fLj4EENS_9allocatorIS3_EEEC2INS_11__wrap_iterIPS3_EEEET_SB_RKS5_PNS_9enable_ifIXaasr21__is_forward_iteratorISB_EE5valuesr16is_constructibleIS3_NS_15iterator_traitsISB_E9referenceEEE5valueEvE4typeE
mYb:__Z18RestoreRenderStateR20CameraRenderOldStateR17ShaderPassContext
Dyb:__Z18Transfer_BlittableI18StreamedBinaryReadILb1EELb1E5RectTIfEEvRK29SerializationCommandArgumentsR31RuntimeSerializationCommandInfo
vub:__Z18Transfer_BlittableI24GenerateTypeTreeTransferLb0E11ColorRGBA32EvRK29SerializationCommandArgumentsR31RuntimeSerializationCommandInfo
oDb:__Z25scripting_class_from_name17ScriptingImagePtrPKcS1_
vOf:_Array_InternalArray__IndexOf_TisKeyValuePair_2_t3699644050_m1021241249_gshared
rai:__ZN14dense_hash_mapI10KeyWrapperINSt3__24pairIPK12PropertyInfoP11Il2CppClassEEEj17ReflectionMapHashIS8_ENS9_14EqualsComparerINS1_8equal_toIS8_EEEENS1_9allocatorINS2_IKS9_jEEEEE15set_deleted_keyERSH_
SEb:__Z29scripting_class_enum_basetype17ScriptingClassPtr
NPe:_InternalEnumerator_1_get_Current_m1477715453_gshared
Slb:__ZNK20LocalFileSystemPosix6ParentERK13FileEntryDataRN4core12basic_stringIcNS3_20StringStorageDefaultIcEEEE
lRi:_RectTransform_GetWorldCorners_m3553547973
V_g:_Collection_1_System_Collections_IList_Remove_m1476284619_gshared
bSd:_MonoType_IsPrimitiveImpl_m2401722705
gAf:_SHA1CryptoServiceProvider__ctor_m4195188793
LGi:_CSSMeasureFunc_BeginInvoke_m3802154595
t9c:_Dropdown_Hide_m504034854
KLa:__ZN17PersistentManager22CheckInstanceIDsLoadedEPii
Z3a:__ZN9Texture2D25CreateScaledAndPaddedDataEPP17SharedTextureDataS2_
oVi:_Vector2_get_up_m2647420593
Cva:__ZN7ApiGLES17CopyBufferSubDataEjjlll
wRf:_Array_InternalArray__ICollection_CopyTo_TisUInt64_t4134040092_m691431926_gshared
A1e:_IPAddress_ToString_m1181734207
_Uf:_StringBuilder_Append_m1965104174
Upc:__ZN5Unity9rapidjson15GenericDocumentINS0_4UTF8IcEE13JSONAllocatorS4_E11ParseStreamILj1ES3_NS0_25GenericInsituStringStreamIS3_EEEERS5_RT1_
m9f:_EqualityComparer_1__cctor_m3766928733_gshared
tQb:__ZN25CameraStackRenderingState20GetOrCreateBuiltinRTE24BuiltinRenderTextureTypeii17DepthBufferFormat19RenderTextureFormatj22RenderTextureReadWrite14VRTextureUsagei
yhh:_UnityAction_1_Invoke_m610765085_gshared
xO:__ZN11AudioModule26SetDefaultMicrophoneDriverEPv
R9e:_Kernel_modInverse_m652700340
u8a:__ZNK14Texture2DArray26CanReuploadDataToGfxDeviceEv
IUb:__ZN17PrePassRenderLoop14RenderBasePassEP13RenderTextureRK14LightingLayersR13dynamic_arrayI16RenderObjectDataLj4EERbR10MinMaxAABB
Jnc:__ZN5IMGUI18RepaintModalWindowER8GUIState
i4:__ZNK15dense_hashtableINSt3__24pairIKN9ShaderLab7Program23ShaderKeywordSetAndHashEPKNS2_10SubProgramEEES4_NS3_24ShaderKeywordHashFunctorEN14dense_hash_mapIS4_S8_SA_NS0_8equal_toIS4_EE13stl_allocatorIS9_L18MemLabelIdentifier67ELi16EEE9SelectKeyESD_SG_E23find_position_with_hashERS5_j
Ivf:_CompareInfo_Finalize_m404687489
d7a:__Z23SetSpriteMeshIndexCountP14SharedMeshDataj
WWf:_UTF8Decoder_GetChars_m1236346907
yTi:_TouchScreenKeyboard_Open_m231964201
f$a:__ZN7Texture13SetFilterModeEi
Jsi:__ZN6il2cpp8metadata13GenericMethod9GetMethodEPK19Il2CppGenericMethod
mq:__ZNSt3__26vectorIN4core12basic_stringIcNS1_20StringStorageDefaultIcEEEENS_9allocatorIS5_EEE7reserveEj
IVd:_Default_SelectProperty_m1220817815
U7d:_RemotingConfiguration_IsRemotelyActivatedClientType_m4117048589
nUi:_Transform_TransformPoint_m226827784
vpa:__ZN13GfxDeviceGLES11SetViewportERK5RectTIiE
xkc:__Z24Time_Get_Custom_PropTimev
Od:_emscripten_glDepthRange
Qrh:_SslStreamBase_BeginNegotiateHandshake_m4180435790
B_b:__ZNSt3__26vectorINS_4pairIN4core12basic_stringIcNS2_20StringStorageDefaultIcEEEES6_EE13stl_allocatorIS7_L18MemLabelIdentifier38ELi16EEE12__move_rangeEPS7_SC_SC_
Fia:__Z14resize_trimmedINSt3__26vectorIN9ShaderLab20SerializedSubProgram12UAVParameterENS0_9allocatorIS4_EEEEEvRT_j
mqc:__ZN5Unity9rapidjson13GenericReaderINS0_4UTF8IcEES3_13JSONAllocatorE11ParseObjectILj1ENS0_25GenericInsituStringStreamIS3_EENS0_15GenericDocumentIS3_S4_S4_EEEEvRT0_RT1_
T3c:_StandaloneInputModule_GetRawMoveVector_m2737091079
Syj:__ZL62Selectable_t3250028441_CustomAttributesCacheGenerator_m_ColorsP21CustomAttributesCache
ysh:_SslStreamBase_EndWrite_m4073224031
I1:__ZNSt3__218__insertion_sort_3IRNS_6__lessI14ObjectLoadDataS2_EEPS2_EEvT0_S6_T_
sxa:__ZN4crndL20crnd_default_reallocEPvjPjbS0_
RFj:__ZNSt3__212basic_stringIcNS_11char_traitsIcEENS_9allocatorIcEEEC2ERKS5_
V7a:__ZN18SpriteAtlasManager19AddRequestingSpriteE4PPtrI6SpriteE
ikc:__Z33Texture_CUSTOM_Internal_GetHeightP12Il2CppObject
bZe:_ValueCollection_System_Collections_ICollection_get_SyncRoot_m3381653267_gshared
rXb:__ZN23ScriptableRenderContextC2Ev
icd:_GridLayoutGroup_get_spacing_m2409263614
WXe:_Enumerator_MoveNext_m3051926902_gshared
qig:_List_1_CheckIndex_m581273900_gshared
DHc:_UNITY_FT_Stream_GetChar
wFh:_GUIStyle_get_fixedWidth_m2576616348
czb:__Z18Transfer_BlittableI18StreamedBinaryReadILb1EELb1EdEvRK29SerializationCommandArgumentsR31RuntimeSerializationCommandInfo
_Eb:__Z26BuildSerializationCacheFor17ScriptingClassPtrRb
CDa:__ZN7ApiGLES15BlitFramebufferEN2gl6HandleILNS0_10ObjectTypeE9EEENS0_15FramebufferReadES3_S3_iiiiiiiiNS0_15FramebufferTypeE
jwg:__Z112RuntimeInvoker_RuntimeObject_RuntimeObject_RuntimeObject_RuntimeObject_RuntimeObject_RuntimeObject_RuntimeObjectPFvvEPK10MethodInfoPvPS4_
aPe:_InternalEnumerator_1_System_Collections_IEnumerator_get_Current_m3553395619_AdjustorThunk
Ood:_Array_SetValue_m3998268557
Ewc:__ZN8JSONRead8TransferI8Vector4fEEvRT_PKc17TransferMetaFlagsb
D6c:_ColorBlock_set_highlightedColor_m2089444414_AdjustorThunk
Fhf:_Context_EndSwitchingSecurityParameters_m4148956166
HCc:_otv_PairPos_validate
aw:__ZN7mecanim9animation14CopyHumanPosesEPKNS0_18AnimationNodeStateEPS1_RKNS_6bitsetILj83EEE
N1h:__ZN6il2cpp6icalls8mscorlib6SystemL8IsStaticEPK12PropertyInfo
pGb:__Z9InitInputv
CEc:_UNITY_tt_face_build_cmaps
O5h:__ZN6il2cpp2gc19AppendOnlyGCHashMapINSt3__24pairIPK10MethodInfoP11Il2CppClassEEP22Il2CppReflectionMethod17ReflectionMapHashIS9_ENS2_8equal_toIS9_EEE3AddERKS9_SB_
Xmb:__ZN16MemoryFileSystem6DeleteER13FileEntryDatab
Vqg:__Z81RuntimeInvoker_Void_t1185182177_RuntimeObject_Int64_t3736567304_Int32_t2950945753PFvvEPK10MethodInfoPvPS4_
Bjg:_List_1_set_Item_m1979164443_gshared
KPf:_Array_InternalArray__ICollection_Add_TisLink_t3209266973_m77922316_gshared
oya:__ZL21BlitScaleStbImageImplRK14ImageReferenceRS_NS_10ColorSpaceE
Ard:_Boolean_System_IConvertible_ToUInt16_m3465173538_AdjustorThunk
wje:_InputField_get_keyboardType_m1248105267
mqb:__Z29Transfer_Blittable_ArrayFieldI14SafeBinaryReadyEvRT_R9ArrayInfoRK23StaticTransferFieldInfo
mM:__ZN20SoundChannelInstance15setChannelGroupEPN4FMOD12ChannelGroupE
Rxh:_Match__ctor_m2425511580
lc:invoke_vifffii
Fhi:__ZN6il2cpp2vm9Exception27RaiseNullReferenceExceptionEv
BOa:__ZNK25MultiBlocksMemoryFileData5CloneEv
ryi:_GC_add_ext_descriptor
d4h:__ZNK15dense_hashtableINSt3__24pairIK10KeyWrapperINS1_IPK14Il2CppAssemblyP11Il2CppClassEEEjEES9_17ReflectionMapHashIS8_EN14dense_hash_mapIS9_jSD_NS9_14EqualsComparerINS0_8equal_toIS8_EEEENS0_9allocatorISB_EEE9SelectKeyESI_SK_E23find_position_with_hashERSA_j
Aph:_LayoutGroup_SetProperty_TisSingle_t1397266774_m793506911_gshared
Ngd:_CryptoConfig_CreateFromName_m1538277313
SHj:dynCall_iiiiiiiiiiii
Hje:_InputField_set_caretPositionInternal_m3823580651
cWc:__ZN18UnityConnectClient16IsServiceEnabledEv
xte:_Selectable_set_interactable_m3105888815
RWa:__ZL26KeywordSetToStringDontSortRKNSt3__26vectorIN4core12basic_stringIcNS1_20StringStorageDefaultIcEEEENS_9allocatorIS5_EEEERS5_
gAa:__ZN6prcoreL17RemapGenericFloatI16TexFormatRGFloat17TexFormatRGBAHalfEEvPKNS_9InnerInfoE
tG:__ZN12AudioManager22CreateFMODSoundFromWWWEP10IWWWStream15FMOD_SOUND_TYPE17FMOD_SOUND_FORMATjjbbP10SampleClip
O6b:__ZNK32RendererMaterialAnimationBinding15GenerateBindingERKN4core12basic_stringIcNS0_20StringStorageDefaultIcEEEEbRN11UnityEngine9Animation14GenericBindingE
U4d:_TargetException__ctor_m4172127019
jPg:_List_1_CheckCollection_m274117203_gshared
ttj:__ZL70EventSystem_t1003666588_CustomAttributesCacheGenerator_m_FirstSelectedP21CustomAttributesCache
d_:__ZN8Remapper23GetOrGenerateInstanceIDERK26SerializedObjectIdentifier
p7c:_ColorTween_get_startColor_m3792586410_AdjustorThunk
Ya:invoke_iiiiiifffiiifii
Sng:__Z85RuntimeInvoker_Void_t1185182177_Int32_t2950945753_Int32_t2950945753_Int32_t2950945753PFvvEPK10MethodInfoPvPS4_
xTd:_CustomInfo__ctor_m426096741
QMh:__ZL25UnresolvedVirtualCall_220P12Il2CppObjectfPK10MethodInfo
m0c:_EventSystem_ToString_m3779610692
o7a:__ZN6Sprite8TransferI24GenerateTypeTreeTransferEEvRT_
olc:__Z48Register_UnityEngine_Transform_SetAsFirstSiblingv
A1a:__ZNK18DelayedCallManager22GetTypeVirtualInternalEv
r7a:__ZN7SubMesh8TransferI24GenerateTypeTreeTransferEEvRT_
w$h:_NativeTypeAttribute__ctor_m133676646
J1g:_Collection_1_System_Collections_IList_Contains_m296643274_gshared
WJd:_DirectoryInfo__ctor_m126519516
s1d:_MethodBase_GetMethodFromIntPtr_m3014201362
odc:__ZN9Transform23SetSiblingIndexInternalEib
nAd:_Enumerator_MoveNext_m635366482
zld:_X509Extension_Equals_m1222951829
uu:__ZN7mecanim5human12HumanPoseSubERNS0_9HumanPoseERKS1_S4_
Fmi:__ZN6il2cpp8metadata15GenericMetadata15GetGenericClassEiPK17Il2CppGenericInst
Nob:__Z18Transfer_BlittableI14SafeBinaryReadLb0E10Matrix4x4fEvRK29SerializationCommandArgumentsR31RuntimeSerializationCommandInfo
pEb:__Z24GetFixedBehaviourManagerv
J0h:__ZN6il2cpp2vm10ThreadPool4WaitEP17Il2CppAsyncResultPPv
Eve:_Text_UpdateGeometry_m3634850647
axh:_X509Crl_VerifySignature_m1377612461
eDj:_vfprintf
goc:__ZN10GUIManager12AddGUIScriptER8ListNodeI13MonoBehaviourE
CAd:_Stack_Clear_m2010200235
lzc:_cf2_getVStore
c2c:_PointerEventData_set_pointerPressRaycast_m1363193059
pOb:__ZN20DynamicPropertySheetD0Ev
w7d:_SafeHandle_Dispose_m4229010569
F_b:__ZN14SafeBinaryRead17RegisterConverterEPKcS1_PFbPvRS_E
Jlj:__ZL77RuntimePlatform_t4159857903_CustomAttributesCacheGenerator_OSXDashboardPlayerP21CustomAttributesCache
o8:__ZN35RegisterRuntimeInitializeAndCleanup8RegisterEPFvPvES2_iS0_
Guh:_SubjectAltNameExtension_get_IPAddresses_m1641002124
oZd:_FieldBuilder_SetValue_m828035213
wSf:_Array_InternalArray__Insert_TisSingle_t1397266774_m3161726127_gshared
wdh:__ZN28GenericInterfaceFuncInvoker0IfE6InvokeEPK10MethodInfoP12Il2CppObject
slc:__Z21Object_CUSTOM_DestroyP12Il2CppObjectf
ioa:__ZN8Material26ResetAllCachedMaterialDataEP6Shader
Nug:__Z63RuntimeInvoker_Void_t1185182177_RuntimeObject_Int16_t2552820387PFvvEPK10MethodInfoPvPS4_
PHc:_UNITY_TT_Get_MM_Var
Whe:_ObjectManager_AddFixup_m2154325362
cRe:_Comparer_1__cctor_m3761458313_gshared
eof:_DateTimeOffset_CompareTo_m1350732322_AdjustorThunk
aa:invoke_diddi
OPc:__ZNK2UI6Canvas13GetRenderModeEv
CIi:_PersistentCall__ctor_m1217622171
ANf:_Array_compare_TisCustomAttributeTypedArgument_t2723150157_m1384644047_gshared
nDe:_StrongName_get_TokenAlgorithm_m1794722022
Ynb:__Z18Transfer_BlittableI14SafeBinaryReadLb0EiEvRK29SerializationCommandArgumentsR31RuntimeSerializationCommandInfo
Y_h:__ZN6il2cpp2vm13MetadataCache30GetPropertyDefinitionFromIndexEi
UGh:_SymmetricTransform_Transform_m1683494363
EWc:__ZN22BaseUnityConnectClient17InitializeSessionERKN4core12basic_stringIcNS0_20StringStorageDefaultIcEEEES6_N19CloudServiceHandler13InitModeFlagsE
FAg:__Z74RuntimeInvoker_RuntimeObject_Int32_t2950945753_RuntimeObject_RuntimeObjectPFvvEPK10MethodInfoPvPS4_
dVg:_List_1_get_Item_m200663048_gshared
ONj:_emscripten_glDeleteBuffers__wrapper
Rec:__ZN13MonoBehaviour34StopCoroutineFromEnumeratorManagedE18ScriptingObjectPtr
DDi:_Application_set_targetFrameRate_m3682352535
tVi:_Vector3__ctor_m1719387948_AdjustorThunk
ogb:__ZN30RuntimeInitializeOnLoadManager8TransferI18StreamedBinaryReadILb0EEEEvRT_
qnf:_DateTimeOffset__ctor_m2084804982
cEc:_UNITY_tt_face_load_pclt
lec:__ZL34GetComponentsImplementationRecurseILb1ELi0ELi2EEbR10GameObjectbRK17CompareParametersRK39GetComponentsImplementation_ReturnValue
TFa:__ZN20ComputeShaderVariantD2Ev
UKi:_Material_GetTexture_m3545614349
Elg:__Z64RuntimeInvoker_RuntimeObject_Int32_t2950945753_Int16_t2552820387PFvvEPK10MethodInfoPvPS4_
iag:_EqualityComparer_1__cctor_m4244842342_gshared
MNb:__ZNK6Camera18WorldToScreenPointERK8Vector3fPb
iSi:_SendMouseEvents_DoSendMouseEvents_m2140870850
LCa:__Z18IsCompressedFormat14GraphicsFormat
Pu:__ZN7mecanim9animation19AdjustPoseForMotionERKNS0_14AvatarConstantERKNS0_14SkeletonTQSMapERKN4math4trsXERNS_10ValueArrayERNS_8skeleton13SkeletonPoseTIS8_EESG_
HZf:__Z33il2cpp_codegen_check_add_overflowxx
fZ:__ZNSt3__227__insertion_sort_incompleteIRPFbRKN18AwakeFromLoadQueue4ItemES4_EPS2_EEbT0_S9_T_
Rlj:__ZL73RuntimePlatform_t4159857903_CustomAttributesCacheGenerator_MetroPlayerARMP21CustomAttributesCache
nJd:_InvalidOperationException__ctor_m1685032583
XYh:__ZN14dense_hash_mapI10KeyWrapperIN6il2cpp5utils13dynamic_arrayIPK10Il2CppTypeLj4EEEEPFvvENS1_8metadata19Il2CppSignatureHashENS8_14EqualsComparerINSB_22Il2CppSignatureCompareEEENSt3__29allocatorINSG_4pairIKS8_SA_EEEEE15set_deleted_keyERSJ_
n_f:_TimeSpan_op_Subtraction_m3592306516
gcg:_EqualityComparer_1_System_Collections_IEqualityComparer_GetHashCode_m1517903420_gshared
Q4a:__ZN26EnlightenSystemInformation8TransferI14SafeBinaryReadEEvRT_
tfb:__ZN24GenerateTypeTreeTransfer8TransferINSt3__26vectorIN15ResourceManager10DependencyE13stl_allocatorIS4_L18MemLabelIdentifier52ELi16EEEEEEvRT_PKc17TransferMetaFlags
nRh:_CanvasRenderer_SplitUIVertexStreams_m2753637362
bCg:__Z119RuntimeInvoker_Void_t1185182177_RuntimeObject_Single_t1397266774_Single_t1397266774_SByte_t1669577662_Int32_t2950945753PFvvEPK10MethodInfoPvPS4_
UXc:__ZN11UnityEngine15PlatformWrapper20SetPlayerPrefsUInt64ERKN4core12basic_stringIcNS1_20StringStorageDefaultIcEEEEy
Fbb:__ZN12MeshRendererD0Ev
KP:__ZN12AudioManager35GetCurrentSpatializerDefinitionNameEv
zh:_utime
Qnj:__ZL56PlayableGraph_t3515989261_CustomAttributesCacheGeneratorP21CustomAttributesCache
iBh:_BalancingGroup_Compile_m2575117193
HB:__Z28SetExposedSkeletonTransformsRKN7mecanim9animation14AvatarConstantERKN11UnityEngine9Animation30AnimatorGenericBindingConstantERKNS_8skeleton13SkeletonPoseTIN4math4trsXEEERKNSA_INSB_7affineXEEERNS5_21AvatarBindingConstantEy
Gbi:__ZNSt3__26vectorIN6il2cpp2vm17TypeNameParseInfoENS_9allocatorIS3_EEE8allocateEj
Mxh:_Mark_get_Index_m3048692661_AdjustorThunk
qn:FUNCTION_TABLE_viiiiif
IQe:_DefaultComparer_Compare_m3931992727_gshared
vn:FUNCTION_TABLE_viiiiii
EPe:_InternalEnumerator_1_System_Collections_IEnumerator_get_Current_m1847780851_AdjustorThunk
KFh:_GUILayoutUtility_get_spaceStyle_m3392862907
bHd:_Int32_System_IConvertible_ToType_m3009233912_AdjustorThunk
rnf:_DateTimeOffset__ctor_m74032857
hD:__ZN7mecanim9animation22DestroyAvatarWorkspaceEPNS0_15AvatarWorkspaceERNS_6memory9AllocatorE
g$f:_Type_type_is_assignable_from_m76737532
MUb:__ZN15LightmapSTCacheC2ER13BatchRendererR15RenderLoopStats
t1a:__ZN14PlayableOutput17SetSourcePlayableEP8Playable
xC:__ZN7mecanim9animation29MotionOutputGetDeltaTransformEPKNS0_12MotionOutputE
gbh:_ReadOnlyCollection_1_System_Collections_Generic_ICollectionU3CTU3E_Add_m2369252587_gshared
Lkc:__Z43Transform_CUSTOM_INTERNAL_get_localRotationP12Il2CppObjectP11Quaternionf
nwf:_CultureInfo_get_Parent_m672689885
ULj:_glGetShaderInfoLog__wrapper
Hhe:_ObjectReader_ReadObjectGraph_m340866276
ci:_emscripten_glGetTexParameteriv
aUc:__ZN11UnityEngine7Connect15DeviceInfoEvent7GFXInfoD2Ev
pNj:_glGenTextures__wrapper
aja:__ZN9ShaderLab20SerializedSubProgram14ConstantBufferaSERKS1_
O2b:__Z13RegisterClassI4MeshEvv
lpj:__ZL74SharedBetweenAnimatorsAttribute_t2857104338_CustomAttributesCacheGeneratorP21CustomAttributesCache
S_a:__ZN8PlayableD0Ev
wg:emscriptenWebGLGetBufferBinding
YH:__ZN12AudioManager8TransferI19StreamedBinaryWriteILb0EEEEvRT_
_te:_Slider_UpdateCachedReferences_m3259451627
dsh:_SslStreamBase_get_KeyExchangeStrength_m217695965
htg:__Z50RuntimeInvoker_Double_t594665363_Double_t594665363PFvvEPK10MethodInfoPvPS4_
Uzb:__ZN18StreamedBinaryReadILb1EE21TransferSTLStyleArrayI13dynamic_arrayI11ColorRGBA32Lj4EEEEvRT_17TransferMetaFlags
rfi:__ZN15dense_hashtableINSt3__24pairIK10KeyWrapperINS1_IP11Il2CppClassjEEES4_EES6_N6il2cpp8metadata14ArrayClassHashEN14dense_hash_mapIS6_S4_SB_NS6_14EqualsComparerINSA_17ArrayClassCompareEEENS0_9allocatorIS8_EEE9SelectKeyESF_SH_E6insertERKS8_
Q9c:_U3CShowU3Ec__AnonStorey1_U3CU3Em__0_m2340880019
GIf:_ASCIIEncoding_GetString_m58523364
Vth:_TlsStream_Flush_m3793197834
Alb:__ZN22LocalFileSystemHandler9MakeLocalER13FileEntryDatab
hui:__ZN6il2cpp2vm8Profiler10AllocationEP12Il2CppObjectP11Il2CppClass
Lwj:__ZL61Graphic_t1660335611_CustomAttributesCacheGenerator_m_MaterialP21CustomAttributesCache
kMc:__ZNSt3__23mapIN20TextRenderingPrivate7FontRefENS1_6OSFontENS_4lessIS2_EENS_9allocatorINS_4pairIKS2_S3_EEEEEixERS8_
pga:__Z13FormatOrderedPKcz
x2h:__ZN6il2cpp2vm8basepathEPKc
Z4e:_X509Chain_GetAuthorityKeyIdentifier_m614536199
KJc:__ZN14SafeBinaryRead21TransferSTLStyleArrayI10vector_mapINSt3__24pairIttEEfN20TextRenderingPrivate8FontImpl14KerningCompareENS2_9allocatorINS3_IS4_fEEEEEEEvRT_17TransferMetaFlags
sgf:_TlsServerFinished__ctor_m1445633918
yFd:_NumberFormatter_FastIntegerToString_m390846811
Bti:__ZN6il2cpp2vm6String21InitializeEmptyStringEP11Il2CppClass
xUb:__ZN25DeferredRenderLoopScratchD0Ev
Sw:__ZN27AnimationLayerMixerPlayable14SetInputWeightEif
H1c:_PhysicsRaycaster_Raycast_m776323695
OUi:_UnityException__ctor_m1456865679
qu:__ZN7mecanim9animation17EvaluateHumanPoseERKNS0_18ClipMuscleConstantERKNS0_15ClipMuscleInputEPKfRKNS0_12MotionOutputERNS_5human9HumanPoseE
kia:__ZN15dense_hashtableINSt3__24pairIKiN4core17string_with_labelILi1EEEEEi18SInt32HashFunctionN14dense_hash_mapIiS5_S7_NS0_8equal_toIiEE13stl_allocatorIS6_L18MemLabelIdentifier1ELi16EEE9SelectKeyESA_SD_E9copy_fromERKSG_j
gWd:_CustomAttributeNamedArgument_GetHashCode_m2317130892
Qeb:__ZN15ResourceManagerD0Ev
pge:_WellKnownClientTypeEntry_ToString_m1119458503
v4:__ZN22CreateGpuProgramOutputD2Ev
gUg:_List_1_get_Item_m1378751541_gshared
iAf:_SHA1CryptoServiceProvider_Finalize_m1793183797
Ndg:_HashSet_1_System_Collections_Generic_ICollectionU3CTU3E_CopyTo_m408073502_gshared
Kcf:_EncryptedPrivateKeyInfo_get_EncryptedData_m491452551
Lkb:__ZN12HandlerChain4OpenER13FileEntryData14FilePermission16FileAutoBehavior
WHg:__Z72RuntimeInvoker_Void_t1185182177_Int32_t2950945753_RaycastHit_t1056001966PFvvEPK10MethodInfoPvPS4_
S5h:__ZN15dense_hashtableINSt3__24pairIK10KeyWrapperINS1_IPK10MethodInfoP11Il2CppClassEEEjEES9_17ReflectionMapHashIS8_EN14dense_hash_mapIS9_jSD_NS9_14EqualsComparerINS0_8equal_toIS8_EEEENS0_9allocatorISB_EEE9SelectKeyESI_SK_E6insertERKSB_
JWf:_UTF8Encoding_GetCharCount_m2272165989
Mod:_Array_SetValue_m394135409
a1:__ZN14FileCacherReadD2Ev
Ohb:__ZN13RendererScene23UpdatePreviousFrameDataEii
xHf:_String_Remove_m562998446
Jgc:__Z50Register_UnityEngine_CullingGroup_FinalizerFailurev
XCf:_SecurityPermission_IsSubsetOf_m545000671
wib:__ZN27UnloadUnusedAssetsOperationD0Ev
QFj:__ZNKSt3__221__basic_string_commonILb1EE20__throw_out_of_rangeEv
dHi:_Cursor_get_lockState_m2828192107
r2h:_UpdatedEventHandler_Invoke_m1320302085
LF:__ZN9AudioClip23VirtualRedirectTransferER18StreamedBinaryReadILb0EE
EUg:_List_1_AddEnumerable_m2724989594_gshared
dBg:__Z82RuntimeInvoker_Vector2_t2156229523_Vector2_t2156229523_RuntimeObject_RuntimeObjectPFvvEPK10MethodInfoPvPS4_
tHa:__ZN18GlslGpuProgramGLESC2ERK13dynamic_arrayIhLj1EER22CreateGpuProgramOutput
tmc:__Z70Register_UnityEngine_Playables_PlayableHandle_GetPlayableType_Injectedv
Dbf:_ARC4Managed_TransformBlock_m1687647868
Ej:_glCopyTexSubImage2D
TUi:_UnitySynchronizationContext_ExecuteTasks_m1310741010
Qyf:_RIPEMD160Managed_CompressFinal_m497690796
VZb:__ZN18ScreenManagerWebGL13SetShowCursorEb
PJb:__ZN13DrawImmediateC2ER9GfxDevice
pDj:_frexp
Job:__Z18Transfer_BlittableI14SafeBinaryReadLb0E5RectTIfEEvRK29SerializationCommandArgumentsR31RuntimeSerializationCommandInfo
yId:_NumberFormatter_NumberToString_m2562899600
PCc:_otv_u_C_x_Ox
iua:__ZN14GfxContextGLES14GetFramebufferEv
dOj:_emscripten_glGenVertexArrays__wrapper
x3f:_Version_Clone_m1749041863
Tya:__ZN6prcoreL21CreateRemapAnyBlitterE13TextureFormatS0_
gdf:_RSAManaged_ExportParameters_m1754454264
tcc:__ZN17AnimationCurveTplIfE16StripInvalidKeysEv
Nrd:_Boolean_Equals_m535526264_AdjustorThunk
VPc:__ZNK2UI6Canvas17GetSortingLayerIDEv
Ddi:_il2cpp_method_has_attribute
G2b:__Z13RegisterClassI17GlobalGameManagerEvv
n6:__ZN8Renderer24SetupNewRendererForSceneEv
b$f:_Type_internal_from_name_m1721940673
muf:_Environment_get_TickCount_m2088073110
kde:_RemotingServices_GetMethodBaseFromName_m3194612939
Ouc:__Z35Transfer_Blittable_FixedBufferFieldI8JSONReadtEvRK29SerializationCommandArgumentsR31RuntimeSerializationCommandInfo
D9b:__ZN14PlayableOutput6HandleEv
N6a:__ZNK6Sprite22GetTypeVirtualInternalEv
m_c:__ZN13RuntimeStaticINSt3__26vectorI23UnityVRDeviceDefinition13stl_allocatorIS2_L18MemLabelIdentifier90ELi16EEEELb0EE13StaticDestroyEPv
pn:FUNCTION_TABLE_iiiiiiiiiiiiii
GDc:_UNITY_tt_get_cmap_info
Bkf:_SslClientStream_RaiseServerCertificateValidation_m3477149273
vvb:__Z29Transfer_Blittable_ArrayFieldI24GenerateTypeTreeTransfer5RectTIiEEvRT_R9ArrayInfoRK23StaticTransferFieldInfo
UXa:__ZN16ReflectionProbes8ScheduleEN18ReflectionProbeJob7JobTypeEP15ReflectionProbei
wgf:_ClientSessionInfo_KeepAlive_m1020179566
dQc:__ZN13dynamic_arrayIN2UI13UIInstructionELj4EE12emplace_backEv
qMa:__Z18IsDirectoryCreatedRKN4core12basic_stringIcNS_20StringStorageDefaultIcEEEE
KCf:_String_FormatHelper_m3913915042
UOc:__ZN2UI13CanvasManagerD2Ev
NVd:_ConstructorInfo__cctor_m1016079270
gWh:__ZN15dense_hashtableINSt3__24pairIK10KeyWrapperIPKcEP11Il2CppClassEES5_N6il2cpp5utils11StringUtils12StringHasherIS4_EEN14dense_hash_mapIS5_S8_SE_NS5_14EqualsComparerINSB_13VmStringUtils21CaseSensitiveComparerEEENS0_9allocatorIS9_EEE9SelectKeyESJ_SL_E15set_deleted_keyERKS9_
Fmd:_AttrListImpl_get_Names_m977594476
NLc:_UNITY_FT_GlyphLoader_Done
M4d:_Pointer_Box_m389276611
asf:_StackTrace_get_FrameCount_m344690939
QPd:_UnexceptionalStreamWriter_Write_m363195622
iMc:__ZN20TextRenderingPrivate25ReadFontFileAndAddToCacheERKN4core12basic_stringIcNS0_20StringStorageDefaultIcEEEE
HEc:_tt_cmap14_char_var_index
uke:_Selectable_OnPointerDown_m1086067264
SIc:_psh_globals_new
i9c:_Dropdown_SetupTemplate_m628218778
aXf:_Thread_GetCompressedStack_m2923422412
Dwd:_SynchronizedArrayListWrapper_CopyTo_m4207791406
m3e:_X509BasicConstraintsExtension_ToString_m1809935297
Hoa:__ZN9GfxDevice20SetMaxBufferedFramesEi
bkh:_TweenRunner_1_StartTween_m1055628540_gshared
v6g:_ReadOnlyCollection_1_System_Collections_IList_Remove_m4129318771_gshared
mph:_GameObject_GetComponents_TisRuntimeObject_m1246177135_gshared
gIj:dynCall_vdd
zQd:_MethodAccessException__ctor_m3542088436
_$b:__Z23ConvertIntegerToTypePtrIsEbPvR14SafeBinaryRead
x9f:_EqualityComparer_1_System_Collections_IEqualityComparer_GetHashCode_m2230215241_gshared
Szj:__ZL60ContentSizeFitter_t3850442145_CustomAttributesCacheGeneratorP21CustomAttributesCache
Lyd:_Hashtable_Contains_m2145146412
jgj:__ZL64UnmarshalledAttribute_t1517743549_CustomAttributesCacheGeneratorP21CustomAttributesCache
zbc:__ZN4Mesh24UpdateSubMeshVertexRangeEi
nFd:_Int32_FindCurrency_m3541026887
b9e:_Interval_CompareTo_m3282557545
bPj:_pthread_cond_wait__wrapper
KTb:__ZNK14RenderSettings19GetFlatAmbientColorEv
tya:__ZN6prcoreL10inner_flipILj4EEEvPhS1_j
ydb:__ZN18StreamedBinaryReadILb0EE21TransferSTLStyleArrayI10vector_mapIPKN5Unity4TypeE7Hash128NSt3__24lessIS6_EENS8_9allocatorINS8_4pairIS6_S7_EEEEEEEvRT_17TransferMetaFlags
Py:__ZNK27StateMachineBehaviourPlayer15IsSenderEnabledEv
akd:_RijndaelManagedTransform_TransformBlock_m1610137419
ilc:__Z40Register_UnityEngine_Transform_SetParentv
C8a:__ZN14Texture2DArray17UploadToGfxDeviceEv
FJ:__Z14FMODMemoryFreePvjPKc
vIi:_NetFxCoreExtensions_GetMethodInfo_m444570327
PRb:__Z14SetSHConstantsR13BatchRendererR17ShaderPassContextRK20SphericalHarmonicsL2b
mtd:_Char_System_IConvertible_ToDecimal_m3534906463
Szc:_cf2_glyphpath_moveTo
SSi:_StackTraceUtility_SetProjectFolder_m830524047
qv:__ZN7mecanim23TransformValueArrayLoopEiiiRKN4math4trsXES3_RNS_10ValueArrayEf
Lgf:_ClientSessionInfo_Finalize_m2165787049
boc:__ZN5IMGUI14GUIWindowStateD2Ev
Iff:_ClientContext_Clear_m1774063253
Lbc:__ZN4Mesh17SetIndicesComplexEPKvjj16GfxPrimitiveTypeij
Imf:_DateTime_AddSeconds_m332574389_AdjustorThunk
BUi:_RequestAtlasCallback_Invoke_m378128467
usd:_Byte_System_IConvertible_ToSByte_m1869482168
irg:__Z99RuntimeInvoker_RuntimeObject_RuntimeObject_RuntimeObject_StreamingContext_t3711869237_RuntimeObjectPFvvEPK10MethodInfoPvPS4_
JB:__ZN7mecanim5human10RetargetToEPKNS0_5HumanEPKNS0_9HumanPoseES6_RKN4math4trsXEPS4_PNS_8skeleton13SkeletonPoseTIS8_EESF_
iv:__ZN7mecanim9animation8SeekClipERKNS0_12StreamedClipERNS0_18StreamedClipMemoryEf
FJi:_GameObject_Internal_AddComponentWithType_m3797731663
km:_emscripten_glIsTexture
Rk:_emscripten_glHint
mHh:_Check_SourceAndPredicate_m2332465641
xAg:__Z67RuntimeInvoker_Boolean_t97287965_TextGenerationSettings_t1351628751PFvvEPK10MethodInfoPvPS4_
BHc:_ft_var_readpackeddeltas
$Df:_String_op_Inequality_m215368492
zyb:__Z35Transfer_Blittable_FixedBufferFieldI18StreamedBinaryReadILb1EEtEvRK29SerializationCommandArgumentsR31RuntimeSerializationCommandInfo
j1f:_UInt32_System_IConvertible_ToInt64_m2261037378
nm:_SDL_UpperBlit
QXa:__Z35GetTextureDecodeValuesWithIntensity16TextureUsageMode17TextureColorSpace10ColorSpacef
AKf:_Array_InternalArray__ICollection_Remove_TisChar_t3634460470_m4143749387_gshared
bKb:__ZN15dense_hashtableINSt3__24pairIK9TextureIDiEES2_14GfxGenericHashIS2_EN14GfxDoubleCacheIS2_iS6_NS0_8equal_toIS2_EEN31GfxDoubleCacheConcurrencyPolicy11LocklessGetE42GfxDoubleCacheDefaultEmptyDeletedGeneratorIS2_EE9SelectKeyES9_13stl_allocatorIS4_L18MemLabelIdentifier24ELi16EEE14squash_deletedEv
kai:__ZN15dense_hashtableINSt3__24pairIK10KeyWrapperINS1_IPK9EventInfoP11Il2CppClassEEEjEES9_17ReflectionMapHashIS8_EN14dense_hash_mapIS9_jSD_NS9_14EqualsComparerINS0_8equal_toIS8_EEEENS0_9allocatorISB_EEE9SelectKeyESI_SK_E15set_deleted_keyERKSB_
FTf:_Encoding_GetBytes_m3823106599
amf:_GregorianCalendar__ctor_m979779718
akf:_SslClientStream__ctor_m2402546929
xEb:__ZN14SafeBinaryRead20OverrideRootTypeNameEPKc
u$e:_DictionaryNodeEnumerator_get_Entry_m2309234501
e1:__ZN14FileCacherRead16UnlockCacheBlockEj
t9:__ZN10InstancingL21OnGraphicsCapsChangedEv
aZf:_WaitHandle_get_Handle_m3260446580
Ygg:_Enumerator_VerifyState_m1745883925_AdjustorThunk
Jc:_emscripten_glUniform1f
Izd:_SortedList__ctor_m1261191695
qMc:__Z20ParseImageParametersR11UTF16StringRiRN20TextRenderingPrivate16TextFormatChangeE
Hzj:__ZL55CanvasScaler_t2767979955_CustomAttributesCacheGeneratorP21CustomAttributesCache
Oc:_emscripten_glUniform1i
Ttb:__Z18Transfer_BlittableI24GenerateTypeTreeTransferLb1EN4math12int3_storageEEvRK29SerializationCommandArgumentsR31RuntimeSerializationCommandInfo
Bqe:__Z14bankers_roundff
eka:__ZN9ShaderLab16SerializedTagMapaSERKS0_
jS:__ZN11UnityEngine15CloudWebService16SessionContainer20RestoreSessionHeaderERKN4core12basic_stringIcNS2_20StringStorageDefaultIcEEEES8_RNS0_13SessionHeaderE
CAi:__ZN6il2cpp2os12Cryptography23GetCryptographyProviderEv
XC:__ZN11UnityEngine9Animation27CreateAvatarBindingConstantER9TransformPKN7mecanim9animation14AvatarConstantERNS3_6memory9AllocatorE
yqg:__Z151RuntimeInvoker_RuntimeObject_Int32_t2950945753_RuntimeObject_ObjectU5BU5DU26_t712384779_RuntimeObject_RuntimeObject_RuntimeObject_ObjectU26_t2146539884PFvvEPK10MethodInfoPvPS4_
dfc:__ZN9BlobWriteC2ER13dynamic_arrayIhLj16EE24TransferInstructionFlags19BuildTargetPlatform
U5c:_CanvasUpdateRegistry__ctor_m2005397069
s$:__ZN14MessageHandler3GetEv
h2d:_MonoMethodInfo_GetCallingConvention_m3156036493
Pme:_LayoutGroup_SetLayoutInputForAxis_m2458344630
ad:_emscripten_glAttachShader
Goa:__ZN9GfxDevice13SetActiveTierE12GraphicsTier
Ldd:_Image__cctor_m1927508576
wka:__ZNSt3__26vectorIN4core12basic_stringIcNS1_20StringStorageDefaultIcEEEENS_9allocatorIS5_EEE6assignIPS5_EENS_9enable_ifIXaasr21__is_forward_iteratorIT_EE5valuesr16is_constructibleIS5_NS_15iterator_traitsISC_E9referenceEEE5valueEvE4typeESC_SC_
qob:__Z18Transfer_BlittableI14SafeBinaryReadLb0E11QuaternionfEvRK29SerializationCommandArgumentsR31RuntimeSerializationCommandInfo
FBb:__Z18Transfer_BlittableI18StreamedBinaryReadILb0EELb1E12PropertyNameEvRK29SerializationCommandArgumentsR31RuntimeSerializationCommandInfo
KW:_tlsf_walk_heap
nqg:__Z49RuntimeInvoker_Void_t1185182177_OpCode_t123070264PFvvEPK10MethodInfoPvPS4_
ODd:_Convert_ToUInt32_m3592050311
jb:invoke_vif
bph:_Component_GetComponents_TisRuntimeObject_m2416546752_gshared
kb:invoke_vid
gGj:__ZNSt3__212basic_stringIcNS_11char_traitsIcEENS_9allocatorIcEEE6insertEjPKc
lb:invoke_vii
lNb:__ZNK12ImageFilters8DoRenderER17ShaderPassContextP13RenderTextureS3_RKNSt3__26vectorI11ImageFilterNS4_9allocatorIS6_EEEE
aLa:__ZN12TLSAllocatorI14StackAllocatorE16ThreadInitializeEP13BaseAllocator
Nrg:__Z82RuntimeInvoker_Boolean_t97287965_SByte_t1669577662_RuntimeObject_SByte_t1669577662PFvvEPK10MethodInfoPvPS4_
fpa:__ZN9GfxDevice32UpdateStereoViewProjectionMatrixE21MonoOrStereoscopicEye
XRc:__Z41CanvasRenderer_CUSTOM_DisableRectClippingP12Il2CppObject
KRd:_MonoType_GetConstructorImpl_m441167626
q8c:_DefaultControls_CreateRawImage_m4219873755
oZg:_Collection_1_IsFixedSize_m3709118201_gshared
mPa:__ZN25SingleBlockMemoryFileDataD0Ev
hLa:__ZNSt3__26vectorI14ConstantStringNS_9allocatorIS1_EEE6assignINS_11__wrap_iterIPS1_EEEENS_9enable_ifIXaasr21__is_forward_iteratorIT_EE5valuesr16is_constructibleIS1_NS_15iterator_traitsISA_E9referenceEEE5valueEvE4typeESA_SA_
eS:__ZN11UnityEngine15CloudWebService16SessionContainer21ConvertFromFolderTimeERKN4core12basic_stringIcNS2_20StringStorageDefaultIcEEEEPjPt
tgd:_CodeAccessPermission_Equals_m1555575992
bqb:__ZNSt3__26vectorI8GUIStyle13stl_allocatorIS1_L18MemLabelIdentifier1ELi16EEE7reserveEj
whi:__ZN6il2cpp6icalls8mscorlib6System9Threading6Thread27GetSerializedCurrentCultureEP12Il2CppThread
ghf:_Context_set_ReadSequenceNumber_m2154909392
Xjd:_RijndaelTransform_SubByte_m3037693507
r1b:__Z31CalculateHierarchyTransformType23TransformAccessReadOnly
a3b:__Z13RegisterClassI11TimeManagerEvv
wJ:__ZN4FMOD8ChannelI11setPositionEjj
jKi:_Input_INTERNAL_CALL_GetTouch_m3481893561
uwi:_GC_set_fl_marks
Vfb:__ZNSt3__26vectorIN30RuntimeInitializeOnLoadManager15ClassMethodInfoE13stl_allocatorIS2_L18MemLabelIdentifier13ELi16EEE7reserveEj
ipa:__ZN9GfxDevice17SetStereoViewportE15StereoscopicEyeRK5RectTIiE
Mfa:__ZN17BaseObjectManager13StaticDestroyEPv
$Ka:__ZNK12TLSAllocatorI14StackAllocatorE24GetBookKeepingMemorySizeEv
_Qh:_CanvasRenderer_INTERNAL_CALL_GetColor_m597074473
oRe:_Comparer_1__cctor_m3891417387_gshared
uWf:_UTF7Decoder_GetChars_m3413809261
FYd:_EnumBuilder_GetEvent_m4074915332
yh:_sysconf
ZTi:_Vector3_get_forward_m3100859705
oI:__ZN4FMOD6Reverb13setPropertiesEPK22FMOD_REVERB_PROPERTIES
YOb:__ZN9DepthPass13PrepareSubsetEjRK10RenderNodeifRK17ShaderReplaceData
JGf:_String_IndexOf_m3406607758
jja:__ZN9ShaderLab20SerializedSubProgram16TextureParameter8TransferI14SafeBinaryReadEEvRT_
Sbc:__Z35SetMeshComponentFromArrayFromScriptR4Mesh30InternalScriptingShaderChannel34InternalScriptingVertexChannelTypei17ScriptingArrayPtri
$Pf:_Array_InternalArray__ICollection_Add_TisCustomAttributeNamedArgument_t287865710_m4157175270_gshared
fq:__ZN4core20StringStorageDefaultIcE6assignEPKcj
o2f:_UInt64_System_IConvertible_ToUInt64_m2135047981_AdjustorThunk
iaf:_BigInteger_ModPow_m3776562770
Rni:__ZN15dense_hashtableINSt3__24pairIK10KeyWrapperIP12Il2CppObjectEN6il2cpp2gc9CachedCCWEEES5_NS7_5utils11PointerHashIS3_EEN14dense_hash_mapIS5_S9_SD_NS5_14EqualsComparerINS0_8equal_toIS4_EEEENS0_9allocatorISA_EEE9SelectKeyESI_SK_E3endEv
hjf:_RecordProtocol_ProcessChangeCipherSpec_m15839975
Qud:_ArrayList_IndexOf_m305368842
ZXb:__ZN6Camera6SetFarEf
Hge:_FormatterConverter_ToBoolean_m1680758923
Jza:__ZN6prcoreL12RemapGenericI17TexFormatABGR888817TexFormatARGB8888EEvPKNS_9InnerInfoE
hQa:__ZN11GameManager17MainThreadCleanupEv
x4g:_ReadOnlyCollection_1__ctor_m1345363288_gshared
DTc:__Z50Register_UnityEngine_UISystemProfilerApi_EndSamplev
Hb:invoke_vffff
aed:_SerializationCallbacks_GetSerializationCallbacks_m2939476649
ryd:_Hashtable__cctor_m4112166779
kGc:_UNITY_tt_slot_init
cLb:__ZZ23InitPlayerLoopCallbacksvEN41PostLateUpdateUpdateResolutionRegistrator7ForwardEv
qDb:__Z25scripting_array_class_get17ScriptingClassPtrj
Qsc:__ZL22Transfer_ManagedObjectI9JSONWriteLb1EEvRK29SerializationCommandArgumentsR31RuntimeSerializationCommandInfo
tF:__ZNK10SampleClip22GetTypeVirtualInternalEv
rqa:__ZN9GfxDevice20DestroyRenderSurfaceER12ObjectHandleI17RenderSurface_TagP17RenderSurfaceBaseE
wAd:_Stack__ctor_m2602729586
yJa:__ZN9GfxDevice22UpdateComputeResourcesEjPK9TextureIDPK16TextureDimensionPKijPKjjPK15ComputeBufferIDS7_PK20ComputeBufferCounterjSC_S2_S5_S9_SF_
V1:__ZN12_GLOBAL__N_15qAsinEff
QHe:_InternalEnumerator_1_System_Collections_IEnumerator_get_Current_m2629988057_AdjustorThunk
bLa:__ZN12TLSAllocatorI14StackAllocatorE13ThreadCleanupEv
bui:__ZThn4_N6il2cpp2vm13ComObjectBase16MarshalInterfaceEP13Il2CppIStreamRK10Il2CppGuidPvjS7_j
iCd:_Convert_ToDouble_m996590115
fGb:__Z27FindActiveTransformWithPathPKc
H8g:_ReadOnlyCollection_1_System_Collections_IList_Remove_m4169110229_gshared
P0f:_UInt16_ToString_m3020002356
lne:_LayoutRebuilder_LayoutComplete_m68578143
uAf:_SHA1Internal_Initialize_m499810128
pY:__ZNK6Camera7GetNearEv
vZd:_GenericTypeParameterBuilder_GetConstructorImpl_m863833310
ECa:__ZN7ApiGLES11UnmapBufferEjN2gl12BufferTargetE
pui:__ZN6il2cpp5utilsL24Utf32CharToSurrogatePairEjRA2_Ds
v3a:__Z25GetNextAllowedTextureSizeib13TextureFormat
ZFb:__ZN20LocalFileSystemWebGL4CopyER13FileEntryDataS1_
JU:__ZN19CloudServiceHandler6RetainEv
n5g:_ReadOnlyCollection_1_System_Collections_IList_IndexOf_m198887188_gshared
Moc:__Z36Event_CUSTOM_Internal_SetNativeEventPv
MVf:_UTF32Encoding_GetBytes_m3180303867
D3:__ZN12BaseRenderer20FlattenToRenderQueueER15RenderNodeQueueRK20DeprecatedSourceData
V6g:_ReadOnlyCollection_1_System_Collections_IList_Clear_m2007013334_gshared
Lib:__Z34scripting_liveness_calculation_endPv
Lpi:__ZN6il2cpp2os6ThreadC2Ev
tof:_DateTimeOffset_get_UtcDateTime_m1021718282_AdjustorThunk
Fu:__ZN21AnimationClipPlayable22ProcessAnimationNoClipEPK35AnimationPlayableEvaluationConstantPK32AnimationPlayableEvaluationInputP33AnimationPlayableEvaluationOutput
S_e:_HybridDictionary_get_Count_m1166314536
Qth:_TlsStream_Write_m1412844442
quc:__Z18Transfer_BlittableI8JSONReadLb0E8Vector3fEvRK29SerializationCommandArgumentsR31RuntimeSerializationCommandInfo
Ofi:__ZN6il2cpp2vm6Thread6DetachEP12Il2CppThread
ruh:_GeneralNames_get_DNSNames_m3788548987
uxc:__GLOBAL__sub_I_runtime_dynamics_2_cpp
XBj:_Hacker_OnUserInput_m1095014035
bD:__ZN7mecanim8skeleton30SkeletonBuildReverseIndexArrayEPiPKiPKNS0_8SkeletonES6_
Rmc:__Z19GetGUIBlendMaterialv
pQd:_Math_Round_m3018379666
Aqi:__ZN6il2cpp2os10ThreadImpl5SleepEjb
p5g:_ReadOnlyCollection_1_System_Collections_IList_Remove_m1965826685_gshared
vrf:_Delegate_CreateDelegate_m1051651521
HLf:_PlayableHandle_IsPlayableOfType_TisRuntimeObject_m503495943_AdjustorThunk
FNj:_glBindSampler__wrapper
_Pa:__ZNSt3__26vectorIN20ArchiveStorageHeader12StorageBlockE13stl_allocatorIS2_L18MemLabelIdentifier55ELi16EEE8__appendEj
Hf:_emscripten_set_mouseup_callback
tLi:_Mathf_Clamp_m3350697880
_rg:__Z165RuntimeInvoker_Void_t1185182177_UInt32U26_t3735378166_Int32_t2950945753_UInt32U26_t3735378166_Int32_t2950945753_Int32_t2950945753_Int32_t2950945753_Int32_t2950945753PFvvEPK10MethodInfoPvPS4_
Qig:_List_1_System_Collections_IList_Remove_m3140917266_gshared
Azh:_CompositeExpression__ctor_m2434860303
o6e:_X509ChainElementCollection_System_Collections_IEnumerable_GetEnumerator_m3829089536
ZZb:__ZNK18ScreenManagerWebGL8GetWidthEv
qF:__ZN10SampleClipD2Ev
bfh:_Predicate_1_Invoke_m2389850270_gshared
eib:__Z13GetGISettingsv
tU:__ZN11UnityEngine15CloudWebService20WebRequestRestClientC2Ev
DBc:_cff_cmap_unicode_init
NJf:_Array_InternalArray__ICollection_Contains_TisRuntimeObject_m4067783231_gshared
QXg:_Collection_1_IsValidItem_m3080586124_gshared
u6c:_ClipperRegistry_Register_m2407166513
IEj:_readlink
N7h:__ZN15dense_hashtableINSt3__24pairIK10KeyWrapperINS1_IPK9EventInfoP11Il2CppClassEEEjEES9_17ReflectionMapHashIS8_EN14dense_hash_mapIS9_jSD_NS9_14EqualsComparerINS0_8equal_toIS8_EEEENS0_9allocatorISB_EEE9SelectKeyESI_SK_E12resize_deltaEjj
c2d:_MonoCMethod_Invoke_m2700167622
nzd:_KeyMarker__cctor_m2590194914
gTe:_Enumerator_Reset_m627751027_AdjustorThunk
ecb:__ZNK6Sprite9GetBoundsE8Vector2fbb
xTa:__ZNK19RenderEventsContext21CleanupCommandBuffersEv
jQh:_TextGenerator_PopulateWithErrors_m1222498386
lua:__ZN11ContextGLES6CreateEi
VQi:_RectTransform_INTERNAL_set_anchoredPosition_m939517950
wOg:_List_1_set_Capacity_m3382070520_gshared
Lle:_U3CMouseDragOutsideRectU3Ec__Iterator1_Dispose_m267465418
tqf:_Decimal_CompareTo_m3502307243_AdjustorThunk
tCb:__Z19TransferField_ArrayI18StreamedBinaryReadILb0EE27Converter_SimpleNativeClassI17AnimationCurveTplIfEEEvRK23StaticTransferFieldInfoR31RuntimeSerializationCommandInfoRT0_
EKa:__ZN14StackAllocator16FrameMaintenanceEb
SMa:__Z18ReadStringFromFilePN4core17string_with_labelILi1EEERKNS_12basic_stringIcNS_20StringStorageDefaultIcEEEE
Aqe:_Scrollbar_get_value_m760470106
uY:__ZNK10GameObject20QueryComponentByTypeEPKN5Unity4TypeE
Ipf:_Decimal_System_IConvertible_ToInt32_m1488426794_AdjustorThunk
RQd:_MonoCustomAttrs_IsUserCattrProvider_m2878058089
rxj:__ZL71InputField_t3762917431_CustomAttributesCacheGenerator_m_HideMobileInputP21CustomAttributesCache
H2a:__ZN11TextureData5ResetEv
qhc:__Z53Register_UnityEngine_GameObject_get_activeInHierarchyv
WBf:_ToBase64Transform_InternalTransformFinalBlock_m360524956
Mmd:_ActivationContext_Dispose_m2038725770
L_:__ZL30InitializeCoreScriptingClassesv
Eg:_glBlitFramebuffer
Vgg:_Enumerator_System_Collections_IEnumerator_get_Current_m3594024719_gshared
Qrb:__Z35Transfer_Blittable_SingleValueFieldI14SafeBinaryReadhEvRT_R17GeneralMonoObjectRK23StaticTransferFieldInfo
Dac:__ZN12CachedWriter15CompleteWritingEv
M1a:__ZNK12CubemapArray22GetTypeVirtualInternalEv
Mn:FUNCTION_TABLE_vif
Nn:FUNCTION_TABLE_vid
On:FUNCTION_TABLE_vii
Wib:__Z40scripting_liveness_calculation_from_root18ScriptingObjectPtrPv
J_a:__ZN7Texture23VirtualRedirectTransferER24GenerateTypeTreeTransfer
gLc:_UNITY_FT_Set_Transform
Umi:__ZN6il2cpp8metadata15GenericMetadata20RegisterGenericClassEP18Il2CppGenericClass
iNj:_glDeleteFramebuffers__wrapper
vog:__Z220RuntimeInvoker_Boolean_t97287965_RuntimeObject_Int32U26_t1369213839_Int32_t2950945753_Int32_t2950945753_Int32_t2950945753_RuntimeObject_SByte_t1669577662_Int32_t2950945753_ContractionU26_t961830454_ContextU26_t3937453398PFvvEPK10MethodInfoPvPS4_
Lzc:_cff_blend_build_vector
q2e:_WebHeaderCollection_ToString_m1263025316
k7b:__ZZN12MeshRenderer15InitializeClassEvEN29FunctorImpl_134kDidDeleteMesh4CallEPviR11MessageData
j4d:_GetterAdapter_Invoke_m3767885970
yPg:_List_1__ctor_m747758800_gshared
gIf:_String_CreateString_m2818852475
S4a:__ZN28EnlightenRendererInformation8TransferI14SafeBinaryReadEEvRT_
wRh:_CanvasRenderer_get_hasMoved_m2236392341
dNi:_MessageEvent__ctor_m1231650089
yha:__ZNK15Lz4Decompressor16DecompressMemoryEPKvPjPvS2_
$Sa:__Z11IsCoroutine18ScriptingMethodPtrRK22CommonScriptingClasses
d2b:__ZN4core8hash_mapINS_12basic_stringIcNS_20StringStorageDefaultIcEEEE10vector_setI4PPtrI11SpriteAtlasENSt3__24lessIS8_EE13stl_allocatorIS8_L18MemLabelIdentifier81ELi16EEENS_4hashIS4_EENS9_8equal_toIS4_EEEixERKS4_
uh:_glGetAttribLocation
J0a:__Z35UnityPropertySheet_MakeSortedColorsRKNSt3__23mapIN9ShaderLab16FastPropertyNameE10ColorRGBAfNS_4lessIS2_EENS_9allocatorINS_4pairIKS2_S3_EEEEEER10vector_mapIS2_S3_S5_NS6_INS7_IS2_S3_EEEEE
YDc:_UNITY_tt_face_load_os2
irb:__Z29Transfer_Blittable_ArrayFieldI14SafeBinaryRead8Vector4fEvRT_R9ArrayInfoRK23StaticTransferFieldInfo
AVd:_Default_check_arguments_m3882727959
OWf:_UTF8Encoding_GetMaxCharCount_m3762459613
LWd:_ModuleBuilder_RegisterToken_m4166846047
VKb:__ZZ23InitPlayerLoopCallbacksvEN51PostLateUpdateUpdateCustomRenderTexturesRegistrator7ForwardEv
upe:_RawImage_OnPopulateMesh_m1115858855
f$h:__ZN6il2cpp2vm13MetadataCache25GetStringLiteralFromIndexEi
mnd:_Hashtable_ToPrime_m33531354
bv:__ZN7mecanim9animation12EvaluateClipEPKNS0_4ClipEPKNS0_9ClipInputEPNS0_10ClipMemoryEPNS0_10ClipOutputE
m2g:_Collection_1_IsSynchronized_m1117613618_gshared
U$f:_TypeInitializationException__ctor_m3546444694
udc:__ZNK9Transform16GetLocalRotationEv
XT:__ZN11UnityEngine15CloudWebService23WebRequestUploadHandler17ConsumeUploadDataEj
wCg:__Z68RuntimeInvoker_Void_t1185182177_Single_t1397266774_SByte_t1669577662PFvvEPK10MethodInfoPvPS4_
PMd:_MemoryStream_set_Position_m3169779190
RWb:__ZN13RenderManager29SetCurrentCameraAndStackStateEP6CameraP25CameraStackRenderingState
l1c:_ExecuteEvents_get_scrollHandler_m2659345019
XRa:__ZNSt3__26__treeINS_12__value_typeIjN4core12basic_stringIcNS2_20StringStorageDefaultIcEEEEEENS_19__map_value_compareIjS7_NS_4lessIjEELb1EEE13stl_allocatorIS7_L18MemLabelIdentifier7ELi16EEE7destroyEPNS_11__tree_nodeIS7_PvEE
zfi:__ZN15dense_hashtableINSt3__24pairIK10KeyWrapperINS1_IP11Il2CppClassjEEES4_EES6_N6il2cpp8metadata14ArrayClassHashEN14dense_hash_mapIS6_S4_SB_NS6_14EqualsComparerINSA_17ArrayClassCompareEEENS0_9allocatorIS8_EEE9SelectKeyESF_SH_E12resize_deltaEjj
Th:_JS_WebRequest_Release
FS:__ZN11UnityEngine15CloudWebService14DataErrorEventD0Ev
oji:__ZN6il2cpp6icalls8mscorlib6System4Type20internal_from_handleEi
lae:_Context__ctor_m254302079
Qmi:__ZN6il2cpp8metadata15GenericMetadata7InflateEPK19Il2CppGenericMethodPK20Il2CppGenericContext
h4a:__ZN19ShaderPropertySheet16SetArrayPropertyEN9ShaderLab16FastPropertyNameENS_12PropertyTypeEPKvj
ire:_Selectable_FindSelectable_m2348614027
S9c:_DropdownItem_OnPointerEnter_m1492957598
IOc:__ZN2UI11CanvasGroup23VirtualRedirectTransferER19StreamedBinaryWriteILb0EE
joc:__ZN8GUIState8EndOnGUIEv
OUc:__ZN11UnityEngine15PlatformWrapper16GetApplicationIdEv
rGc:_UNITY_TT_Get_VMetrics
ewd:_SimpleEnumerator__cctor_m2844299657
dQd:_LocalDataStoreSlot__ctor_m4104083971
_8g:_ReadOnlyCollection_1_System_Collections_Generic_IListU3CTU3E_RemoveAt_m3849058645_gshared
pOh:_AudioSource_ReadExtensionName_m725112169
rwh:_X509CertificateEnumerator_System_Collections_IEnumerator_Reset_m2039524926
hvg:__Z128RuntimeInvoker_Void_t1185182177_RuntimeObject_BooleanU26_t4125257963_SByte_t1669577662_Int32U26_t1369213839_Int32U26_t1369213839PFvvEPK10MethodInfoPvPS4_
cxa:__ZN7Texture21GetMasterTextureLimitEv
HYb:__Z12CanAddScriptR10GameObject17ScriptingClassPtrPS1_S2_
Nai:__ZN6il2cpp2vm10Reflection12HasAttributeEP12Il2CppObjectP11Il2CppClass
Ybh:_Comparison_1_BeginInvoke_m3263247262_gshared
P9:__ZN9ShaderLabL25StaticInitializeShaderLabEPv
U:Math_max
aAj:__ZL64HorizontalLayoutGroup_t2586782146_CustomAttributesCacheGeneratorP21CustomAttributesCache
Jci:_il2cpp_class_get_methods
sSi:_HitInfo_SendMessage_m1343099429_AdjustorThunk
Wtb:__Z18Transfer_BlittableI24GenerateTypeTreeTransferLb0EN4math12int2_storageEEvRK29SerializationCommandArgumentsR31RuntimeSerializationCommandInfo
$rf:_StackTrace_get_trace_m1194606084
IFf:_Single_CompareTo_m2785801815_AdjustorThunk
Tpi:__ZN6il2cpp2os6Thread16GetCurrentThreadEv
Ukh:_Array_InternalArray__Insert_TisUILineInfo_t4195266810_m3191124053_gshared
J8b:__ZN10GameObject13ComponentPair15SetComponentPtrEPN5Unity9ComponentE
DLj:_glBlitFramebuffer__wrapper
P2b:__Z13RegisterClassI10MeshFilterEvv
bSa:__ZN10TagManager8TransferI19StreamedBinaryWriteILb0EEEEvRT_
pib:__ZN11PreloadData23VirtualRedirectTransferER18StreamedBinaryReadILb0EE
wOi:_PropertyNameUtils_PropertyNameFromString_Injected_m1259736140
ktd:_Char_System_IConvertible_ToDateTime_m3564102661
L6a:__ZN6Sprite17MainThreadCleanupEv
LLj:_glBlendFuncSeparate__wrapper
bL:__ZN10AudioMixer14UpdateMuteSoloEv
nRa:__ZN9Transform35SetLocalPositionWithoutNotificationERKN4math7_float3Ey
Qug:__Z69RuntimeInvoker_UInt64_t4134040092_Int32_t2950945753_SByte_t1669577662PFvvEPK10MethodInfoPvPS4_
Ui:_JS_Eval_ClearTimeout
cqe:_Raycast2DCallback_Invoke_m1500574149
OBa:__ZN7ApiGLES16SetPatchVerticesEi
EBh:_CharacterClass_Compile_m3296067317
Lri:__ZN6il2cpp2gc16GarbageCollector16InvokeFinalizersEv
tsd:_Byte_System_IConvertible_ToInt64_m285584218_AdjustorThunk
RPi:_Rect_get_size_m477575021_AdjustorThunk
ITh:__ZN6il2cpp2vm5Class20FromGenericParameterEPK22Il2CppGenericParameter
gV:__ZN19CloudServiceHandler11FlushEventsEv
cfa:__ZN15GlobalCallbacksC2Ev
bQf:_Array_InternalArray__ICollection_Add_TisLabelData_t360167391_m1648183135_gshared
jSe:_Comparer_1_System_Collections_IComparer_Compare_m2016223770_gshared
fug:__Z74RuntimeInvoker_DateTime_t3738529785_DateTime_t3738529785_Int32_t2950945753PFvvEPK10MethodInfoPvPS4_
vMc:_UNITY_FT_New_Memory_Face
T_g:_Collection_1_System_Collections_IList_IndexOf_m3271188411_gshared
zKc:__ZN20TextRenderingPrivate21TextMeshGeneratorImpl5FlushEv
BMd:_MonoIO_GetFileStat_m678141354
nCc:_UNITY_FT_Load_Sfnt_Table
w8c:__Z15CastclassSealedP12Il2CppObjectP11Il2CppClass
iqf:_Decimal_IsZero_m4250358244_AdjustorThunk
RPd:_UnmanagedMemoryStream_get_CanRead_m3770815400
yXb:__ZN16ReflectionProbes40UpdateRealtimeReflectionProbesTimeslicedEv
_pf:_Decimal_u64_m3374804932
l0f:_UInt16_System_IConvertible_ToInt32_m1950778303_AdjustorThunk
Efb:__ZNK30RuntimeInitializeOnLoadManager22GetTypeVirtualInternalEv
pYh:__ZN15dense_hashtableINSt3__24pairIK10KeyWrapperIN6il2cpp5utils13dynamic_arrayIPK10Il2CppTypeLj4EEEEPFvvEEESA_NS3_8metadata19Il2CppSignatureHashEN14dense_hash_mapISA_SD_SG_NSA_14EqualsComparerINSF_22Il2CppSignatureCompareEEENS0_9allocatorISE_EEE9SelectKeyESK_SM_E12resize_deltaEjj
s6b:__ZN16ReflectionProbes15InitializeClassEv
S6g:_ReadOnlyCollection_1_System_Collections_ICollection_CopyTo_m2527663815_gshared
Hoh:_Dictionary_2_Do_ICollectionCopyTo_TisKeyValuePair_2_t3699644050_m4159638770_gshared
Pki:__ZN6il2cpp2vm5Image9GetCorlibEv
LVi:_Vector3_get_left_m2428419009
eA:__ZN8Animator13BatchedFKPassERK13dynamic_arrayIP14PlayableOutputLj4EE
jxi:_GC_reclaim_uninit
_0c:_ExecuteEvents_Execute_m113814934
Aba:__ZN13RuntimeStaticINSt3__23mapIN4core12basic_stringIcNS2_20StringStorageDefaultIcEEEES6_NS0_4lessIS6_EE13stl_allocatorINS0_4pairIKS6_S6_EEL18MemLabelIdentifier13ELi16EEEELb0EE13StaticDestroyEPv
omh:_Array_qsort_TisColor32_t2600501292_m1362211604_gshared
pSe:_Enumerator_System_Collections_IEnumerator_get_Current_m2979767597_AdjustorThunk
lhh:__ZN30GenericInterfaceActionInvoker1I17Color_t2555686324E6InvokeEPK10MethodInfoP12Il2CppObjectS0_
sjd:_MD5CryptoServiceProvider_ProcessFinalBlock_m2241588515
sse:_ScrollRect_GetBounds_m449872505
Tj:_glIsVertexArray
Xld:_SmallXmlParser_Read_m3485223434
cFd:_Int16_Parse_m2276856944
ea:invoke_fff
xEj:_mbsinit
rKj:b14
TNc:__ZN2UI6Canvas17MainThreadCleanupEv
rza:__ZN6prcoreL12RemapGenericI17TexFormatARGB155517TexFormatRGBA8888EEvPKNS_9InnerInfoE
BVh:__ZN13Il2CppHashMapIPK19Il2CppGenericMethodPK26Il2CppGenericMethodIndicesN6il2cpp8metadata23Il2CppGenericMethodHashENS7_26Il2CppGenericMethodCompareENSt3__29allocatorINSA_4pairIK10KeyWrapperIS2_ES5_EEEEEC2EjRKS8_RKS9_
p0d:_TypeBuilder_HasElementTypeImpl_m1871001960
NEf:_SecurityFrame__ctor_m2140076703_AdjustorThunk
V8f:_DefaultComparer_Equals_m2458578172_gshared
qDa:__ZN7ApiGLES13CreateProgramEv
oKj:b11
oTe:_Enumerator_VerifyState_m4003066746_gshared
rxa:__ZN4crnd12crn_unpackerD2Ev
ek:_emscripten_glTexImage2D
dRe:_Comparer_1_System_Collections_IComparer_Compare_m2537217645_gshared
z_:__ZN18ScriptingArguments9AddStringEPKc
Dxi:_setup_header
jud:_Char_ToString_m3588025615
EAe:_CryptoConvert_ToCapiKeyBlob_m3371450375
zya:__ZL23stbir__resize_arbitraryPvPKviiiS_iiiffffPfiij14stbir_datatype12stbir_filterS4_10stbir_edgeS5_16stbir_colorspace
oub:__Z18Transfer_BlittableI24GenerateTypeTreeTransferLb1E8Vector4fEvRK29SerializationCommandArgumentsR31RuntimeSerializationCommandInfo
vKj:b18
pk:_pthread_detach
V$h:__ZN6il2cpp2vm19SocketPollingThread7RunLoopEv
yad:_FontUpdateTracker_UntrackText_m1981515690
l9b:__ZN15DirectorManager20ScheduleGraphDestroyERK14HPlayableGraph
gDb:__ZNSt3__213__stable_sortIRN10vector_mapI17ScriptingClassPtrPKN5Unity4TypeENS_4lessIS2_EENS_9allocatorINS_4pairIS2_S6_EEEEE13value_compareENS_11__wrap_iterIPSB_EEEEvT0_SJ_T_NS_15iterator_traitsISJ_E15difference_typeEPNSM_10value_typeEi
gxe:_SimpleCollator_FillSurrogateSortKeyRaw_m725998232
NRg:_List_1_AddEnumerable_m1284696147_gshared
D1e:_IPAddress_Equals_m1823478787
bbe:_Context_CreateNewContext_m3053563976
Zka:__ZN9ShaderLab25SerializedTextureProperty8TransferI24GenerateTypeTreeTransferEEvRT_
F8h:__ZN6il2cpp2gc19AppendOnlyGCHashMapINSt3__24pairIPK14Il2CppAssemblyP11Il2CppClassEEP24Il2CppReflectionAssembly17ReflectionMapHashIS9_ENS2_8equal_toIS9_EEEC2Ev
$wb:__Z18Transfer_BlittableI19StreamedBinaryWriteILb0EELb0EdEvRK29SerializationCommandArgumentsR31RuntimeSerializationCommandInfo
ala:__ZN11NamedObject8TransferI18StreamedBinaryReadILb0EEEEvRT_
rIi:_InvokableCall_remove_Delegate_m1376110510
Kyd:_Hashtable_Clear_m3112193608
wWf:_UTF8Encoding_InternalGetByteCount_m771565606
ovc:__Z18Transfer_BlittableI8JSONReadLb1EyEvRK29SerializationCommandArgumentsR31RuntimeSerializationCommandInfo
QMg:_List_1_System_Collections_IList_Remove_m3654336679_gshared
Jij:__ZL51GUILayer_t2783472903_CustomAttributesCacheGeneratorP21CustomAttributesCache
Mk:_emscripten_glMatrixMode
Hoe:_MaskableGraphic_UnityEngine_UI_IClippable_get_gameObject_m1739855597
Ps:__ZN8Animator23VirtualRedirectTransferER18StreamedBinaryReadILb0EE
jyf:_Guid__ctor_m3562600567_AdjustorThunk
_R:__ZN11UnityEngine15CloudWebService14DataDispatcher16PrepareDataBlockERNS0_16SessionContainerE
_Ha:__ZN18GfxFramebufferGLES5ClearE13GfxClearFlagsRK10ColorRGBAffib
CPf:_MonoProperty_StaticGetterAdapterFrame_TisRuntimeObject_m4131530968_gshared
KBb:__ZL26Transfer_SimpleNativeClassI18StreamedBinaryReadILb0EE10RectOffsetLb0EEvRK29SerializationCommandArgumentsR31RuntimeSerializationCommandInfo
DKe:_InternalEnumerator_1_get_Current_m2316281569_gshared
HOb:__ZL12DepthPassJobPN21GfxDeviceAsyncCommand10ArgScratchEPKNS_3ArgE
lja:__ZNSt3__26vectorIN9ShaderLab20SerializedSubProgram16TextureParameterENS_9allocatorIS3_EEE6assignINS_11__wrap_iterIPS3_EEEENS_9enable_ifIXaasr21__is_forward_iteratorIT_EE5valuesr16is_constructibleIS3_NS_15iterator_traitsISC_E9referenceEEE5valueEvE4typeESC_SC_
Jqc:__ZN5Unity9rapidjson6WriterI16TempBufferWriterNS0_4UTF8IcEES4_13JSONAllocatorE11WriteDoubleEd
cYf:_Thread_SetCachedCurrentUICulture_m1729523031
TRc:__Z55Register_UnityEngine_CanvasGroup_get_ignoreParentGroupsv
n3b:__Z13RegisterClassI19LowerResBlitTextureEvv
Hff:_ClientContext_set_ClientHelloProtocol_m4189379912
Nm:FUNCTION_TABLE_iiiiiiiiiiii
pRg:_List_1_get_Item_m1686506901_gshared
mUa:__ZN16GraphicsSettingsD0Ev
n:cttz_i8
zzc:_UNITY_FT_GlyphLoader_Add
LOh:_AudioListener_INTERNAL_CALL_ReadExtensionPropertyName_m330480156
yDd:_Convert_ToUInt16_m867476252
Jl:_emscripten_glViewport
Qti:__ZN6il2cpp6icalls8mscorlib6System15MonoCustomAttrs17IsDefinedInternalEP12Il2CppObjectP20Il2CppReflectionType
ESh:_SkeletonBone_t4134054672_marshal_pinvoke_back
XAc:_cff_parse_font_bbox
pwe:_MSCompatUnicodeTable_Category_m1834196420
Vdb:__ZN14PlayerSettings23VirtualRedirectTransferER18StreamedBinaryReadILb0EE
Qsf:_Double_CompareTo_m3151899116
JCi:__ZN6il2cpp2os5Event5ResetEv
UTb:__Z26CombineDepthNormalsTextureRK17RenderLoopContextR13dynamic_arrayI16RenderObjectDataLj4EE
pEc:_tt_name_ascii_from_other
jIh:_ToggleGroup__ctor_m3308114662
Bmi:__ZN6il2cpp8metadata15GenericMetadata17InflateParametersEPK13ParameterInfohPK20Il2CppGenericContextb
oSa:__ZN6Camera13AwakeFromLoadE17AwakeFromLoadMode
Knh:_Array_Sort_TisUILineInfo_t4195266810_m3737783007_gshared
RNi:_PlayableAsset_Internal_CreatePlayable_m2550417712
Xv:__ZNK17AnimationPlayable27GetNextCompatibleDescendantEi
Zth:_TlsStream_Write_m188217214
MGb:__Z25SetNeedToPerformRenderingb
b2f:_UInt64_System_IConvertible_ToInt32_m949522652_AdjustorThunk
AQa:__ZN10GameObjectD2Ev
WOb:__ZN14qsort_internal30FindAndMovePivotToLastPositionIP15RODataDepthPassi17ROSorterDepthPassEEvT_S4_T0_T1_
HWb:__ZN12CullingGroup10SendEventsEPK17CullingGroupEventj
A2c:_PointerInputModule__ctor_m3728889932
GX:__ZThn32_NK8Renderer8GetLayerEv
ugg:_Enumerator_System_Collections_IEnumerator_Reset_m2915500989_gshared
aBc:_cff_parse_vsindex
oFd:_Int32_ValidDigit_m1059003769
VPj:_emscripten_glTexParameterfv__wrapper
Q2h:__ZN6il2cpp2vm7Runtime23GetGenericVirtualMethodEPK10MethodInfoS4_
vme:_LayoutGroup_get_rectTransform_m442863741
xob:__Z18Transfer_BlittableI14SafeBinaryReadLb1E9BoundsIntEvRK29SerializationCommandArgumentsR31RuntimeSerializationCommandInfo
Adi:_il2cpp_method_get_param_count
_cc:__ZN10systeminfo19ISOToSystemLanguageERN4core12basic_stringIcNS0_20StringStorageDefaultIcEEEE
x7h:__ZNK15dense_hashtableINSt3__24pairIK10KeyWrapperINS1_IPK12PropertyInfoP11Il2CppClassEEEjEES9_17ReflectionMapHashIS8_EN14dense_hash_mapIS9_jSD_NS9_14EqualsComparerINS0_8equal_toIS8_EEEENS0_9allocatorISB_EEE9SelectKeyESI_SK_E3endEv
Q2f:_UnauthorizedAccessException__ctor_m40101894
sIc:_ps_dimension_done
HNc:__Z46Register_UnityEngine_TextGenerator_Dispose_cppv
Vsf:_Double_Parse_m4153729520
tjh:_IndexedSet_1_AddUnique_m861843892_gshared
x4a:__ZN16LightmapSettings8TransferI14SafeBinaryReadEEvRT_
yoa:__ZN17BufferManagerGLES13ReleaseBufferEP14DataBufferGLES
Hef:_CipherSuite_Write_m1172814058
aPd:_SynchronizedWriter_Write_m301917713
H8:__ZN9profiling6MarkerC2EPKc13ProfilerGroupNS0_5FlagsE
lvc:__Z18Transfer_BlittableI8JSONReadLb1EjEvRK29SerializationCommandArgumentsR31RuntimeSerializationCommandInfo
PWd:_ConstructorBuilder_get_IsCompilerContext_m3364441562
sHi:_Debug_LogWarning_m3752629331
kbh:_ReadOnlyCollection_1_System_Collections_Generic_IListU3CTU3E_RemoveAt_m4037795630_gshared
qsg:__Z117RuntimeInvoker_Void_t1185182177_RuntimeObject_Int32_t2950945753_Int32_t2950945753_Int32_t2950945753_Int32_t2950945753PFvvEPK10MethodInfoPvPS4_
n5c:_U3COnFinishSubmitU3Ec__Iterator0_Reset_m3632769946
$o:stackSave
r7c:_ColorTween_get_targetColor_m1724075482_AdjustorThunk
NIc:_ps_dimension_end
fmc:__Z41Register_UnityEngine_Mesh_Internal_Createv
zmi:__ZNK15dense_hashtableI10KeyWrapperIP18Il2CppGenericClassES3_N6il2cpp8metadata22Il2CppGenericClassHashEN14dense_hash_setIS3_S6_NS3_14EqualsComparerINS5_25Il2CppGenericClassCompareEEENSt3__29allocatorIS3_EEE8IdentityESA_SD_E12test_deletedERK30dense_hashtable_const_iteratorIS3_S3_S6_SF_SA_SD_E
TAd:_Console_Open_m3077673205
ywh:_X509StoreManager_get_CurrentUser_m4040993045
eYb:__ZN6Camera9SetAspectEf
COf:_Array_InternalArray__IndexOf_TisDateTime_t3738529785_m2463359116_gshared
va:invoke_viiffiii
CBj:_Display_Start_m3623905221
kRj:_emscripten_glBindVertexArray__wrapper
mCh:_Parser_IsECMAScript_m674158805
vRa:__ZN9Transform37InitializeTransformHierarchyRecursiveER18TransformHierarchyRii
OHa:__ZN26SinglePassStereoSupportExt23SetupStereoMatrixParamsE21MonoOrStereoscopicEye24BuiltinShaderMatrixParamRK10Matrix4x4f
sEj:_fscanf
nZc:__ZNK25UnityWebRequestJavaScript16GetUploadedBytesEv
ZP:__Z46AudioListener_CUSTOM_GetNumExtensionPropertiesP12Il2CppObject
e1h:__ZN6il2cpp6icalls8mscorlib6SystemL16CheckMemberMatchI9FieldInfoNS_5utils10functional6FilterINSt3__212basic_stringIcNS8_11char_traitsIcEENS8_9allocatorIcEEEENS5_13VmStringUtils23CaseInsensitiveComparerEEEEEbPKT_PK11Il2CppClassSN_iRKT0_
POf:_Array_InternalArray__IndexOf_TisMonoResource_t4103430009_m1351751258_gshared
Puf:_FieldAccessException__ctor_m3583219052
alc:__Z57Register_UnityEngine_Transform_INTERNAL_set_localPositionv
Csa:__ZN13GfxDeviceGLES26SetRandomWriteTargetBufferEi15ComputeBufferID
Cxi:_GC_split_block
Tmh:_Array_Resize_TisUICharInfo_t75501106_m3903846016_gshared
JKb:__ZZ23InitPlayerLoopCallbacksvEN49EarlyUpdateResetFrameStatsAfterPresentRegistrator7ForwardEv
UEj:_poll
Z7g:_ReadOnlyCollection_1_System_Collections_IEnumerable_GetEnumerator_m1671097018_gshared
B2f:_UInt64_ToString_m1529093114_AdjustorThunk
ezj:__ZL85Selectable_t3250028441_CustomAttributesCacheGenerator_Selectable_IsPressed_m907486548P21CustomAttributesCache
z7d:_TypeLibImportClassAttribute__ctor_m2302178978
Qxe:_Escape_t3294788190_marshal_pinvoke
Rke:_InputField_OnUpdateSelected_m1118869681
Tki:__ZN6il2cpp2vmL36AddNestedTypesToNametoClassHashTableEP40Il2CppNameToTypeDefinitionIndexHashTablePKcRKNSt3__212basic_stringIcNS5_11char_traitsIcEENS5_9allocatorIcEEEEP11Il2CppClass
Bxa:__ZN4crnd12crn_unpacker11unpack_dxt1EPPhjjj
Jcc:__ZNK11ICallString6ToUTF8Ev
OTh:__ZN15dense_hashtableINSt3__24pairIK10KeyWrapperIPK22Il2CppGenericParameterEP11Il2CppClassEES6_N6il2cpp5utils11PointerHashIS4_EEN14dense_hash_mapIS6_S9_SE_NS6_14EqualsComparerINS0_8equal_toIS5_EEEENS0_9allocatorISA_EEE9SelectKeyESJ_SL_E15insert_noresizeERKSA_
sWe:_Transform_1_Invoke_m2468053724_gshared
XOb:__ZNSt3__211__sift_downIR17ROSorterDepthPassP15RODataDepthPassEEvT0_S5_T_NS_15iterator_traitsIS5_E15difference_typeES5_
g0a:__ZN18UnityPropertySheet11UnityTexEnvC2Ev
Lnd:_ArgumentException__ctor_m3200406061
zA:__ZN8Animator17ApplyOnAnimatorIKEiRNS_11AnimatorJobE
p1:__ZN12FileAccessor4ReadEyyPvPy
hTg:_List_1_set_Capacity_m2777925136_gshared
HXb:__ZN13RenderTexture9SetHeightEi
IEa:__ZNK6Camera20IsCurrentlyRenderingEv
mu:__ZN7mecanim9animation17ClearMotionOutputEPNS0_18AnimationNodeStateE
sff:_CipherSuiteCollection_get_IsFixedSize_m3127823890
MPe:_InternalEnumerator_1_System_Collections_IEnumerator_get_Current_m3537550566_gshared
zqe:_Scrollbar_UpdateVisuals_m2492252165
ovh:_PKCS12_get_Keys_m2165478388
tii:__ZN6il2cpp6icalls8mscorlib6System2IO6MonoIO17GetFileAttributesEP12Il2CppStringPi
Jid:_HMACMD5__ctor_m3008609295
knf:_DateTime__ParseAmPm_m3478436123
Qnf:_DateTime_ToString_m2992030064_AdjustorThunk
iFc:_tt_cmap8_char_index
__:__Z24scripting_class_get_name17ScriptingClassPtr
LNd:_Stream_WriteByte_m1519852120
IIh:_VerticalLayoutGroup_CalculateLayoutInputHorizontal_m1404590745
ica:__ZN13RuntimeStaticI15GUIEventManagerLb0EE13StaticDestroyEPv
DRd:_ShortComparer_Compare_m1881262465
oqb:__Z29Transfer_Blittable_ArrayFieldI14SafeBinaryReadjEvRT_R9ArrayInfoRK23StaticTransferFieldInfo
ee:_emscripten_set_keydown_callback
dTf:_EncoderReplacementFallback__ctor_m1483565116
p8e:_Interpreter_IsWordChar_m2858055765
Hyd:_Hashtable_CopyTo_m2905447224
x1:__ZN12FileAccessorC2Ev
lGf:_String_System_IConvertible_ToDouble_m3740733360
qy:__ZThn152_NK26AnimatorControllerPlayable25GetStateMachineBehavioursEv
jjh:_EventFunction_1_Invoke_m2429482587_gshared
X2e:_AsnEncodedData_SubjectAltName_m4049949414
I2h:__ZN6il2cpp2vm7Runtime12GetConfigDirEv
Ufg:_Enumerator_MoveNext_m1177880931_AdjustorThunk
$te:_Slider_UpdateVisuals_m3662961057
hQh:_TextGenerator_Populate_m194003733
SXd:_DerivedType_get_FullName_m1025358827
Pgd:_CryptoConfig_MapNameToOID_m2044758263
vxj:__ZL70InputField_t3762917431_CustomAttributesCacheGenerator_m_OnValueChangedP21CustomAttributesCache
EHb:__ZN13RenderManager22OnWindowSizeHasChangedEv
aFb:__Z39WriteQueueForTransferSignatureIntoCacheRK31TransferFunctionScriptingTraitsRK24TransferRequestSignature17ScriptingClassPtrR23CachedSerializationDataRb
jhb:__ZN13RenderManager18UpdateAllRenderersEv
pUf:_Encoding_get_UTF8UnmarkedUnsafe_m320312322
lYf:_Thread_Thread_free_internal_m333849022
yGe:_InternalEnumerator_1_System_Collections_IEnumerator_get_Current_m3575233890_gshared
zxh:_CostDelegate_BeginInvoke_m2828452701
QTc:__ZN22BaseUnityConnectClient30OnEnteringStatePausedOrStoppedEv
Q0g:_Collection_1_ConvertItem_m1556170494_gshared
Au:__ZN7mecanim5human12HumanPoseAddERNS0_9HumanPoseERKS1_S4_
Klf:_DateTime_ToUniversalTime_m1945318289
dvd:_ArrayList_ToArray_m3827492363
rue:_Slider_get_stepSize_m1423227661
w2f:_UInt64_Parse_m819899889
ABf:_SymmetricAlgorithm_set_IV_m3196220308
i_d:_GenericTypeParameterBuilder_GetHashCode_m852224381
KDd:_Convert_ToUInt32_m1453583008
Lvf:_CompareInfo_Compare_m894311506
dRa:__Z24MergeTransformComponentsR9TransformS0_b
IXh:__ZNK15dense_hashtableI10KeyWrapperIPK19Il2CppGenericMethodES4_N6il2cpp8metadata23Il2CppGenericMethodHashEN14dense_hash_setIS4_S7_NS4_14EqualsComparerINS6_26Il2CppGenericMethodCompareEEENSt3__29allocatorIS4_EEE8IdentityESB_SE_E10test_emptyEj
j$c:_EventSystem_UpdateModules_m3643806022
jSh:_AnimationOffsetPlayable__cctor_m1029460816
Sti:__ZN6il2cpp2vm13ComObjectBase19GetRuntimeClassNameEPP15Il2CppHString__
Rj:_emscripten_glVertexAttribPointer
yVa:__ZNK20IntermediateRenderer12GetSceneMaskEv
PHb:__ZN14PreloadManager26UpdatePreloadingSingleStepENS_21UpdatePreloadingFlagsEi
fte:_ScrollRect_SetLayoutHorizontal_m3078869633
Fwe:_SimpleCollator__ctor_m1587210019
ljc:__Z57Register_UnityEngine_RectTransform_INTERNAL_set_anchorMinv
GDd:_Convert_ToUInt16_m1480956416
_ya:__ZN6prcoreL25inner_stretch_i8_bilinearEPKNS_9InnerInfoE
Dib:__ZL30RegisterFilteredObjectCallbackPP12Il2CppObjectiPv
Iah:_ReadOnlyCollection_1_System_Collections_Generic_IListU3CTU3E_RemoveAt_m3317217538_gshared
Mpj:__ZL54AudioSource_t3935305588_CustomAttributesCacheGeneratorP21CustomAttributesCache
eIb:__Z19InitializeGfxDevicev
uS:__ZN11UnityEngine15CloudWebService16SessionContainer24GetSessionHeaderJsonDataERKN4core12basic_stringIcNS2_20StringStorageDefaultIcEEEERNS2_13StringBuilderE
vXd:_DerivedType_GetEvent_m4157575360
Wba:__ZN13RuntimeStaticI21AssetReferenceStorageLb0EE13StaticDestroyEPv
Sfd:_SByte_System_IConvertible_ToType_m4075253447_AdjustorThunk
t4g:_Collection_1_ConvertItem_m618594517_gshared
ECg:__Z72RuntimeInvoker_Bounds_t2266837910_RuntimeObject_Matrix4x4U26_t3606180965PFvvEPK10MethodInfoPvPS4_
Cpi:__ZN6il2cpp6icalls8mscorlib6System9AppDomain22InternalGetProcessGuidEP12Il2CppString
gzc:_cf2_builder_moveTo
emg:__Z48RuntimeInvoker_RuntimeObject_Decimal_t2948259380PFvvEPK10MethodInfoPvPS4_
ANa:__ZNK17FileSystemHandler10IsReadOnlyERK13FileEntryData
Lub:__Z18Transfer_BlittableI24GenerateTypeTreeTransferLb1EjEvRK29SerializationCommandArgumentsR31RuntimeSerializationCommandInfo
MTh:__ZN6il2cpp2os12FastAutoLockD2Ev
$6:__ZN11ColorRGBA328TransferI14SafeBinaryReadEEvRT_
pBc:_cff_vstore_done
sxg:__Z68RuntimeInvoker_Void_t1185182177_UInt16_t2177724958_SByte_t1669577662PFvvEPK10MethodInfoPvPS4_
ufb:__ZN15ResourceManager10Dependency8TransferI24GenerateTypeTreeTransferEEvRT_
gjd:_MACTripleDES_HashFinal_m3613553534
S1f:_UInt64_System_IConvertible_ToChar_m2074245892
AWf:_UTF8Encoding_InternalGetBytes_m1965760031
Jf:_emscripten_glClearDepth
Q7b:__ZNK8GUILayer22GetTypeVirtualInternalEv
D5a:__ZN14SafeBinaryRead21TransferSTLStyleArrayINSt3__26vectorIN15QualitySettings14QualitySettingENS1_9allocatorIS4_EEEEEEvRT_17TransferMetaFlags
tdb:__ZNSt3__26vectorINS_4pairIPKN5Unity4TypeE7Hash128EENS_9allocatorIS7_EEE8__appendEj
sBc:_cff_font_load
gqi:__GLOBAL__sub_I_LibraryLoader_cpp
Bdc:__Z13IsPathCreatedRKN4core12basic_stringIcNS_20StringStorageDefaultIcEEEE
Fya:__ZL22stbir__encode_scanlineP11stbir__infoiPvPfiii
G6d:_ExternalException__ctor_m2877839282
kyc:__ZN20QuadTreeNodeRenderer13StaticDestroyEPv
qT:__ZN11UnityEngine15CloudWebService20WebRequestRestClient5AbortEv
yAh:_Regex_Matches_m2080913806
T4b:__ZN9Transform12CleanupClassEv
ASi:_Sprite_get_rect_m2575211689
Swj:__ZL85Graphic_t1660335611_CustomAttributesCacheGenerator_Graphic_OnPopulateMesh_m2916877004P21CustomAttributesCache
dLi:_Mathf_Sin_m3411839043
yMc:_UNITY_FT_Set_Pixel_Sizes
UTd:_OperatingSystem_Clone_m1122165140
Uqh:_GameObject_AddComponent_TisRuntimeObject_m3469369570_gshared
gka:__ZNSt3__26vectorIN9ShaderLab19SerializedSubShaderENS_9allocatorIS2_EEE26__swap_out_circular_bufferERNS_14__split_bufferIS2_RS4_EE
dA:__ZN11UnityEngine9Animation33SetGenericTransformPropertyValuesERKNS0_30AnimatorGenericBindingConstantERKN7mecanim10ValueArrayEP9Transformy
Nfi:__ZN6il2cpp2vmL24thread_cleanup_on_cancelEPv
lPg:_List_1_RemoveAll_m3165362277_gshared
V_f:_Type_type_is_subtype_of_m1406623598
$Wf:_Thread_get_CurrentThread_m4142136012
QVa:__Z30ProcessDynamicBatchGeometryJobP25DynamicVBOGeometryJobDataj
rPb:__ZNSt3__27__sort4IRNS_6__lessI11CulledLightS2_EEPS2_EEjT0_S6_S6_S6_T_
Yai:__ZN6il2cpp2vm14TypeNameParser26ParseArrayModifierOptionalEv
VZ:__Z26scripting_object_get_class18ScriptingObjectPtr
Mgi:__ZN6il2cpp6icalls8mscorlib6System10Reflection8Assembly13get_code_baseEP24Il2CppReflectionAssemblyb
egb:__ZNSt3__26vectorIN4core12basic_stringIcNS1_20StringStorageDefaultIcEEEE13stl_allocatorIS5_L18MemLabelIdentifier13ELi16EEE7reserveEj
Xhd:_DSASignatureDeformatter__ctor_m2889130126
Q3b:__ZNK28MonoBehaviourPropertyBinding15GenerateBindingERKN4core12basic_stringIcNS0_20StringStorageDefaultIcEEEEbRN11UnityEngine9Animation14GenericBindingE
bRi:_RectTransform_INTERNAL_set_pivot_m1160676233
hUg:_List_1_set_Item_m35836043_gshared
W5e:_X509ChainElementCollection__ctor_m3424079155
Hxh:_LinkStack_Push_m3081279930
zUe:_Enumerator_MoveNext_m1107569389_gshared
Rri:__ZN6il2cpp6icalls8mscorlib6System11Environment15internalGetHomeEv
ELi:_Matrix4x4_GetHashCode_m4034747639_AdjustorThunk
J5d:_ResourceCacheItem_t51292791_marshal_pinvoke_cleanup
kX:__ZNK5Unity9Component7GetNameEv
_me:_U3CDelayedSetDirtyU3Ec__Iterator0_Reset_m160466733
PGi:_Native__cctor_m1435623442
ySg:_List_1_System_Collections_IList_Remove_m1070694895_gshared
WEh:_LayoutCache__ctor_m3885940174
rB:__ZN7mecanim8skeleton26SkeletonPoseComputeGlobalQEPKNS0_8SkeletonEPKNS0_13SkeletonPoseTIN4math4trsXEEEPS7_ii
R1f:_UInt64_System_IConvertible_ToByte_m1501504925_AdjustorThunk
aQh:_TextGenerator_Invalidate_m1072346986
cif:_TlsClientHello_ProcessAsTls1_m2549285167
IKg:__Z74RuntimeInvoker_Boolean_t97287965_UIVertex_t4057497605_UIVertex_t4057497605PFvvEPK10MethodInfoPvPS4_
D8g:_ReadOnlyCollection_1_System_Collections_IList_Clear_m3591436538_gshared
Ore:_ScrollRect_set_decelerationRate_m723367336
TA:__ZN9BlobWrite8TransferI22OffsetPtrArrayTransferIiEEEvRT_PKc17TransferMetaFlags
USf:_EncoderExceptionFallback_Equals_m2760188920
VJ:__ZN4FMOD6System7releaseEv
Hrd:_Boolean_CompareTo_m3665076258
GGf:_String_Split_m3580120853
eCe:_PrivateKeyInfo__ctor_m2811023496
U0:__Z18PathToAbsolutePathRKN4core12basic_stringIcNS_20StringStorageDefaultIcEEEE
S$d:_PropertyBuilder_GetCustomAttributes_m2917594003
RFh:_GUILayoutUtility_LayoutFromEditorWindow_m2914699782
hya:__ZL13BlitImageImplR14ImageReferenceiiRKS_NS_10ColorSpaceENS_8BlitModeEb
r9b:__ZN15DirectorManager17AcquireOutputNodeEv
qAa:__ZN6prcoreL17RemapGenericFloatI18TexFormatRGBAFloat17TexFormatRGBFloatEEvPKNS_9InnerInfoE
Xqh:_GameObject_GetComponentInChildren_TisRuntimeObject_m1310240902_gshared
gnj:__ZL69PersistentCall_t3407714124_CustomAttributesCacheGenerator_m_ArgumentsP21CustomAttributesCache
dHa:__ZN16GeometryJobTasks20ScheduleGeometryJobsER9GfxDevicePFvP15GeometryJobDataEPK22GeometryJobInstructionjb
rYa:__ZN16ReflectionProbes28GetMinBakedCubemapResolutionEv
Ati:__GLOBAL__sub_I_String_cpp
LTh:__ZN15dense_hashtableINSt3__24pairIK10KeyWrapperIPK22Il2CppGenericParameterEP11Il2CppClassEES6_N6il2cpp5utils11PointerHashIS4_EEN14dense_hash_mapIS6_S9_SE_NS6_14EqualsComparerINS0_8equal_toIS5_EEEENS0_9allocatorISA_EEE9SelectKeyESJ_SL_E6insertERKSA_
_ke:_InputField_GenerateCaret_m1459647218
gvh:_X509CertificateEnumerator__ctor_m85694331
cua:__ZN14DataBufferGLES16RecreateWithDataEjPKv
O2:__Z29GetGlobalAllowNameConversionsv
ORf:_Array_InternalArray__Insert_TisTableRange_t3332867892_m558285859_gshared
mZb:__ZN8Material8SetColorEN9ShaderLab16FastPropertyNameERK10ColorRGBAf
Ahg:_Enumerator_System_Collections_IEnumerator_Reset_m3754523291_gshared
HPj:_glUniform3uiv__wrapper
TL:__ZN11AudioSource23VirtualRedirectTransferER18StreamedBinaryReadILb0EE
$Oi:_RangeInt_get_end_m4128831787
Zba:__ZN21AssetReferenceStorageC2Ev
_Hj:dynCall_iiifiii
qRg:_List_1_set_Item_m2082115010_gshared
HTf:_Encoding_GetBytes_m3735967069
EDa:__ZN14GfxContextGLES43AddRenderSurfaceToDeferredFBOInvalidateListEPK17RenderSurfaceGLES
mhi:__ZN6il2cpp6icalls8mscorlib6System9Threading6Thread15Thread_internalEP12Il2CppThreadP14Il2CppDelegate
uoa:__ZN11NamedObject23VirtualRedirectTransferER14SafeBinaryRead
lve:_Text_get_resizeTextMinSize_m1002355407
nMc:__ZNSt3__26vectorIN20TextRenderingPrivate8FontImpl13CharacterInfoE13stl_allocatorIS3_L18MemLabelIdentifier1ELi16EEE6insertENS_11__wrap_iterIPKS3_EERS9_
pLa:__ZN23PreloadManagerOperation6IsDoneEv
fti:__ZN6il2cpp5utils11StringUtils11Utf16ToUtf8ERKNSt3__212basic_stringIDsNS2_11char_traitsIDsEENS2_9allocatorIDsEEEE
dcf:_MD4Managed_Decode_m4273685594
Nhb:__ZN21LightProbeProxyVolume18HasHardwareSupportEv
qSb:__ZN26LightProbeProxyVolumeCacheC2ER13BatchRendererR15RenderLoopStats
Vya:__ZN6prcoreL31inner_stretch_argb8888_bilinearEPKNS_9InnerInfoE
Lyb:__Z18Transfer_BlittableI18StreamedBinaryReadILb1EELb1E8BitFieldEvRK29SerializationCommandArgumentsR31RuntimeSerializationCommandInfo
RFc:_UNITY_FT_Outline_Decompose
LHd:_Int64_System_IConvertible_ToChar_m1509243576_AdjustorThunk
suh:_GeneralNames_get_IPAddresses_m4242915644
Uxi:_GC_init_size_map
qTa:__Z20scripting_object_new17ScriptingClassPtr
rCe:_KeyGeneratedEventHandler_Invoke_m2527485594
kpf:_Decimal__ctor_m1925875020_AdjustorThunk
Ndd:_SerializationCallbacks__ctor_m3863304525
P:Math_exp
$Ei:_Vector3_Min_m1803158933
Do:FUNCTION_TABLE_iiifi
lpi:__ZN6il2cpp2os5posix13PosixAutoLockD2Ev
XGh:_SymmetricTransform_OFB_m3690147804
Pyc:_cff_get_advances
wEb:__ZN13MonoBehaviour9SetScriptERK4PPtrI10MonoScriptE18ScriptingObjectPtr
KMa:__ZNK10FileSystem16LastErrorMessageEv
Ykh:_Array_InternalArray__Insert_TisVector3_t3722313464_m3862657277_gshared
RDf:_SecurityException__ctor_m1631242336
LVh:__ZN15dense_hashtableINSt3__24pairIK10KeyWrapperIPK11Il2CppClassEPKcEES6_N6il2cpp5utils11PointerHashIS3_EEN14dense_hash_mapIS6_S9_SE_NS6_14EqualsComparerINS0_8equal_toIS5_EEEENS0_9allocatorISA_EEE9SelectKeyESJ_SL_E14squash_deletedEv
k0c:_EventSystem_Update_m1662072334
SZc:__ZN22UnityWebRequestManager10InitializeEv
NDb:__ZN13MonoBehaviour13AwakeFromLoadE17AwakeFromLoadMode
Ssb:__ZL26Transfer_SimpleNativeClassI17RemapPPtrTransfer8GradientLb1EEvRK29SerializationCommandArgumentsR31RuntimeSerializationCommandInfo
O$c:_RaycasterManager_RemoveRaycasters_m3057093063
Cac:__ZN12CachedWriter9InitWriteER15CacheWriterBase
g9b:__Z21UnsignedInt64ToStringy
Ppe:_GetRaycastNonAllocCallback_BeginInvoke_m3984885848
Jyh:_PatternCompiler_BeginLink_m1295557963
RRa:__ZN14SafeBinaryRead21TransferSTLStyleArrayI13dynamic_arrayI17SortingLayerEntryLj4EEEEvRT_17TransferMetaFlags
iEd:_GuidParser_ThrowFormatException_m3223388534
XBh:_Group_GetAnchorInfo_m3730312864
Kwj:__ZL50Graphic_t1660335611_CustomAttributesCacheGeneratorP21CustomAttributesCache
m_f:_TimeSpan_op_LessThanOrEqual_m300470010
a9e:_Interval_Merge_m3454211016_AdjustorThunk
Uda:__ZZN15DirectorManager15InitializeClassEvEN41FixedUpdateDirectorFixedUpdateRegistrator7ForwardEv
OMd:_MemoryStream_get_Position_m3733941202
I0b:__ZL10KeyHandleriPK23EmscriptenKeyboardEventPv
VQj:_glLinkProgram__wrapper
Ikb:__ZN18ScriptingArguments8AddInt64Ex
Dza:__ZN6prcoreL12RemapGenericI17TexFormatARGB888815TexFormatBGR888EEvPKNS_9InnerInfoE
nlb:__ZN12HandlerChain4LockER13FileEntryData12FileLockMode
Uxf:_TextInfo_get_ListSeparator_m1628160079
Gte:_Selectable_OnCanvasGroupChanged_m472903475
iXf:_EventWaitHandle_Reset_m3348053200
EXc:__ZN28UnityConnectScriptingClasses23CallSessionStateChangedEixxbP21ScriptingExceptionPtr
Gji:__ZN6il2cpp6icalls8mscorlib6System13Globalization11CultureInfo35construct_internal_locale_from_nameEP17Il2CppCultureInfoP12Il2CppString
_ub:__ZL22Transfer_ManagedObjectI24GenerateTypeTreeTransferLb1EEvRK29SerializationCommandArgumentsR31RuntimeSerializationCommandInfo
XMb:__ZN15RenderNodeQueueC2E10MemLabelId
F5d:_ResourceEnumerator_FillCache_m1661715061
s8i:__ZL72SecuritySafeCriticalAttribute_t3505979402_CustomAttributesCacheGeneratorP21CustomAttributesCache
Zj:_emscripten_set_main_loop_timing
PEi:_Bounds_get_min_m3755135869
zDd:_Convert_ToUInt16_m3523269149
yva:__ZN14DataBufferGLES12RecordRenderEv
j1c:_ExecuteEvents_get_endDragHandler_m2879610446
VYb:__ZN14ImageReference10FlipImageYEv
noc:__Z14GetDefaultSkini
kF:__ZN4FMOD3DSP9setBypassEb
A0b:__Z19NormalizeWheelInputf
mbd:_Graphic_DoMeshGeneration_m3548487693
Wzh:_Repetition__ctor_m1672362629
mxc:__Z29Transfer_Blittable_ArrayFieldI8JSONReadhEvRT_R9ArrayInfoRK23StaticTransferFieldInfo
UEf:_SecurityFrame_ToString_m339310712_AdjustorThunk
j0d:_TypeBuilder_create_runtime_class_m2581270900
FHe:_InternalEnumerator_1_get_Current_m3008260692_gshared
rCi:__ZN6il2cpp2os20ThreadLocalValueImpl8SetValueEPv
UTa:__ZN22RenderingCommandBuffer20CleanupCommandBufferEv
erf:_Decimal_op_Implicit_m2299919277
bsc:__Z18Transfer_BlittableI9JSONWriteLb1EtEvRK29SerializationCommandArgumentsR31RuntimeSerializationCommandInfo
KPd:_UnexceptionalStreamReader_ReadToEnd_m920589220
Glf:_DateTime_System_IConvertible_ToType_m1242864300
dHf:_String_IndexOf_m1298810678
rk:___syscall85
aNb:__ZNSt3__26__sortIRPFbP10GUIElementS2_EPS2_EEvT0_S7_T_
W7b:__ZN16GraphicsSettings12CleanupClassEv
fXd:_ConstructorBuilder_GetILGenerator_m1750792206
fTf:_EncoderFallback_get_ReplacementFallback_m818398284
cqi:__ZN6il2cpp2os6Thread19DetachCurrentThreadEv
F0c:_EventTrigger_OnBeginDrag_m4203438710
fUh:__ZN6il2cpp2vmL21SetupInterfacesLockedEP11Il2CppClassRKNS_2os12FastAutoLockE
Anb:__ZN11MonoManager23VirtualRedirectTransferER24GenerateTypeTreeTransfer
rz:__ZN23AnimationPlayableOutput17SetSourcePlayableEP8Playable
VGi:_CullingGroup_Dispose_m782801025
qS:__ZN11UnityEngine15CloudWebService14DataDispatcher15SetupWebRequestEv
bVc:__ZN11UnityEngine15PlatformWrapper13GetShaderCapsEv
CUb:__ZNSt3__211__sift_downIR26RenderDeferredObjectSorterP16RenderObjectDataEEvT0_S5_T_NS_15iterator_traitsIS5_E15difference_typeES5_
SZd:_GenericTypeParameterBuilder_IsDefined_m98179866
oBe:_KeyPairPersistence_get_MachinePath_m3812267291
HAd:_Stack_Peek_m2216191248
tlf:_DateTime_System_IConvertible_ToDecimal_m1044850612_AdjustorThunk
E8b:__ZN21FixedBehaviourManager6UpdateEv
pdc:__ZN9Transform9SetParentEPS_NS_15SetParentOptionE
L4:__ZN19ShaderPropertySheet8SetFloatEN9ShaderLab16FastPropertyNameEfNS_8SetFlagsE
Dgb:__ZN19RuntimeSceneManager24BeginIntegrateMainThreadEP10UnityScene
ari:__ZNSt3__2plIcNS_11char_traitsIcEENS_9allocatorIcEEEENS_12basic_stringIT_T0_T1_EERKS9_S6_
LOd:_StringReader_CheckObjectDisposedException_m3796163530
f1f:_UInt32_System_IConvertible_ToInt16_m1659441601
Jja:__ZN9ShaderLab20SerializedSubProgramaSERKS0_
AHj:_roundf
zsd:_Byte_System_IConvertible_ToSingle_m324484566_AdjustorThunk
Rqf:_Decimal_op_Explicit_m2848387298
leg:_KeyValuePair_2_ToString_m1238786018_gshared
Xs:__ZN8Animator15SetPrepareStageEv
LE:__ZN8AnimatorC2E10MemLabelId18ObjectCreationMode
gUh:__ZN6il2cpp2vmL24SetupTypeHierarchyLockedEP11Il2CppClassRKNS_2os12FastAutoLockE
J0b:__ZL11TextHandleriPK23EmscriptenKeyboardEventPv
KLc:_destroy_face
gNj:_glBlendEquationSeparate__wrapper
pzi:__ZN6il2cpp6icalls8mscorlib6System8Security12Cryptography24RNGCryptoServiceProvider13RngInitializeEP11Il2CppArray
aM:__ZN20SoundChannelInstance7setMuteEb
uTd:_NumberFormatter_NumberToString_m3906556024
Kzb:__Z19TransferField_ArrayI18StreamedBinaryReadILb1EE27Converter_SimpleNativeClassI17AnimationCurveTplIfEEEvRK23StaticTransferFieldInfoR31RuntimeSerializationCommandInfoRT0_
bwa:__ZN18GfxFramebufferGLES22MakeCurrentFramebufferENS_7BuiltinE
l7:__ZN12CachedReader4ReadEPvj
U3c:_StandaloneInputModule_ProcessMouseEvent_m2923582521
Lxe:_SimpleCollator_MatchesForwardCore_m850743967
qRb:__Z24CalculateLightShadowFadeRK6CamerafffR8Vector4f
Caa:__ZN19RuntimeSceneManagerD2Ev
kvf:_CCGregorianCalendar_GetMonth_m1547203696
GT:__ZN11UnityEngine15CloudWebService25WebRequestDownloadHandler17OnCompleteContentEv
Uya:__ZN6prcore17GetIntegerBlitterE13TextureFormatS0_N14ImageReference8BlitModeE
txi:_GC_print_block_descr
t6h:__ZN6il2cpp2gc19AppendOnlyGCHashMapINSt3__24pairIPK11Il2CppImageP11Il2CppClassEEP22Il2CppReflectionModule17ReflectionMapHashIS9_ENS2_8equal_toIS9_EEE11TryGetValueERKS9_PSB_
lfc:__ZN9BlobWrite14ReduceCopyImplERK14ReduceCopyDataj
a9:__ZNSt3__26__treeI19RepeatingLogMessageNS_4lessIS1_EE13stl_allocatorIS1_L18MemLabelIdentifier73ELi16EEE12__find_equalIS1_EERPNS_16__tree_node_baseIPvEESD_RKT_
OP:__ZN11AudioSource18IsPlayingScriptingEv
gBe:_KeyBuilder_IV_m2230195376
YLj:_glShaderSource__wrapper
COa:__ZN25MultiBlocksMemoryFileData17AdjustBlocksCountEj
Ygi:__ZNSt3__214__split_bufferIN6il2cpp2vm22EmbeddedResourceRecordERNS_9allocatorIS3_EEED2Ev
dKc:__ZN13TextRendering4Font8TransferI24GenerateTypeTreeTransferEEvRT_
Ggc:__Z27CullingGroup_CUSTOM_DisposeP12Il2CppObject
Ggi:__ZN6il2cpp6icalls8mscorlib6SystemL23CheckWideningConversionEjjj
cYc:__ZNSt3__26vectorIP19BaseConnectSettings13stl_allocatorIS2_L18MemLabelIdentifier6ELi16EEE21__push_back_slow_pathIKS2_EEvRT_
HMb:__ZN13ComputeShader15SetTextureParamEjRKN9ShaderLab16FastPropertyNameE9TextureID16TextureDimension
zm:_glStencilMask
Cqi:__ZN6il2cpp2os10ThreadImpl16GetCurrentThreadEv
d3d:_MonoMethod_GetBaseDefinition_m2844667474
C0b:__ZN15GUIEventManager10QueueEventERK10InputEvent
o6d:_DecimalConstantAttribute__ctor_m3583301917
Vwi:_GC_push_conditional_with_exclusions
WSe:_Enumerator_System_Collections_IDictionaryEnumerator_get_Entry_m2772123357_AdjustorThunk
Cde:_MethodCallDictionary__ctor_m2167303393
SB:__ZN12_GLOBAL__N_121ProcessAnimationBeginER35AnimationPlayableEvaluationConstantR32AnimationPlayableEvaluationInputR33AnimationPlayableEvaluationOutput
FEj:_strrchr
uGi:_Component_GetComponentInParent_m779177818
u4c:_UIBehaviour_IsDestroyed_m3033055982
cwg:__Z109RuntimeInvoker_Void_t1185182177_RuntimeObject_RuntimeObject_SByte_t1669577662_Int32_t2950945753_RuntimeObjectPFvvEPK10MethodInfoPvPS4_
zje:_InputField_get_readOnly_m3111985574
CYa:__ZN14RenderSettings27UpdateIndirectSpecularColorEv
ueb:__ZN14PlayerSettings8TransferI18StreamedBinaryReadILb0EEEEvRT_
w1h:__ZN6il2cpp6icalls8mscorlib6System8MonoType16GetMethodsByNameEP20Il2CppReflectionTypeP12Il2CppStringibS5_
BXf:_Monitor_Monitor_wait_m3706677354
ckd:_RijndaelTransform__cctor_m2439033240
WIb:__ZNSt3__27__sort3IRNS_4lessIN22BuiltinResourceManager8ResourceEEEPS3_EEjT0_S7_S7_T_
AIc:_ps_hints_t2mask
YKf:_Array_InternalArray__ICollection_Remove_TisMonoResource_t4103430009_m238733686_gshared
ZId:_IntPtr_ToString_m1831665121
Bue:_Slider_Set_m1476104429
_cd:_Image_set_fillClockwise_m2210525152
dbb:__ZN10BlendShape8TransferI19StreamedBinaryWriteILb0EEEEvRT_
QId:__Z21il2cpp_codegen_sizeofP11Il2CppClass
NCa:__Z19GetTimeSinceStartupv
ydd:_Image_AddQuad_m2161647989
ohg:_Enumerator_System_Collections_IEnumerator_Reset_m2953002685_gshared
WHc:_TT_Load_Composite_Glyph
q$a:__ZN9ShaderLab11shaderprops9GetTexEnvEPK19ShaderPropertySheetS3_NS_16FastPropertyNameE16TextureDimensionb
KPb:__ZN29RenderNodeQueuePrepareContextC2Ev
mdi:_il2cpp_gc_disable
Vka:__ZN9ShaderLab20SerializedSubProgram16TextureParameter8TransferI24GenerateTypeTreeTransferEEvRT_
Zhd:_DSASignatureDeformatter_SetKey_m2999549245
Pzi:__ZN6il2cpp2os11MutexHandle4WaitEb
mpa:__ZN9GfxDevice19SaveStereoConstantsEv
Ozi:__ZN6il2cpp2os11MutexHandle4WaitEj
bec:__ZL34GetComponentsImplementationRecurseILb1ELi1ELi1EEbR10GameObjectbRK17CompareParametersRK39GetComponentsImplementation_ReturnValue
kog:__Z114RuntimeInvoker_Boolean_t97287965_RuntimeObject_RuntimeObject_Int32_t2950945753_Int32_t2950945753_Int32_t2950945753PFvvEPK10MethodInfoPvPS4_
xWd:_AssemblyBuilder_GetTypes_m3415680380
NAa:__ZN6prcoreL17RemapGenericFloatI15TexFormatRGHalf18TexFormatARGBFloatEEvPKNS_9InnerInfoE
aHb:__Z18SimulateMouseInputi
YLb:__ZN13RenderManager23AddRemoveCamerasDelayedEv
gtc:__ZN9JSONWrite8TransferI13dynamic_arrayIdLj8EEEEvRT_PKc17TransferMetaFlags
Iqc:__ZN5Unity9rapidjson6WriterI16TempBufferWriterNS0_4UTF8IcEES4_13JSONAllocatorE11WriteUint64Ey
yqd:_BitConverter__cctor_m3841343255
eqf:_Decimal_Compare_m3062820418
h9e:_IntervalCollection_GetMetaCollection_m4029522214
A0c:_EventTrigger_OnDeselect_m1919608102
UPh:_TextGenerator_get_characterCount_m864136654
oZf:_TimeSpan__ctor_m2047388489_AdjustorThunk
GXb:__ZN13RenderTexture8SetWidthEi
YHc:_UNITY_FT_GlyphLoader_CheckSubGlyphs
VRb:__Z25SetupObjectBakedOcclusionbRK15SharedLightDataRK26SharedLightmapSettingsDataRK15LightmapIndicesR17ShaderPassContext
rZg:_Collection_1_System_Collections_ICollection_CopyTo_m1516601228_gshared
T4:__ZN9ShaderLab16FastPropertyName4InitEPKc
j3b:__Z13RegisterClassIN2UI13RectTransformEEvv
o7b:__ZL31MeshRendererTransformChangedJobP13BoundsJobDatajPK23TransformAccessReadOnlyPKyj
Bvc:__ZN8JSONRead21TransferSTLStyleArrayI31ArrayOfManagedObjectsTransfererEEvRT_17TransferMetaFlags
itd:_Char_System_IConvertible_ToByte_m2347554595_AdjustorThunk
rZa:__ZN13RenderTexture9SetMipMapEb
fIf:_String_CreateString_m860434552
oea:__Z18GetDirectorManagerv
UXe:_Enumerator_System_Collections_IEnumerator_Reset_m278261807_AdjustorThunk
Kkc:__Z38Transform_CUSTOM_INTERNAL_get_rotationP12Il2CppObjectP11Quaternionf
i6h:__ZNK15dense_hashtableINSt3__24pairIK10KeyWrapperINS1_IPK10MethodInfoP11Il2CppClassEEEjEES9_17ReflectionMapHashIS8_EN14dense_hash_mapIS9_jSD_NS9_14EqualsComparerINS0_8equal_toIS8_EEEENS0_9allocatorISB_EEE9SelectKeyESI_SK_E5beginEv
dua:__ZN7ApiGLES19UploadBufferSubDataEjN2gl12BufferTargetEllPKv
zga:__ZNSt3__216__rotate_forwardINS_11__wrap_iterIPN4core12basic_stringIcNS2_20StringStorageDefaultIcEEEEEEEET_S9_S9_S9_
hSi:_SendMouseEvents_HitTestLegacyGUI_m579942228
BSd:_MulticastDelegate_Equals_m2502840627
EBf:_SymmetricAlgorithm_set_KeySize_m3805756466
Fsd:_Byte_System_IConvertible_ToUInt32_m1049546902_AdjustorThunk
gxg:__Z53RuntimeInvoker_Double_t594665363_Interval_t1802865632PFvvEPK10MethodInfoPvPS4_
fJb:__Z21InitializeBatchedJobsv
UQh:_CanvasGroup_get_blocksRaycasts_m1805542303
mAf:_SHA1Internal_ProcessBlock_m1991889327
Upb:__Z19TransferField_ArrayI14SafeBinaryRead27Converter_SimpleNativeClassI8GUIStyleEEvRK23StaticTransferFieldInfoR31RuntimeSerializationCommandInfoRT0_
fnh:_Array_Sort_TisRuntimeObject_TisRuntimeObject_m1685639929_gshared
yzi:__ZN6il2cpp5utils10MemoryPoolC2Ev
ZXa:__ZN14RenderSettings5ResetEv
f2b:__ZN6Sprite9BindAtlasERK4PPtrI11SpriteAtlasE
Qpc:__ZN5Unity9rapidjson12GenericValueINS0_4UTF8IcEE13JSONAllocatorE10FindMemberIS4_EENS0_21GenericMemberIteratorILb0ES3_S4_EERKNS1_IS3_T_EE
qLe:_InternalEnumerator_1_System_Collections_IEnumerator_get_Current_m3892960115_AdjustorThunk
Lhi:__ZNSt3__212basic_stringIDsNS_11char_traitsIDsEENS_9allocatorIDsEEE6appendEPKDsj
fvd:_ArrayList_Clone_m2682741233
Did:_HMAC_HashCore_m3684104066
Nch:__ZN28GenericInterfaceFuncInvoker2Ii20UIVertex_t4057497605S0_E6InvokeEPK10MethodInfoP12Il2CppObjectS0_S0_
oqc:__ZN5Unity9rapidjson13GenericReaderINS0_4UTF8IcEES3_13JSONAllocatorE11ParseNumberILj1ENS0_25GenericInsituStringStreamIS3_EENS0_15GenericDocumentIS3_S4_S4_EEEEvRT0_RT1_
mqi:__ZN6il2cpp2os10ThreadImplD2Ev
jrc:__ZN8Gradient8TransferI9JSONWriteEEvRT_
mhb:__ZN21RendererUpdateManager18OncePerFrameUpdateER13RendererScene
fPh:_AudioSource_set_clip_m31653938
ZKa:__ZNK12TLSAllocatorI14StackAllocatorE22GetAllocatedMemorySizeEv
c3:__ZN17RemapPPtrTransfer12PushMetaFlagE17TransferMetaFlags
Nag:_EqualityComparer_1_System_Collections_IEqualityComparer_GetHashCode_m2138064395_gshared
_kb:__ZN12HandlerChain4NameEv
QEd:_Int16_System_IConvertible_ToType_m3672347013_AdjustorThunk
qHf:_String_LastIndexOf_m578673845
Hrb:__Z29Transfer_Blittable_ArrayFieldI14SafeBinaryReadN4math12int3_storageEEvRT_R9ArrayInfoRK23StaticTransferFieldInfo
EEf:_SecurityException_ToString_m3228070608
AGd:_Int16_ToString_m2013897809
GEf:_String_Substring_m2848979100
FSc:__Z44Register_UnityEngine_CanvasRenderer_get_cullv
iUc:__ZN11UnityEngine7Connect17XRDeviceInfoEvent12XRDeviceInfoD2Ev
Wnb:__Z44InitializeTransferFunctionScriptingTraitsForI17RemapPPtrTransferEvR31TransferFunctionScriptingTraits
S3b:__ZNSt3__26vectorI16MessageForwarder13stl_allocatorIS1_L18MemLabelIdentifier7ELi8EEE6resizeEj
r5e:_X509Chain_SelectBestFromCollection_m1068759221
_Gh:_SymmetricTransform_TransformBlock_m851059707
_Xi:__ZL68IntPtr_t_CustomAttributesCacheGenerator_IntPtr_ToPointer_m4157623054P21CustomAttributesCache
oWg:_Enumerator_System_Collections_IEnumerator_Reset_m2261065994_AdjustorThunk
rse:_ScrollRect_get_verticalNormalizedPosition_m3693218937
Cgb:__ZN18LoadSceneOperation21MustCompleteNextFrameEv
Due:_Slider_UpdateDrag_m1102107039
G3d:_MonoMethodInfo_get_method_info_m88651774
bM:__ZNK12AudioManager16GetAudioListenerEv
NGd:_Int32_System_IConvertible_ToDateTime_m1824716955
rfd:_RuntimeTypeHandle__ctor_m3315980708_AdjustorThunk
zQh:_Canvas_set_overrideSorting_m4088794420
lXb:__ZNSt3__26vectorI11CameraStackNS_9allocatorIS1_EEE8__appendEj
wwh:_X509Chain_get_TrustAnchors_m2434696767
su:__ZN7mecanim9animation12GetHumanPoseERKNS0_18ClipMuscleConstantEPKNS0_10ValueDeltaERNS_5human9HumanPoseE
iw:__ZN22AnimationMixerPlayable17ProcessRootMotionEP35AnimationPlayableEvaluationConstantP32AnimationPlayableEvaluationInputP33AnimationPlayableEvaluationOutput
_0:__Z13GetFileSystemv
oba:__ZNK5Unity4Type21FindAllDerivedClassesER13dynamic_arrayIPKS0_Lj4EENS0_17TypeFilterOptionsE
dXi:__ZL54IEnumerable_t1941168011_CustomAttributesCacheGeneratorP21CustomAttributesCache
hca:__ZN13RuntimeStaticI15GUIEventManagerLb0EE16StaticInitializeEPv
z3f:_Version_CompareTo_m3146217210
Phf:_TlsClientCertificate_FindParentCertificate_m3844441401
QQf:_Array_InternalArray__ICollection_CopyTo_TisKeyValuePair_2_t71524366_m1056941380_gshared
I_f:_Type_get_IsClass_m589177581
U_f:_Type_get_IsSystemType_m624798880
onb:__ZN19ShaderPropertySheet9SetMatrixEN9ShaderLab16FastPropertyNameERK10Matrix4x4fNS_8SetFlagsE
A3a:__Z29GetTextureSizeAllowedMultiple13TextureFormat
Ypf:_Decimal_Subtract_m835601464
ggb:__ZNSt3__26vectorIN4core12basic_stringIcNS1_20StringStorageDefaultIcEEEE13stl_allocatorIS5_L18MemLabelIdentifier13ELi16EEE8__appendEj
U8b:__ZN21IntermediateRenderers3AddEP20IntermediateRenderer
xci:_il2cpp_array_element_size
CQd:_MissingMemberException__ctor_m2571045846
HWi:__ZL62ComVisibleAttribute_t1362837655_CustomAttributesCacheGeneratorP21CustomAttributesCache
ZQi:_RectTransform_INTERNAL_set_sizeDelta_m188783163
Wf:_glCheckFramebufferStatus
Vyi:__ZN6il2cpp2os11EventHandle4WaitEv
UU:__ZN19CloudServiceHandler20StartEventDispatcherERKN11UnityEngine15CloudWebService18CloudServiceConfigERNS1_23WebRequestRestHeaderMapE
Mbd:_GraphicRaycaster__ctor_m646559428
axd:_BitArrayEnumerator_get_Current_m4220391712
QUd:__Z37il2cpp_codegen_get_executing_assemblyPK10MethodInfo
BRi:_Transform_get_parent_m835071599
x1e:_IPAddress_get_ScopeId_m4237202723
vr:__ZN4core8hash_mapIN11UnityEngine9Animation14GenericBindingENS2_10BoundIndexENS2_25GenericBindingHashFunctorENS2_30GenericBindingValueArrayUniqueEE4growEi
Ft:__ZN21AnimationClipPlayable7SetTimeEd
_zh:_ExpressionCollection_get_Item_m3510736379
Mqh:_Array_InternalArray__get_Item_TisVector3_t3722313464_m2720091419_gshared
t3c:_StandaloneInputModule_get_inputActionsPerSecond_m3946624274
FWf:_UTF8Encoding_InternalGetCharCount_m82458470
qVi:_Vector2__cctor_m2108982652
ur:__ZN4core8hash_mapIN11UnityEngine9Animation14GenericBindingENS2_10BoundIndexENS2_25GenericBindingHashFunctorENS2_30GenericBindingValueArrayUniqueEE4growEv
Wji:__ZN14dense_hash_mapI10KeyWrapperIP14Il2CppIUnknownEjN6il2cpp5utils11PointerHashIS1_EENS3_14EqualsComparerINSt3__28equal_toIS2_EEEENS9_9allocatorINS9_4pairIKS3_jEEEEE15set_deleted_keyERSF_
Bba:__ZN22BuiltinResourceManager16StaticInitializeEPv
O8h:__ZN13Il2CppHashMapIPK14Il2CppAssemblyPK22Il2CppMonoAssemblyNameN6il2cpp5utils11PointerHashIS1_EENSt3__28equal_toIS2_EENSA_9allocatorINSA_4pairIK10KeyWrapperIS2_ES5_EEEEEC2EjRKS9_RKSC_
rnd:_DelegatePInvokeWrapper_AppDomainInitializer_t682969308
f0:__ZN8Remapper6RemoveEi
GTf:_Encoding_GetBytes_m3148649984
uMc:__ZL36CleanupTextRenderingScriptingClassesv
DXb:__ZN15ReflectionProbe17UseRendererResultEP13ProbeRenderer
$lc:__Z34Mesh_CUSTOM_SetArrayForChannelImplP12Il2CppObject30InternalScriptingShaderChannel34InternalScriptingVertexChannelTypeiP11Il2CppArrayi
Z_:__Z32scripting_class_get_nested_types17ScriptingClassPtrRNSt3__26vectorIS_13stl_allocatorIS_L18MemLabelIdentifier1ELi16EEEE
aRh:_CanvasRenderer_INTERNAL_CALL_EnableRectClipping_m3318097918
X1f:_UInt64_System_IConvertible_ToDecimal_m806594027_AdjustorThunk
RSe:_Enumerator_System_Collections_IEnumerator_get_Current_m361750367_AdjustorThunk
Ofe:_RealProxy_InternalGetTransparentProxy_m1765012608
HMg:_List_1__ctor_m3395838871_gshared
w4g:_Collection_1_IsFixedSize_m3698021882_gshared
Iuh:_PKCS12__ctor_m1854440921
Jmh:_Array_Resize_TisCustomAttributeNamedArgument_t287865710_m885566878_gshared
VD:__ZN11UnityEngine9Animation28GenericAnimationBindingCache25RegisterIAnimationBindingEPKN5Unity4TypeEiP17IAnimationBinding
JSc:__Z70RectTransformUtility_CUSTOM_INTERNAL_CALL_RectangleContainsScreenPointP12Il2CppObjectRK13Vector2fIcallS0_
DKd:_DirectoryInfo__ctor_m481305441
v9:__ZN10MemoryPoolC2E10MemLabelIdbPKciii
dWb:__Z40ProcessCameraIndexListIsNodeVisibleInOutRK22SceneCullingParametersPK9SceneNodePK4AABBR9IndexList
VFh:_GUIScrollGroup_SetHorizontal_m291416666
eVa:__ZN16GraphicsSettings8TransferI17RemapPPtrTransferEEvRT_
hQc:__ZN2UI6Canvas13UpdateBatchesEb
n3e:_X509BasicConstraintsExtension_Decode_m120598446
oz:__ZNK23AnimationPlayableOutput11DerivesFromE17ScriptingClassPtr
nrj:__ZL64EventType_t3528516131_CustomAttributesCacheGenerator_dragUpdatedP21CustomAttributesCache
DVc:__ZN11UnityEngine7Connect13ConfigHandler12GetListenersERKN4core12basic_stringIcNS2_20StringStorageDefaultIcEEEE
Jqa:__ZN9GfxDevice18AllocRenderSurfaceEb
atd:_Char__cctor_m2787437263
_1b:__ZN10TagManager32GetSortingLayerUniqueIDFromValueEi
I4c:_AspectRatioFitter_get_rectTransform_m2996235303
M_:__ZL27CleanupCoreScriptingClassesv
Jbd:_Graphic_UnregisterDirtyMaterialCallback_m2707090617
VRe:_Comparer_1_System_Collections_IComparer_Compare_m1313384821_gshared
Oic:__Z26AnimationCurve_CUSTOM_InitP12Il2CppObjectP11Il2CppArray
BPj:_glUniform1uiv__wrapper
z8h:__ZN6il2cpp2vm10Reflection7IsEventEP12Il2CppObject
zZ:__ZN17PersistentManager26GetStreamNameSpaceInternalEi
ZF:__ZN4FMOD6System11createSoundEPKcjP22FMOD_CREATESOUNDEXINFOPPNS_5SoundE
Xn:FUNCTION_TABLE_iiifiiii
ryc:__ZN13SpeedTreeWind20AdvanceWithoutUpdateEd
slf:_DateTime_System_IConvertible_ToDecimal_m1044850612
_9:__ZN9ShaderLab19CommonPropertyNames13StaticCleanupEPv
z$:__Z31scripting_method_get_returntype18ScriptingMethodPtr
V4a:__ZN15SerializeTraitsI12LightmapDataE8TransferI24GenerateTypeTreeTransferEEvRS0_RT_
$Cf:_SecurityElement_AddAttribute_m311510562
_Lj:_glStencilOpSeparate__wrapper
Ebc:__ZN4Mesh5SetUvEiPKfjj
W5a:__ZN7Texture13SetAnisoLimitENS_20AnisotropicFilteringE
$N:__ZN11AudioModule16SetListenerPauseEb
oqd:_Attribute_IsDefined_m4069052474
Qh:_emscripten_glCompressedTexSubImage2D
tDa:__ZN13GfxDeviceGLES22MemoryBarrierImmediateEyN2gl17MemoryBarrierTypeE
$Aa:__ZN6prcoreL26RemapGenericFloatToIntegerI18TexFormatARGBFloat17TexFormatARGB8888EEvPKNS_9InnerInfoE
bVg:_List_1_set_Capacity_m1977188119_gshared
Xdc:__Z46GetShaderModelNumericValueFromRequirementsMask18ShaderRequirements
dCc:_cff_ps_has_glyph_names
U6f:_Dictionary_2_Resize_m3287623642_gshared
xvi:_GC_write
yjd:_RC2_Create_m2516417038
tbd:_Graphic_OnPopulateMesh_m767318148
C_e:_Dictionary_2_Remove_m4193450060_gshared
wId:_Int64_TryParse_m3606398488
Jlh:_Array_InternalArray__set_Item_TisMark_t3471605523_m1299772331_gshared
Cpc:__Z44Register_UnityEngine_GUIStyle_SetDefaultFontv
Txb:__Z18Transfer_BlittableI18StreamedBinaryReadILb1EELb1EiEvRK29SerializationCommandArgumentsR31RuntimeSerializationCommandInfo
RA:__ZN9BlobWrite8TransferI22OffsetPtrArrayTransferIKN4math7_float3EEEEvRT_PKc17TransferMetaFlags
qog:__Z173RuntimeInvoker_Int32_t2950945753_RuntimeObject_Int32_t2950945753_Int32_t2950945753_Int32_t2950945753_RuntimeObject_Int32_t2950945753_SByte_t1669577662_ContextU26_t3937453398PFvvEPK10MethodInfoPvPS4_
BOg:_List_1__ctor_m2576108087_gshared
n7h:__ZN15dense_hashtableINSt3__24pairIK10KeyWrapperINS1_IPK12PropertyInfoP11Il2CppClassEEEjEES9_17ReflectionMapHashIS8_EN14dense_hash_mapIS9_jSD_NS9_14EqualsComparerINS0_8equal_toIS8_EEEENS0_9allocatorISB_EEE9SelectKeyESI_SK_E12maybe_shrinkEv
dvh:_X509Certificate_get_DSA_m565099499
syb:__Z18Transfer_BlittableI18StreamedBinaryReadILb1EELb1EsEvRK29SerializationCommandArgumentsR31RuntimeSerializationCommandInfo
XUf:_StringBuilder_Remove_m940064945
shd:_DESCryptoServiceProvider_GenerateIV_m683687014
ROe:_InternalEnumerator_1_get_Current_m3792939945_gshared
NTc:__ZN22BaseUnityConnectClient17OnEnterStateReadyEv
tve:_Text_get_fontSize_m1677872538
Nhd:_DSACryptoServiceProvider_get_PublicOnly_m3933928860
RTa:__ZN14GrowableBufferD2Ev
cic:__Z29Input_CUSTOM_GetMouseButtonUpi
fFd:_Int16_Parse_m138525169
W1h:__ZN6il2cpp6icalls8mscorlib6System8MonoType16InternalGetEventEP20Il2CppReflectionTypeP12Il2CppStringi
FDh:_UriScheme_t722425697_marshal_pinvoke_back
XDc:_UNITY_tt_face_load_maxp
ric:__Z46Input_CUSTOM_INTERNAL_set_compositionCursorPosRK13Vector2fIcall
yt:__ZN7mecanim5human12FullBodyMaskEv
sye:_BigInteger_ToString_m3475000413
hcb:__ZN19ShaderPropertySheet11ComputeHashEv
JXh:__ZN30dense_hashtable_const_iteratorI10KeyWrapperIPK19Il2CppGenericMethodES4_N6il2cpp8metadata23Il2CppGenericMethodHashEN14dense_hash_setIS4_S7_NS4_14EqualsComparerINS6_26Il2CppGenericMethodCompareEEENSt3__29allocatorIS4_EEE8IdentityESB_SE_EppEv
pT:__ZN11UnityEngine15CloudWebService20WebRequestRestClient6IsDoneEv
esh:_X509CertificateCollection_get_Item_m1033426577
Ni:_llvm_fabs_f32
US:__ZN11UnityEngine15CloudWebService16SessionContainer16GetJsonDataBlockEjRKN4core12basic_stringIcNS2_20StringStorageDefaultIcEEEERS6_PjSA_
Pze:_ASN1_Decode_m1695284166
Dtf:_Enum_ToString_m3248653065
PZ:__ZN14SafeBinaryReadD2Ev
c3b:__Z13RegisterClassI7TextureEvv
vhg:_Enumerator_MoveNext_m3859993671_gshared
Izb:__ZN8Gradient8TransferI18StreamedBinaryReadILb1EEEEvRT_
_6e:_Capture__ctor_m3103117740
Y7a:__ZN4core8hash_mapINS_12basic_stringIcNS_20StringStorageDefaultIcEEEE13dynamic_arrayI4PPtrI6SpriteELj4EENS_4hashIS4_EENSt3__28equal_toIS4_EEEixERKS4_
ong:__Z113RuntimeInvoker_Void_t1185182177_RuntimeObject_Int64_t3736567304_RuntimeObject_Int64_t3736567304_Int64_t3736567304PFvvEPK10MethodInfoPvPS4_
bUh:__ZN6il2cpp2vmL17SetupEventsLockedEP11Il2CppClassRKNS_2os12FastAutoLockE
sji:__ZN6il2cpp6icalls8mscorlib6System4Type15MakeGenericTypeEP20Il2CppReflectionTypeP11Il2CppArray
nj:_SDL_PauseAudio
Qyd:_Hashtable_Clone_m3078962909
Uci:_il2cpp_class_from_type
c3h:__ZN6il2cpp2os4File11GetStdErrorEv
p$h:_NativeHeaderAttribute__ctor_m457462113
Z9:__ZN9ShaderLab19CommonPropertyNames16StaticInitializeEPv
AIb:__ZN17ShaderPassContext8CopyFromERKS_
WC:__ZN7mecanim9animation18CreateAvatarOutputEPKNS0_14AvatarConstantEbbRNS_6memory9AllocatorE
tod:_Array_GetLongLength_m561139708
jue:_Slider_set_maxValue_m2251404465
VL:__ZN11AudioSource23VirtualRedirectTransferER24GenerateTypeTreeTransfer
obc:__ZN7Texture11SetWrapModeE15TextureWrapMode
t8a:__ZN14Texture2DArray23VirtualRedirectTransferER14SafeBinaryRead
FQd:_MissingMemberException__ctor_m1220732369
lRb:__ZNK6Camera21CalculateCanDoShadowsEv
MDi:_Application_InvokeOnBeforeRender_m2875673833
Xpi:__ZN6il2cpp2os6Thread12SetStackSizeEj
Goe:_MaskableGraphic_RecalculateMasking_m183336762
dqh:_Array_InternalArray__get_Item_TisRuntimeObject_m3347010206_gshared
z0d:_TypeBuilder_IsSubclassOf_m3458909121
jbc:__ZNK8Renderer16IsVisibleInSceneEv
nZ:__Z13VFormatBufferPciPKcz
OAb:__Z18Transfer_BlittableI18StreamedBinaryReadILb0EELb1EhEvRK29SerializationCommandArgumentsR31RuntimeSerializationCommandInfo
_kd:_X509Certificate__cctor_m198658613
$Ni:_PlayableHandle_Equals_m1666612586_AdjustorThunk
dBa:__ZN6prcoreL27StretchGenericFloatBilinearI15TexFormatRFloatEEvPKNS_9InnerInfoE
Jej:__ZL139ServicePointManager_t170559685_CustomAttributesCacheGenerator_ServicePointManager_t170559685____CheckCertificateRevocationList_PropertyInfoP21CustomAttributesCache
Ptf:_Enum_ToObject_m1628250250
lw:__Z24ProcessAnimationMixBeginP35AnimationPlayableEvaluationConstantP32AnimationPlayableEvaluationInputP33AnimationPlayableEvaluationOutput
kTg:_List_1_set_Item_m2057272351_gshared
gya:__Z14PadImageBorderR14ImageReferenceii
P5h:__ZN15dense_hashtableINSt3__24pairIK10KeyWrapperINS1_IPK10MethodInfoP11Il2CppClassEEEjEES9_17ReflectionMapHashIS8_EN14dense_hash_mapIS9_jSD_NS9_14EqualsComparerINS0_8equal_toIS8_EEEENS0_9allocatorISB_EEE9SelectKeyESI_SK_E4findERSA_
U_h:__ZN6il2cpp2vm13MetadataCache28GetFieldDefaultValueForFieldEPK9FieldInfo
jOf:_Array_IndexOf_TisUIVertex_t4057497605_m3336763564_gshared
Pw:__ZN27AnimationLayerMixerPlayableD2Ev
V6c:_ColorBlock_Equals_m518833916_AdjustorThunk
dnj:__ZL66PersistentCall_t3407714124_CustomAttributesCacheGenerator_m_TargetP21CustomAttributesCache
eI:__ZN12AudioManager39HandlePendingAudioConfigurationCallbackEv
kk:_emscripten_glIsFramebuffer
wCe:_RSAManaged_EncryptValue_m799827583
U1:__ZN12_GLOBAL__N_16qAtan2Eff
ok:_JS_Sound_SetLoopPoints
Nca:__ZN15dense_hashtableINSt3__24pairIKyP17VertexDeclarationEEy14GfxGenericHashIyEN14GfxDoubleCacheIyS4_S7_NS0_8equal_toIyEEN31GfxDoubleCacheConcurrencyPolicy11LocklessGetE42GfxDoubleCacheDefaultEmptyDeletedGeneratorIyEE9SelectKeyESA_13stl_allocatorIS5_L18MemLabelIdentifier24ELi16EEE14squash_deletedEv
jN:__ZN12AudioManager17ShouldSourcePauseEb
Zzi:__ZN6il2cpp2vm26MetadataAllocGenericMethodEv
hLf:_Array_InternalArray__ICollection_Remove_TisUInt16_t2177724958_m1766181761_gshared
eHa:__ZN19ConstantBuffersGLES12RecordRenderEv
$sc:__ZN9JSONWrite8TransferI10RectOffsetEEvRT_PKc17TransferMetaFlags
Nxa:__ZN4crnd12symbol_codec11decode_bitsEj
Zzc:_cf2_doFlex
rHh:_AesManaged_GenerateIV_m1368817386
TRa:__ZN13dynamic_arrayI17SortingLayerEntryLj4EE6insertEPS0_jRKS0_
iI:__ZN4FMOD6System12createReverbEPPNS_6ReverbE
Gw:__ZN7mecanim19ValueArrayBlendNodeILb1EEEvRKNS_10ValueArrayERKNS_14ValueArrayMaskERS1_RS4_RNS_16ValueArrayWeightEf
Jib:__Z16MarkDependenciesR27GarbageCollectorThreadStatej
Jkh:_ObjectPool_1_get_countInactive_m526975942_gshared
Ffe:_RemotingServices_DisposeIdentity_m2605848806
e2:__ZNK9Transform11GetPositionEv
LEi:_Bounds_set_size_m4127623202
gEd:_GuidParser_Reset_m2640004655
iWa:__ZN23SharedMeshRenderingData18UnloadVertexStreamEi
T8b:__ZN31CanvasBatchIntermediateRenderer11AddSubBatchERK16DrawBuffersRangePK19ShaderPropertySheet
B7b:__ZN19RenderEventsContextC2Ei
eR:__Z6simd4fRKf
Sk:_emscripten_glEnable
mJe:_InternalEnumerator_1_System_Collections_IEnumerator_get_Current_m2982675020_gshared
MRa:__ZN10TagManager23VirtualRedirectTransferER14SafeBinaryRead
gyj:__ZL51RawImage_t3182918964_CustomAttributesCacheGeneratorP21CustomAttributesCache
WTb:__Z15InitLightMeshesv
q2d:_MonoCMethod_ToString_m3992577062
An:FUNCTION_TABLE_iifiii
R5a:__ZN15QualitySettings8TransferI19StreamedBinaryWriteILb0EEEEvRT_
Pne:_LayoutUtility_U3CGetFlexibleHeightU3Em__7_m2991026842
Bzc:_cf2_arrstack_init
mqh:_Array_InternalArray__get_Item_TisResourceCacheItem_t51292791_m1306056717_gshared
aBg:__Z157RuntimeInvoker_Void_t1185182177_RuntimeObject_RuntimeObject_RuntimeObject_RuntimeObject_RuntimeObject_RuntimeObject_RuntimeObject_RuntimeObject_RuntimeObjectPFvvEPK10MethodInfoPvPS4_
dX:__Z15CleanLogHandler7LogTypePKcz
hTd:_NumberFormatter_NumberToString_m2481532188
Cla:__ZN9ShaderLab19SerializedSubShader8TransferI19StreamedBinaryWriteILb0EEEEvRT_
use:_ScrollRect_InternalGetBounds_m599803667
hEb:__ZN6Camera17RemoveImageFilterERK11ImageFilter
hna:__ZNSt3__218__insertion_sort_3IR25ValueParameterArraySorterPN20GpuProgramParameters14ValueParameterEEEvT0_S6_T_
xej:__ZL67EditorBrowsableAttribute_t1475454531_CustomAttributesCacheGeneratorP21CustomAttributesCache
Vxd:_Comparer__cctor_m3311686689
QIe:_InternalEnumerator_1_get_Current_m3500427238_AdjustorThunk
QQc:__ZN2UI26InitializeDeviceForOverlayEi
_8:__Z27LogRepeatingStringWithFlagsRKN4core12basic_stringIcNS_20StringStorageDefaultIcEEEE15LogMessageFlagsi
g2f:_UInt64_System_IConvertible_ToSingle_m925613075
Qtf:_Enum_IsDefined_m1442314461
TXf:_Thread__cctor_m817723615
lOh:_AudioExtensionManager_RegisterBuiltinDefinitions_m2742744104
Zt:__ZN17AnimationPlayable28ComputeNeedsBindingRebuildedEv
et:__ZN17AnimationPlayable23RequestAllocateBindingsEv
sJi:_RenderPipelineManager_set_currentPipeline_m3492857006
NSf:_DecoderReplacementFallbackBuffer_Fallback_m1261056214
sVd:_Binder_get_DefaultBinder_m950908649
VKd:_StreamReader__ctor_m1616861391
CPh:_TextGenerationSettings_CompareColors_m3051734236_AdjustorThunk
wWc:__ZN18UnityConnectClient33OnPlayerSessionStateChangedStaticEPS_jyy
vzf:_RSA_ToXmlString_m2922661427
$T:__ZNK11UnityEngine15CloudWebService23WebRequestUploadHandler11GetProgressEv
Nua:__ZN7ApiGLES4LoadE16GfxDeviceLevelGL
g5a:__ZN18StreamedBinaryReadILb0EE21TransferSTLStyleArrayI13dynamic_arrayI31EnlightenSystemAtlasInformationLj8EEEEvRT_17TransferMetaFlags
Kmi:__ZN15dense_hashtableI10KeyWrapperIP18Il2CppGenericClassES3_N6il2cpp8metadata22Il2CppGenericClassHashEN14dense_hash_setIS3_S6_NS3_14EqualsComparerINS5_25Il2CppGenericClassCompareEEENSt3__29allocatorIS3_EEE8IdentityESA_SD_E15insert_noresizeERKS3_
I6b:__ZZL31RegisterOtherRendererPropertiesR22GenericPropertyBindingEN30Wrapper_RendererReceiveShadows13GetFloatValueEPv
FJf:_Array_InternalArray__ICollection_Contains_TisSlot_t384495010_m688761886_gshared
z3a:__ZN17SharedTextureDataC2E10MemLabelIdii13TextureFormatjiibb
SCg:__Z114RuntimeInvoker_RuntimeObject_RuntimeObject_Int32_t2950945753_Int32_t2950945753_Int32_t2950945753_Int32_t2950945753PFvvEPK10MethodInfoPvPS4_
oHb:__ZN8Material11SetPassFastEPN9ShaderLab4PassER17ShaderPassContextP6Shaderib
uWc:__ZN11UnityEngine7Connect20BasePersistentValues10SaveValuesER9JSONWrite
D1g:_Collection_1_IsFixedSize_m3748602684_gshared
ulf:_DateTime_System_IConvertible_ToDouble_m2116720007
JHi:_Display_GetSystemExtImpl_m2808197389
fZf:_WaitHandle_WaitOne_m2577152516
Kkd:_X509Certificate_PEM_m1177570576
vEe:_ArrayReadOnlyList_1_GetEnumerator_m1835926958_gshared
rcc:__Z14ScaleCurveTimeR17AnimationCurveTplIfEf
nca:__ZN22VirtualJoystickManagerC2Ev
Pba:__ZN20GlobalCachingManager7DisposeEv
jOb:__Z12SetupLODFadeR9GfxDeviceR17ShaderPassContextf
r1a:__ZNK14PlayableOutput7GetTypeEv
JTb:__ZL24CollectForwardObjectsJobP27CollectForwardObjectsHeader
EVb:__Z13IsNodeVisibleRK9SceneNodeRK4AABBRK22SceneCullingParameters
NOf:_Array_InternalArray__IndexOf_TisLabelFixup_t858502054_m1491765395_gshared
fxe:_SortKeyBuffer_AppendCJKExtension_m2591091991
LSc:__Z57RectTransformUtility_CUSTOM_INTERNAL_CALL_PixelAdjustRectP12Il2CppObjectS0_R5RectTIfE
zWf:_UTF8Encoding_GetByteCount_m4153686982
EWb:__Z24ScheduleCullingAllGroupsR8JobFenceRK22SceneCullingParametersiRK13CullingOutputRK13dynamic_arrayIP12CullingGroupLj4EERKS_
xRj:_emscripten_glStencilMask__wrapper
dmg:__Z49RuntimeInvoker_Void_t1185182177_Double_t594665363PFvvEPK10MethodInfoPvPS4_
zXh:__ZN15dense_hashtableI10KeyWrapperIPK19Il2CppGenericMethodES4_N6il2cpp8metadata23Il2CppGenericMethodHashEN14dense_hash_setIS4_S7_NS4_14EqualsComparerINS6_26Il2CppGenericMethodCompareEEENSt3__29allocatorIS4_EEE8IdentityESB_SE_EC2ERKSH_j
LTa:__ZN15RenderNodeQueue7CleanupEv
$3d:_MonoProperty_CreateGetterDelegate_m2478402519
Cxc:__ZN16NovodexAllocator8allocateEjPKcS1_i
j0a:__ZN39DeprecatedFastPropertyNameSerialization8TransferI14SafeBinaryReadEEvRT_
Wuh:_DeriveBytes_DeriveIV_m973925711
YGd:_Int32_System_IConvertible_ToSByte_m3133688512
GTb:__ZN9ShaderLab10GrabPassesD2Ev
Dse:_ScrollRect_CalculateOffset_m927043599
E8a:__ZN14Texture2DArray13UploadTextureEv
qoe:_MaskableGraphic_UpdateCull_m2805101913
EEc:_tt_cmap14_done
Egb:__ZN18AwakeFromLoadQueue25RegisterObjectInstanceIDsEv
vHi:_Debug__cctor_m1523394265
Uw:__ZNK27AnimationLayerMixerPlayable11DerivesFromE17ScriptingClassPtr
QKc:__ZN20TextRenderingPrivate19NativeTextGenerator15InsertCharacterEiPj
GRd:_MonoType_get_attributes_m1332507727
iFh:_GUIContent_ClearStaticCache_m1205116045
gEf:_WindowsIdentity_Dispose_m3466258450
Mge:_BinaryCommon__cctor_m2978407547
gtd:_Char_System_IConvertible_ToByte_m2347554595
xMc:__ZN20TextRenderingPrivate15DynamicFontData21GetFontMetricsForFaceERK13dynamic_arrayIN4core17string_with_labelILi35EEELj4EEiRKS1_I4PPtrIN13TextRendering4FontEELj4EEPfSF_
rjh:_IndexedSet_1__ctor_m2250384602_gshared
K0f:_UInt16_TryParse_m4139137016
tTf:_Encoding__ctor_m2997749867
PKi:_ManagedStreamHelpers_ManagedStreamSeek_m3158782053
RBh:_ExpressionAssertion_Compile_m2166597834
ADb:__ZN16ScriptingManagerD0Ev
tFf:_Single_System_IConvertible_ToSByte_m1208276900_AdjustorThunk
sui:__ZN6il2cpp6icalls8mscorlib6System7Convert24InternalFromBase64StringEP12Il2CppStringb
oli:__ZN30dense_hashtable_const_iteratorINSt3__24pairIK10KeyWrapperINS1_IPKcS4_EEEiEES6_24NamespaceAndNamePairHashN14dense_hash_mapIS6_iS9_NS6_14EqualsComparerI26NamespaceAndNamePairEqualsEENS0_9allocatorIS8_EEE9SelectKeyESD_SF_EppEv
Dgc:__Z44Register_UnityEngine_Component_get_transformv
VB:__ZN12_GLOBAL__N_120ProcessPlayableGraphERN8Animator11AnimatorJobER35AnimationPlayableEvaluationConstantR32AnimationPlayableEvaluationInputR33AnimationPlayableEvaluationOutputPFvS4_R17AnimationPlayableEPFvS4_S6_S8_EPFvS8_S4_S6_S8_fESE_MS9_FvPS3_PS5_PS7_E
vRh:_CanvasRenderer_get_absoluteDepth_m2703237819
Yxf:_TextInfo_ToLower_m2744057472
kKb:__ZN17ArchiveFileSystem12MountArchiveEPKcS1_
hcg:_EqualityComparer_1_System_Collections_IEqualityComparer_Equals_m3977314386_gshared
esc:__Z18Transfer_BlittableI9JSONWriteLb1E8Vector4fEvRK29SerializationCommandArgumentsR31RuntimeSerializationCommandInfo
wn:FUNCTION_TABLE_viififiii
dvf:_CCGregorianCalendar_year_from_fixed_m463929682
VOc:__ZN2UI13CanvasManagerD0Ev
JX:__ZThn32_NK8Renderer14GetSubsetIndexEi
iHi:_Debug_get_unityLogger_m2239795986
Ubf:_MD2Managed_Initialize_m2341076836
kah:_ReadOnlyCollection_1_System_Collections_IList_Add_m4240023232_gshared
Cra:__ZN9GfxDevice15ImmediateVertexEfff
N2b:__Z13RegisterClassI8MaterialEvv
r4a:__ZNK16LightmapSettings22GetTypeVirtualInternalEv
Uoa:__ZN13GfxDeviceGLES15SetStencilStateEPK18DeviceStencilStatei
Wrd:_Buffer_BlockCopyInternal_m418318694
IDj:_cycle
iui:__ZN6il2cpp2vm8Profiler7GCEventE13Il2CppGCEvent
Qng:__Z76RuntimeInvoker_Void_t1185182177_RuntimeObject_RuntimeFieldHandle_t1871169219PFvvEPK10MethodInfoPvPS4_
Dd:_emscripten_glUniform1iv
umb:__ZN16MemoryFileSystemD2Ev
fog:__Z150RuntimeInvoker_Int32_t2950945753_RuntimeObject_Int32_t2950945753_Int32_t2950945753_RuntimeObject_Int32_t2950945753_Int32_t2950945753_Int32_t2950945753PFvvEPK10MethodInfoPvPS4_
Bqd:_BitConverter_DoubleToInt64Bits_m3574395137
Ymf:_DateTime_Parse_m3729096069
GOg:_List_1_System_Collections_IList_Add_m1540114404_gshared
lgc:__Z37Register_UnityEngine_Camera_get_depthv
MOd:_StringReader_Read_m3322058819
P8d:_CrossAppDomainChannel_get_ChannelPriority_m3418073750
mle:_Selectable_StartColorTween_m3618813981
r$c:_BaseInputModule_HandlePointerExitAndEnter_m1705532066
$$b:__Z23ConvertIntegerToTypePtrItEbPvR14SafeBinaryRead
Crf:_Delegate_CombineImpl_m3572135514
IFd:_NumberFormatter_IntegerToString_m1679294587
C7g:_ReadOnlyCollection_1_System_Collections_IList_RemoveAt_m422909114_gshared
AC:__ZN7mecanim5human29HumanGetGoalOrientationOffsetENS0_4GoalE
Ud:_emscripten_glStencilFunc
d3c:__Z46il2cpp_codegen_get_marshal_directive_exceptionPKc
Rie:_InputField_get_isFocused_m709836844
$d:_glGetActiveUniformBlockName
Kf:_emscripten_glUniform1fv
Jic:__Z39Quaternion_CUSTOM_INTERNAL_CALL_InverseRK11QuaternionfRS_
dJ:__ZN4FMOD7Channel20set3DConeOrientationEP11FMOD_VECTOR
nn:FUNCTION_TABLE_iiifii
wWd:_AssemblyBuilder_not_supported_m1735277432
Qoi:__ZN6il2cpp2vm12GenericClass11SetupEventsEP11Il2CppClass
CHc:_tt_delta_interpolate
aFc:_tt_cmap12_get_info
yki:__ZN6il2cpp2vm15ReboxIReferenceEP14Il2CppIUnknownP11Il2CppClass
QSh:__ZN6il2cpp6icalls8mscorlib6System7Decimal14decimalCompareEP19il2cpp_decimal_reprS5_
B_e:_Dictionary_2_OnDeserialization_m4209543208_gshared
Pui:__ZThn4_N6il2cpp2vm13CachedCCWBaseINS0_13ManagedObjectEE7ReleaseEv
GJi:_GameObject_AddComponent_m136524825
s5i:__ZL62SoapMethodAttribute_t1935009310_CustomAttributesCacheGeneratorP21CustomAttributesCache
vxg:__Z100RuntimeInvoker_Void_t1185182177_RuntimeObject_Int32_t2950945753_Int32_t2950945753_UInt16_t2177724958PFvvEPK10MethodInfoPvPS4_
BOj:_glCopyTexImage2D__wrapper
Isf:_Double_System_IConvertible_ToUInt32_m271206838
P7:__GLOBAL__sub_I_runtime_graphics_billboard_0_cpp
zHb:__Z18ClearByDrawingQuad13GfxClearFlagsRK10ColorRGBAffjR17ShaderPassContext
CAa:__ZN6prcoreL17RemapGenericFloatI14TexFormatRHalf15TexFormatRFloatEEvPKNS_9InnerInfoE
IAc:_cf2_getBlueValues
_Nb:__Z16ShouldUseShadowsb
kea:__ZN15DirectorManager21RebuildStageCallbacksEv
MHb:__ZN19RuntimeSceneManager9LoadSceneERKN4core12basic_stringIcNS0_20StringStorageDefaultIcEEEES6_S6_RK9UnityGUIDiNS_11LoadingModeE
Uta:__ZN7ApiGLES10DrawArraysE16GfxPrimitiveTypejjj
AG:__ZN10SampleClip13LoadBaseSoundEv
amd:_SmallXmlParser_SkipWhitespaces_m4243606597
Tvf:_CompareInfo_IndexOf_m2631915198
cXd:_ConstructorBuilder_GetCustomAttributes_m2495332786
Jsd:_Byte_CompareTo_m4285128861
K0c:_TriggerEvent__ctor_m87299207
lQ:__Z57AudioSource_CUSTOM_INTERNAL_CALL_ClearExtensionPropertiesP12Il2CppObjectRK12PropertyName
coi:__ZN15dense_hashtableINSt3__24pairIK10KeyWrapperIP12Il2CppObjectEN6il2cpp2gc9CachedCCWEEES5_NS7_5utils11PointerHashIS3_EEN14dense_hash_mapIS5_S9_SD_NS5_14EqualsComparerINS0_8equal_toIS4_EEEENS0_9allocatorISA_EEE9SelectKeyESI_SK_E15insert_noresizeERKSA_
Xca:__ZL50StaticRegisterSceneLoadedCallback_LightmapSettingsPv
n1a:__ZN22DeviceMVPMatricesStateC2ER9GfxDevice
Zm:FUNCTION_TABLE_iifii
jxd:_Comparer_Compare_m3984347512
y4a:__ZN21EnlightenSceneMapping8TransferI14SafeBinaryReadEEvRT_
Oai:__ZN6il2cpp2vm10Reflection12HasAttributeEP9FieldInfoP11Il2CppClass
Mm:FUNCTION_TABLE_iiffi
hc:invoke_viiifi
_3d:_MonoProperty_GetCustomAttributes_m3619796755
Hde:_MethodDictionary_System_Collections_IEnumerable_GetEnumerator_m4169036899
bMa:__ZNK11AssetBundle14GetPreloadDataEiR13dynamic_arrayIiLj4EE
Xyf:_RIPEMD160Managed_JJJ_m4161373884
u7f:_DefaultComparer_Equals_m3257444875_gshared
jf:_JS_Sound_SetPosition
hZa:__ZN19RenderBufferManager13GetTempBufferEii17DepthBufferFormat19RenderTextureFormatj22RenderTextureReadWrite14VRTextureUsagei23RenderTextureMemoryless
u_h:__ZL13GetSharedInstPK17Il2CppGenericInst
nkb:__ZNK2UI13RectTransform23CalculateLocalPosition2Ev
VTc:__ZN22BaseUnityConnectClient17SaveSessionValuesEv
TGe:_InternalEnumerator_1_get_Current_m476140818_gshared
MTb:__Z24SetupActiveLightsContextR21ActiveLightingContextRK12ActiveLightsRK11CullResultsP14ShadowMapCacheRK10MinMaxAABB
Sjc:__Z38Sprite_CUSTOM_INTERNAL_get_textureRectP12Il2CppObjectP5RectTIfE
A9h:__ZNK15dense_hashtableINSt3__24pairIK10KeyWrapperIPK22Il2CppGenericParameterEPK24MonoGenericParameterInfoEES6_N6il2cpp5utils11PointerHashIS4_EEN14dense_hash_mapIS6_SA_SF_NS6_14EqualsComparerINS0_8equal_toIS5_EEEENS0_9allocatorISB_EEE9SelectKeyESK_SM_E3endEv
Udc:__ZN9TextAsset7SetTextERKN4core12basic_stringIcNS0_20StringStorageDefaultIcEEEE
JSa:__ZN6Camera8TransferI24GenerateTypeTreeTransferEEvRT_
Ha:invoke_iiiiiiif
Ea:invoke_iiiiiiii
blh:_Array_InternalArray__set_Item_TisByte_t1134296376_m3104140039_gshared
usg:__Z194RuntimeInvoker_Int32_t2950945753_RuntimeObject_Int32_t2950945753_Int32_t2950945753_RuntimeObject_Int32_t2950945753_SByte_t1669577662_Int32U26_t1369213839_BooleanU26_t4125257963_SByte_t1669577662PFvvEPK10MethodInfoPvPS4_
yvh:_PKCS12_GetBytes_m415958948
cXb:__ZN8Renderer17PendingAddToSceneEv
vSj:b122
ySj:b125
xSj:b124
FSj:b127
ASj:b126
KSj:b129
jjc:__Z52Register_UnityEngine_RectTransform_INTERNAL_get_rectv
cMi:_Mesh_SetSizedArrayForChannel_m2565120436
y_:__Z21PostprocessStacktracePKcRN4core12basic_stringIcNS1_20StringStorageDefaultIcEEEE
QKi:_ManagedStreamHelpers_ManagedStreamLength_m2930872960
Aeb:__ZN18StreamedBinaryReadILb0EE21TransferSTLStyleArrayI13dynamic_arrayI16SplashScreenLogoLj4EEEEvRT_17TransferMetaFlags
iuh:_BasicConstraintsExtension_Encode_m2009213240
wgc:__Z47Register_UnityEngine_Camera_get_allCamerasCountv
e6c:___clang_call_terminate
YTc:__ZN22BaseUnityConnectClient20StartEventDispatcherEv
Jbc:__ZNSt3__26vectorIj13stl_allocatorIjL18MemLabelIdentifier1ELi16EEE6assignIPKtEENS_9enable_ifIXaasr21__is_forward_iteratorIT_EE5valuesr16is_constructibleIjNS_15iterator_traitsIS9_E9referenceEEE5valueEvE4typeES9_S9_
lB:__ZN7mecanim9animation16EvaluateAvatarIKEPKNS0_14AvatarConstantEPKNS0_11AvatarInputEPNS0_12AvatarOutputEPNS0_12AvatarMemoryEPNS0_15AvatarWorkspaceEb
iCa:__ZL25ProgramUniformMatrix4x3fvPK7ApiGLESjiihPKv
wLb:__ZN12InputManager13InputEndFrameEv
rMi:_Object_get_name_m4211327027
Vfi:__ZN6il2cpp2vm6Thread5SetupEP12Il2CppThread
tUe:_Enumerator_System_Collections_IDictionaryEnumerator_get_Key_m2500634048_gshared
NEj:___munmap
ag:_localtime_r
FMb:__ZN22RenderingCommandBuffer13GetAndCheckRTE24BuiltinRenderTextureTypeRKN9ShaderLab16FastPropertyNameEPKcPP13RenderTexture
Mca:__ZN14GfxDoubleCacheIyP17VertexDeclaration14GfxGenericHashIyENSt3__28equal_toIyEEN31GfxDoubleCacheConcurrencyPolicy11LocklessGetE42GfxDoubleCacheDefaultEmptyDeletedGeneratorIyEEC2Ev
UW:__Z19free_alloc_internalPv10MemLabelId
$Vf:_UTF32Decoder_GetChars_m1925558948
dg:_strftime
$Ea:__ZN7Texture33SetStoredColorSpaceNoDirtyNoApplyE17TextureColorSpace
Y5d:_ResourceSet__ctor_m3618395942
Epf:_Decimal_System_IConvertible_ToDouble_m3125524987_AdjustorThunk
y1:__ZN12FileAccessorD2Ev
vWa:__ZN14VertexDataInfoC2Ev
uri:__ZN6il2cpp2gc16GarbageCollector14CollectALittleEv
s9b:__ZNK9HPlayable15GetPlayableTypeEv
fzb:__ZL17Transfer_GUIStyleI18StreamedBinaryReadILb1EELb1EEvRK29SerializationCommandArgumentsR31RuntimeSerializationCommandInfo
Dpe:_RectMask2D_IsRaycastLocationValid_m1652308696
M1h:__ZN6il2cpp6icalls8mscorlib6SystemL9IsPrivateEPK12PropertyInfo
Hvh:_X501_ToString_m1148552872
cRi:_RectTransform_add_reapplyDrivenProperties_m1374850920
X9:__ZN9shadertag10InitializeEv
lOb:__ZN13BatchRenderer20RenderSingleWithPassER17ShaderPassContextPK18SharedMaterialDataP6ShaderPN9ShaderLab4PassEiPKNS7_10GrabPassesEjib15BatchBreakCause
O5a:__ZN15QualitySettings14QualitySetting8TransferI24GenerateTypeTreeTransferEEvRT_
Blc:__Z44Register_UnityEngine_Object_DestroyImmediatev
mDd:_Convert_ToSingle_m835189399
Kac:__ZN22BlockMemoryCacheWriter14LockCacheBlockEjPPhS1_
Qvc:__Z22TransferField_NonArrayI8JSONRead27Converter_SimpleNativeClassI8GUIStyleEEvRK23StaticTransferFieldInfoR31RuntimeSerializationCommandInfoRT0_
Kg:_llvm_eh_typeid_for
E2b:__Z13RegisterClassI10GameObjectEvv
pde:_RemotingServices_FindInterfaceMethod_m2125212568
nz:__ZNK23AnimationPlayableOutput7GetTypeEv
tOd:_StreamWriter__cctor_m1229272693
ztf:_Enum_System_IConvertible_ToSByte_m779472798
J_f:_Type_get_IsInterface_m3284996719
tBb:__Z18Transfer_BlittableI18StreamedBinaryReadILb0EELb1E8Vector4fEvRK29SerializationCommandArgumentsR31RuntimeSerializationCommandInfo
f7f:_Dictionary_2_U3CCopyToU3Em__0_m2023886030_gshared
ZQj:_glBindVertexArray__wrapper
ted:_SerializationInfo__ctor_m2923079689
Q$a:__ZN8Material8TransferI14SafeBinaryReadEEvRT_
$1a:__ZN12CubemapArray17UploadToGfxDeviceEv
lFd:_Int32_JumpOverWhite_m208298144
CQi:_RectOffset_get_bottom_m890891527
FGg:__Z53RuntimeInvoker_Int32_t2950945753_UIVertex_t4057497605PFvvEPK10MethodInfoPvPS4_
_Pj:_emscripten_glGetUniformiv__wrapper
Iui:__ZN6il2cpp2vm13ManagedObject14QueryInterfaceERK10Il2CppGuidPPv
YG:__ZN11AudioSource4StopEb
$qb:__ZN14SafeBinaryRead21TransferSTLStyleArrayI13dynamic_arrayI10Matrix4x4fLj4EEEEvRT_17TransferMetaFlags
vTa:__ZN15LODGroupManager26CollectAllLODGroupManagersERK16CoreCameraValuesR13dynamic_arrayIPS_Lj4EEb
BHa:__ZN18GlslGpuProgramGLESD2Ev
rZb:__ZN13RenderTexture14SetVolumeDepthEi
wS:__ZN11UnityEngine15CloudWebService14DataErrorEvent12ToJsonStringERN4core12basic_stringIcNS2_20StringStorageDefaultIcEEEEjPKc
Nwg:__Z86RuntimeInvoker_Void_t1185182177_UInt16_t2177724958_SByte_t1669577662_SByte_t1669577662PFvvEPK10MethodInfoPvPS4_
Xma:__Z22LoadGpuProgramFromDataPKhS0_Rj
uwc:__ZN10Matrix4x4f8TransferI8JSONReadEEvRT_
MJc:__ZN14SafeBinaryRead21TransferSTLStyleArrayI13dynamic_arrayIN4core17string_with_labelILi35EEELj4EEEEvRT_17TransferMetaFlags
mpe:_PositionAsUV1_ModifyMesh_m4231919476
oyd:_Hashtable__ctor_m1941859523
cse:_ScrollRect_set_horizontalScrollbarSpacing_m2209919081
RY:__ZN17PersistentManager18ReadObjectThreadedEi
qEa:__ZN25TransformFeedbackSkinning31CleanupTransformFeedbackShadersEv
jTa:__Z22scripting_object_unbox18ScriptingObjectPtr
SKc:__ZNK20TextRenderingPrivate8FontImpl19GetCharacterAdvanceEjijfPj
sQf:_Array_InternalArray__ICollection_Add_TisUriScheme_t722425697_m3142345403_gshared
jDj:_fmt_u
B7a:__ZN10VertexData8TransferI18StreamedBinaryReadILb0EEEEvRT_
OQc:__ZN2UI29ResetVRScreenSpaceWarningFlagEv
hSd:_MonoType_get_Assembly_m4290914179
Rna:__ZN9ShaderLab7ProgramC2E10MemLabelIdi10ShaderType
DZb:__ZN14PreloadManager16UpdatePreloadingEv
tHf:_String_LastIndexOf_m95398196
Zlh:_Array_InternalArray__set_Item_TisUILineInfo_t4195266810_m2313892078_gshared
PNi:_PlayableAsset__ctor_m2395156306
s3h:__ZN6il2cpp2os4File4ReadEPNS0_10FileHandleEPciPi
TV:__ZNK21UnityDefaultAllocatorI17LowLevelAllocatorE8ContainsEPKv
tfd:_RuntimeTypeHandle_Equals_m2857439487
Uh:_emscripten_get_main_loop_timing
y7d:_SafeHandle_Finalize_m3866180675
N5a:__ZN24GenerateTypeTreeTransfer21TransferSTLStyleArrayINSt3__26vectorIN15QualitySettings14QualitySettingENS1_9allocatorIS4_EEEEEEvRT_17TransferMetaFlags
YMd:_MemoryStream_ToArray_m3911744835
UTe:_Enumerator_System_Collections_IDictionaryEnumerator_get_Entry_m859540448_AdjustorThunk
k$f:_Type_GetHashCode_m1947148725
Xrg:__Z91RuntimeInvoker_Void_t1185182177_RuntimeObject_RuntimeObject_RuntimeObject_SByte_t1669577662PFvvEPK10MethodInfoPvPS4_
Kjb:__ZNK2UI13RectTransform22GetTypeVirtualInternalEv
ep:getTempRet0
L$c:_BaseRaycaster_OnEnable_m2678466030
eTe:_Enumerator_get_CurrentKey_m627428048_AdjustorThunk
UIi:_UnityEventBase__ctor_m1851535676
Xnh:_Array_Sort_TisVector4_t3319028937_m2797285308_gshared
Lhf:_HandshakeMessage_Update_m2417837686
rhi:__ZN6il2cpp6icalls8mscorlib6System9ThreadingL21lookup_cached_cultureEP12Il2CppThreadi
pIi:_NetFxCoreExtensions_CreateDelegate_m751211712
DUb:__ZN18DeferredRenderLoopD2Ev
ZRh:_AnimationLayerMixerPlayable__cctor_m4086299972
K2:__ZNK16TypeTreeIterator4NameEv
Y0:__ZN15FileSystemEntry3SetEPKc
XWd:_ConstructorBuilder_Invoke_m3010446651
xfc:__Z52Register_UnityEngine_Application_set_targetFrameRatev
C1e:_IPv6Address_set_ScopeId_m3907190992
A4g:_ReadOnlyCollection_1_System_Collections_Generic_IListU3CTU3E_Insert_m568455025_gshared
OI:__ZN20SoundChannelInstance15ParameterBuffer5ApplyEPN4FMOD7ChannelE
q1e:_IPv6Address__ctor_m4117281080
PKc:__ZN20TextRenderingPrivate19NativeTextGenerator9InsertTabEv
CHj:_sbrk
WAg:__Z66RuntimeInvoker_Boolean_t97287965_Vector2_t2156229523_RuntimeObjectPFvvEPK10MethodInfoPvPS4_
Ghg:_Enumerator_VerifyState_m3474272061_AdjustorThunk
Ei:_glIsEnabled
BWd:_DerivedType__ctor_m1853298054
Qpb:__Z25scripting_class_get_image17ScriptingClassPtr
ixd:_CaseInsensitiveComparer_Compare_m1224120810
rjg:_List_1_RemoveAt_m2730968292_gshared
hgb:__ZNSt3__26vectorIN4core12basic_stringIcNS1_20StringStorageDefaultIcEEEE13stl_allocatorIS5_L18MemLabelIdentifier13ELi16EEEC2INS_11__wrap_iterIPS5_EEEET_SE_RKS8_PNS_9enable_ifIXaasr21__is_forward_iteratorISE_EE5valuesr16is_constructibleIS5_NS_15iterator_traitsISE_E9referenceEEE5valueEvE4typeE
Ii:_emscripten_glDrawElementsInstanced
ay:__ZN26AnimatorControllerPlayable27SetupStateMachineBehavioursEv
Ame:_LayoutGroup_get_preferredWidth_m3816902260
rXa:__ZN18JobBatchDispatcherD2Ev
Fjb:__ZN9Transform17MainThreadCleanupEv
zxi:_GC_clear_hdr_marks
VRj:_emscripten_glCreateShader__wrapper
Zyc:_cff_fd_select_get
kve:_Text_set_resizeTextForBestFit_m4095249125
z3e:_OidEnumerator_MoveNext_m3138911739
Ti:_emscripten_glGetShaderiv
OJ:__ZN4FMOD6System10getVersionEPj
_Nc:__ZN2UI6Canvas23VirtualRedirectTransferER24GenerateTypeTreeTransfer
tte:_Selectable_set_animationTriggers_m2970345687
Ytc:__ZN9JSONWrite8TransferIN4math12int2_storageEEEvRT_PKc17TransferMetaFlags
yJc:__ZN13TextRendering4Font13AwakeFromLoadE17AwakeFromLoadMode
Zvf:_CompareInfo_LastIndexOf_m2688553706
gqa:__ZN9GfxDevice21ReleaseSharedMeshDataEP14SharedMeshData
B2c:_MouseState__ctor_m1467839005
bDh:_Uri_IsDomainAddress_m2867513594
qdb:__ZNSt3__27__sort5IRNS_6__lessINS_4pairIPKN5Unity4TypeE7Hash128EES8_EEPS8_EEjT0_SC_SC_SC_SC_T_
D9c:_Dropdown_CreateItem_m2954407740
Gwi:_GC_unreachable_finalize_mark_proc
W4e:_X509Chain_ProcessCrlExtensions_m236234529
cyi:_maybe_finalize
wVh:__ZN6il2cpp2vm5Class40GetInterfaceInvokeDataFromVTableSlowPathEPK12Il2CppObjectPK11Il2CppClassj
MOf:_Array_InternalArray__IndexOf_TisLabelData_t360167391_m1826525656_gshared
bjc:__Z43RectTransform_CUSTOM_INTERNAL_get_anchorMaxP12Il2CppObjectP13Vector2fIcall
PPh:_TextGenerator_INTERNAL_CALL_Populate_Internal_cpp_m4171649399
S9d:_RemotingConfiguration_RegisterChannelTemplate_m3105688054
i4a:__ZN8Material28UpdateHashesOnPropertyChangeEN9ShaderLab16FastPropertyNameE
y1i:__ZL56MethodBuilder_t2807316753_CustomAttributesCacheGeneratorP21CustomAttributesCache
Ljc:__Z53Register_UnityEngine_SortingLayer_GetLayerValueFromIDv
Iob:__Z18Transfer_BlittableI14SafeBinaryReadLb1E8Vector4fEvRK29SerializationCommandArgumentsR31RuntimeSerializationCommandInfo
ZL:__ZN11AudioSource12AddToManagerEv
Os:__ZN8Animator23VirtualRedirectTransferER19StreamedBinaryWriteILb0EE
Jz:__ZN11UnityEngine9Animation32CreateAnimatorGenericBindingsOptERKNS0_20AnimationSetBindingsER9TransformPKN7mecanim9animation14AvatarConstantEPKNS0_21AvatarBindingConstantEbRNS6_6memory9AllocatorER8Animator
tli:__ZN6il2cpp2vm5Image13ClassFromNameEPK11Il2CppImagePKcS6_
fIj:dynCall_vdddddd
Gka:__ZN24GenerateTypeTreeTransfer21TransferSTLStyleArrayINSt3__26vectorIN9ShaderLab14SerializedPassENS1_9allocatorIS4_EEEEEEvRT_17TransferMetaFlags
vaa:__ZL32MarkLevelGameManagerDependenciesR27GarbageCollectorThreadState
Esa:__ZNK13GfxDeviceGLES26HasActiveRandomWriteTargetEv
b_i:__ZL54_MemberInfo_t3922476713_CustomAttributesCacheGeneratorP21CustomAttributesCache
PMj:_glGetActiveUniformsiv__wrapper
Ijc:__Z43Register_UnityEngine_Material_EnableKeywordv
vMi:_Mesh_GetIndices_m2873123901
j_:__ZN13MonoBehaviour19SetupScriptingCacheE17ScriptingClassPtrP10MonoScript
cs:__Z20AnimationEventToMonoRK14AnimationEventR18MonoAnimationEvent
hDg:__Z106RuntimeInvoker_Void_t1185182177_Single_t1397266774_Single_t1397266774_Single_t1397266774_Int32_t2950945753PFvvEPK10MethodInfoPvPS4_
yZ:__ZN17PersistentManager29ReadAndActivateObjectThreadedEiRK26SerializedObjectIdentifierP14SerializedFilebb
p2c:_PointerEventData_get_dragging_m746831934
jah:_ReadOnlyCollection_1_System_Collections_IEnumerable_GetEnumerator_m2781605075_gshared
_da:__ZZN15DirectorManager15InitializeClassEvEN52PreLateUpdateDirectorUpdateAnimationBeginRegistrator7ForwardEv
fJf:_Array_get_swapper_TisCustomAttributeNamedArgument_t287865710_m4254011335_gshared
Ibd:_Graphic_RegisterDirtyMaterialCallback_m106898453
nFh:_GUILayoutEntry_get_margin_m3174861737
Yja:__ZNSt3__26vectorIN9ShaderLab14SerializedPassENS_9allocatorIS2_EEE8__appendEj
hja:__ZNSt3__26vectorIN9ShaderLab20SerializedSubProgram13BufferBindingENS_9allocatorIS3_EEEC2INS_11__wrap_iterIPS3_EEEET_SB_RKS5_PNS_9enable_ifIXaasr21__is_forward_iteratorISB_EE5valuesr16is_constructibleIS3_NS_15iterator_traitsISB_E9referenceEEE5valueEvE4typeE
YTf:_Encoding_get_ISOLatin1_m2107621369
vaf:_BigInteger_op_Inequality_m2697143438
ojj:__ZL89Mathf_t3464937446_CustomAttributesCacheGenerator_Mathf_SmoothDamp_m394423605____maxSpeed4P21CustomAttributesCache
R3a:__ZN9Texture2D23VirtualRedirectTransferER18StreamedBinaryReadILb0EE
vlf:_DateTime_System_IConvertible_ToDouble_m2116720007_AdjustorThunk
_wd:_BitArrayEnumerator__ctor_m2359341397
Tfg:_Enumerator_MoveNext_m1177880931_gshared
Doj:__ZL73g_UnityEngine_TextRenderingModule_Assembly_CustomAttributesCacheGeneratorP21CustomAttributesCache
G$:__ZN16ScriptingManager27NativeTypeForScriptingClassE17ScriptingClassPtr
U1f:_UInt64_System_IConvertible_ToDateTime_m3434604642
T_f:_Type_get_IsSerializable_m1040556850
NDc:_get_sfnt_table
YVb:__ZL22ScheduleSceneNodesJobsP25ScheduleSceneNodesJobDataj
Jk:_emscripten_set_canvas_size
Lad:_Graphic_SetVerticesDirty_m2124914069
awf:_CultureInfo__ctor_m3285927757
poe:_MaskableGraphic_get_rootCanvasRect_m3492154629
Rmh:_Array_Resize_TisRaycastResult_t3360306849_m1811054291_gshared
Cja:__ZNSt3__26vectorIN9ShaderLab20SerializedSubProgramENS_9allocatorIS2_EEE8__appendEj
BW:__ZN20DynamicHeapAllocatorI17LowLevelAllocatorE8AllocateEji
LGh:_Locale_GetText_m2427493201
SOb:__ZN20DynamicPropertySheet15SetVectorQueuedERKN9ShaderLab16FastPropertyNameERK8Vector4fN19ShaderPropertySheet8SetFlagsE
wA:__ZN7mecanim9animation22EvaluateAvatarRetargetEPKNS0_14AvatarConstantEPKNS0_11AvatarInputEPNS0_12AvatarOutputEPNS0_12AvatarMemoryEPNS0_15AvatarWorkspaceEb
$Xa:__ZN14RenderSettings23VirtualRedirectTransferER19StreamedBinaryWriteILb0EE
vsc:__ZL26Transfer_SimpleNativeClassI9JSONWrite10RectOffsetLb0EEvRK29SerializationCommandArgumentsR31RuntimeSerializationCommandInfo
_wi:_GC_push_conditional
Hwa:__ZN17GenericDynamicVBO10AllocateVBEjR21DynamicVBOChunkHandle
Uof:_DBNull_ToString_m3638608738
wmi:__ZN30dense_hashtable_const_iteratorI10KeyWrapperIP18Il2CppGenericClassES3_N6il2cpp8metadata22Il2CppGenericClassHashEN14dense_hash_setIS3_S6_NS3_14EqualsComparerINS5_25Il2CppGenericClassCompareEEENSt3__29allocatorIS3_EEE8IdentityESA_SD_EppEv
Xwd:_BitArray_Clone_m3537018332
ihe:_ObjectRecord_UnchainFixup_m3191243952
Fth:_TlsStream_get_CanWrite_m16389328
hl:_glMapBufferRange
J3a:__ZN9Texture2D8TransferI18StreamedBinaryReadILb0EEEEvRT_
bic:__Z31Input_CUSTOM_GetMouseButtonDowni
A9b:__ZN13PlayableGraph4PlayEv
V8b:__Z29AddCanvasIntermediateRendererPN2UI6CanvasEPNS_13CanvasBuffersEP17VertexDeclarationjRK10Matrix4x4ftRK4AABB4PPtrI8MaterialEi17ShadowCastingModebP6Camerab
eNb:__ZNK9Transform16GetLocalPositionEv
kSd:_MonoType_get_BaseType_m1098640416
vLa:__ZN13LoadOperation19IntegrateTimeSlicedEi
Yth:_TlsStream_Read_m3392972801
Psa:__ZN13GfxDeviceGLES22DispatchComputeProgramE12ObjectHandleI18ComputeProgram_TagPvE15ComputeBufferIDj
mRi:_Transform_get_localToWorldMatrix_m4155710351
FUf:_Latin1Encoding_GetString_m254210343
Mhb:__Z17TransformAABBSlowRK4AABBRK10Matrix4x4fRS_
spd:_Array_combsort_m4052486289
j7a:__ZN15SerializeTraitsI13dynamic_arrayI12SpriteVertexLj4EEE19ResizeSTLStyleArrayERS2_i
Zha:__ZN9ShaderLab21SerializedShaderState8TransferI14SafeBinaryReadEEvRT_
puf:_Environment_GetWindowsFolderPath_m1738399646
_zc:_cf2_stack_pushInt
nA:__ZN8Animator19FireAnimationEventsERNS_11AnimatorJobE
Q1d:_Module_GetCustomAttributes_m76573271
Qgd:_CryptoConfig_EncodeOID_m2635914623
Ika:__ZN15SerializeTraitsINSt3__24pairIN4core12basic_stringIcNS2_20StringStorageDefaultIcEEEES6_EEE8TransferI24GenerateTypeTreeTransferEEvRS7_RT_
oPj:b89
nPj:b88
POj:b81
OOj:b80
lFa:__ZN7ApiGLES19CreateSparseTextureEjj14GraphicsFormatiiiiRiS1_S1_
o0:__ZN18ResourceImageGroup7CleanupEv
gPj:b85
fPj:b84
iPj:b87
hPj:b86
uee:_RemotingSurrogateSelector_GetSurrogate_m3900875713
Udf:_CertificateValidationCallback_Invoke_m1014111289
ZYa:__ZN8Playable19SetOutputConnectionEPS_i
MVh:__ZN15dense_hashtableINSt3__24pairIK10KeyWrapperIPK11Il2CppClassEPKcEES6_N6il2cpp5utils11PointerHashIS3_EEN14dense_hash_mapIS6_S9_SE_NS6_14EqualsComparerINS0_8equal_toIS5_EEEENS0_9allocatorISA_EEE9SelectKeyESJ_SL_EC2ERKSO_j
Wl:_glDeleteShader
KAa:__ZN6prcoreL17RemapGenericFloatI15TexFormatRGHalf16TexFormatRGFloatEEvPKNS_9InnerInfoE
Inh:_Array_Sort_TisUICharInfo_t75501106_m128665067_gshared
rCc:_otv_GSUB_validate
Yzf:_RSAPKCS1SignatureDeformatter_SetHashAlgorithm_m1602190713
rtf:_Enum_System_IConvertible_ToByte_m1219166845
s_e:_Dictionary_2_CopyToCheck_m45332585_gshared
_dc:__Z27scripting_add_internal_callPKcPKv
gai:__ZN13Il2CppHashMapINSt3__24pairIPK9EventInfoP11Il2CppClassEEj17ReflectionMapHashIS7_ENS0_8equal_toIS7_EENS0_9allocatorINS1_IK10KeyWrapperIS7_EjEEEEEC2EjRKS9_RKSB_
mni:__GLOBAL__sub_I_GarbageCollector_cpp
hKi:_Input_get_inputString_m1307069105
aUe:_Enumerator_MoveNext_m1556953412_AdjustorThunk
jt:__ZN26AnimatorControllerPlayable18SetLayerAutoWeightEv
qTc:__Z44Register_UnityEngine_Canvas_get_pixelPerfectv
$Bh:_Literal_GetAnchorInfo_m810577400
zQc:__ZN2UI14CanvasRenderer12SyncMaterialENS0_8SyncFlagE
FOd:_StreamWriter_Write_m1660535366
WAi:__ZN6il2cpp2vm9Parameter30GetDefaultParameterValueObjectEPK10MethodInfoPK13ParameterInfoPb
yWf:_UTF8Encoding_GetByteCount_m4152118078
EBe:_KeyPairPersistence__CanSecure_m3516574278
Gsg:__Z95RuntimeInvoker_Void_t1185182177_RuntimeObject_RuntimeObject_Int32_t2950945753_SByte_t1669577662PFvvEPK10MethodInfoPvPS4_
ojd:_MD5CryptoServiceProvider_Dispose_m3502499818
__g:_Collection_1_System_Collections_IList_get_Item_m2422562729_gshared
AEc:_UNITY_tt_face_done_kern
zEe:_ArrayReadOnlyList_1_RemoveAt_m2104218585_gshared
Bab:__ZN12BoneWeights48TransferI24GenerateTypeTreeTransferEEvRT_
CGb:__Z19scripting_gc_enablev
LNe:_InternalEnumerator_1_get_Current_m2907722321_gshared
DKb:__ZZ23InitPlayerLoopCallbacksvEN41InitializationPlayerUpdateTimeRegistrator7ForwardEv
Kdc:__ZN11UTF16StringC2ERKS_10MemLabelId
WOe:_InternalEnumerator_1_get_Current_m3792939945_AdjustorThunk
rSc:__Z55Register_UnityEngine_CanvasRenderer_DisableRectClippingv
aab:__ZN14SafeBinaryRead21TransferSTLStyleArrayI13dynamic_arrayI11ColorRGBA32Lj4EEEEvRT_17TransferMetaFlags
Dub:__ZL26Transfer_SimpleNativeClassI24GenerateTypeTreeTransfer8GradientLb0EEvRK29SerializationCommandArgumentsR31RuntimeSerializationCommandInfo
AIe:_InternalEnumerator_1_System_Collections_IEnumerator_get_Current_m888718134_gshared
Aog:__Z175RuntimeInvoker_Void_t1185182177_SByte_t1669577662_SByte_t1669577662_SByte_t1669577662_SByte_t1669577662_SByte_t1669577662_SByte_t1669577662_SByte_t1669577662_SByte_t1669577662PFvvEPK10MethodInfoPvPS4_
jNi:_Object_Destroy_m3118546832
lmf:_DateTime_FromTicks_m4059645178_AdjustorThunk
T9d:_ConfigHandler_ParseTime_m1787834288
Ima:__ZN9ShaderLab7Program27CreateFromSerializedProgramERKNS_17SerializedProgramE10ShaderTypeiP16PropertyNamesSetPK6Shader
OUd:_Assembly_Load_m3487507613
UWa:__ZNSt3__27__sort4IRNS_6__lessIN4core12basic_stringIcNS2_20StringStorageDefaultIcEEEES6_EEPS6_EEjT0_SA_SA_SA_T_
LIj:dynCall_viiiifii
K8h:__ZN6il2cpp2gc19AppendOnlyGCHashMapINSt3__24pairIPK11Il2CppImageP11Il2CppClassEEP22Il2CppReflectionModule17ReflectionMapHashIS9_ENS2_8equal_toIS9_EEEC2Ev
OY:__Z20GetPersistentManagerv
QHc:_UNITY_TT_Set_Var_Design
l8:__ZN21SystemInfoStringCache16StaticInitializeEPv
B4g:_ReadOnlyCollection_1_System_Collections_Generic_ICollectionU3CTU3E_Remove_m1100818788_gshared
bja:__ZNSt3__26vectorIN9ShaderLab20SerializedSubProgram15StructParameterENS_9allocatorIS3_EEE6assignIPS3_EENS_9enable_ifIXaasr21__is_forward_iteratorIT_EE5valuesr16is_constructibleIS3_NS_15iterator_traitsISA_E9referenceEEE5valueEvE4typeESA_SA_
K3g:_Collection_1_IsSynchronized_m2291009199_gshared
RDb:__ZNK13MonoBehaviour7GetNameEv
Pib:__ZN19ScriptingInvocation28AdjustArgumentsToMatchMethodEv
yjh:_IndexedSet_1_Contains_m1525966688_gshared
zG:__Z15_CheckFMODError11FMOD_RESULTPKciS1_
Dgi:__ZN6il2cpp6icalls8mscorlib6SystemL16ThrowInvalidCastEPK11Il2CppClassS5_
BVa:__Z20RenderMultipleMeshesRK15RenderNodeQueueRK18RenderMultipleData17ShaderChannelMask
SXc:__ZN11UnityEngine15PlatformWrapper20GetPlayerPrefsStringERKN4core12basic_stringIcNS1_20StringStorageDefaultIcEEEES5_
loe:_MaskableGraphic_get_maskable_m1260382606
$Tf:_Latin1Encoding__ctor_m498920120
Ubi:__ZN6il2cpp2vm4Type19GetGenericParameterEPK10Il2CppType
dOd:_StreamReader_Peek_m2272511193
fnf:_DateTimeFormatInfo_FillAllDateTimePatterns_m2683124783
SRc:__Z51Register_UnityEngine_CanvasGroup_get_blocksRaycastsv
dTd:_NumberFormatter_get_IsFloatingSource_m3714711779
z$f:_Type_GetConstructor_m1195697116
sd:_glBeginQuery
r0i:__ZL104RegionInfo_t1090270226_CustomAttributesCacheGenerator_RegionInfo_t1090270226____DisplayName_PropertyInfoP21CustomAttributesCache
sQh:_Canvas_get_scaleFactor_m3314757802
fMb:__ZN6Camera12RenderStereoENS_10RenderFlagE8CullFlagPNS_24PerformEyeRenderFunctionE
Rlb:__ZN20LocalFileSystemPosix10ToAbsoluteEPKc
pVa:__ZN20TierGraphicsSettings8TransferI19StreamedBinaryWriteILb0EEEEvRT_
kSj:b111
S7:__GLOBAL__sub_I_runtime_input_0_cpp
_ti:__ZN6il2cpp2vm13ComObjectBase16DisconnectObjectEj
Bm:f0
jEj:_getcwd
GKa:__ZN25ThreadsafeLinearAllocatorD2Ev
bhb:__Z21SendMessageToEveryoneRK17MessageIdentifier11MessageData
Gca:__ZN21BillboardBatchManager16StaticInitializeEPv
clf:_DateTime_AbsoluteDays_m4235097773
y9:__ZN12_GLOBAL__N_138ArchiveRedirectFileSystemStaticDestroyEPv
Mjg:__Z74RuntimeInvoker_RuntimeObject_RuntimeObject_RuntimeObject_SByte_t1669577662PFvvEPK10MethodInfoPvPS4_
E8c:_DefaultControls_CreateScrollView_m3842770629
Y1a:__ZN12CubemapArray34UpdateFileTextureUploadInstructionEP26FileAssetUploadInstructionj
kFa:__Z23CreateSparseTextureGLES9TextureIDii14GraphicsFormati
ZCc:_otv_Anchor_validate
oyf:_Guid_CompareTo_m243656946_AdjustorThunk
$uf:_CCMath_mod_m3631663509
b_f:_TimeSpan_Negate_m1889505500_AdjustorThunk
Y7g:_ReadOnlyCollection_1_System_Collections_ICollection_CopyTo_m2715087453_gshared
xLc:__ZNSt3__23mapIN20TextRenderingPrivate7FontRefEP11FT_FaceRec_NS_4lessIS2_EENS_9allocatorINS_4pairIKS2_S4_EEEEEixERS9_
aNa:__ZN17ArchiveFileSystem10AddStorageEP20ArchiveStorageReader
Zci:_il2cpp_class_get_assemblyname
_Th:__ZN6il2cpp2vm5Class15GetEnumBaseTypeEP11Il2CppClass
ehf:_Context_set_WriteSequenceNumber_m942577065
Xd:_glVertexAttrib4fv
rui:__ZNK6il2cpp5utils13VmStringUtils23CaseInsensitiveComparerclERKNSt3__212basic_stringIcNS3_11char_traitsIcEENS3_9allocatorIcEEEEPKc
M5c:_CanvasScaler_SetScaleFactor_m3006968999
DKg:__Z78RuntimeInvoker_Boolean_t97287965_Navigation_t3049316579_Navigation_t3049316579PFvvEPK10MethodInfoPvPS4_
_2a:__ZNK9Texture2D16GetNpotTexelSizeEv
$Sd:_NumberFormatter_Init_m3576155222
yMa:__ZL33FileEntryInfoListToFolderContentsRKN4core12basic_stringIcNS_20StringStorageDefaultIcEEEERK19dynamic_block_arrayI13FileEntryInfoLj32EERNSt3__23setIS3_NSB_4lessIS3_EENSB_9allocatorIS3_EEEE
Ane:_LayoutUtility_GetLayoutProperty_m714717302
yCj:_Terminal_NotifyCommandHandlers_m909296863
Wpa:__ZN9GfxDevice22GetDefaultVertexBufferE26GfxDefaultVertexBufferTypej
LJf:_Array_InternalArray__ICollection_Contains_TisInt64_t3736567304_m2911357929_gshared
l$g:_Collection_1_Remove_m3022471627_gshared
BEj:___fseeko_unlocked
JTd:_Object_ToString_m1740002499
tEj:_sscanf
q1c:_ExecuteEvents_GetEventChain_m2404658789
BHb:__Z17BeginSplashScreenv
Vmh:_Array_Resize_TisUILineInfo_t4195266810_m3763058392_gshared
kgd:_SByte_ToString_m3584531119_AdjustorThunk
zla:__ZN9ShaderLab16SerializedShader8TransferI19StreamedBinaryWriteILb0EEEEvRT_
TC:__ZN7mecanim9animation18CreateAvatarMemoryEPKNS0_14AvatarConstantERNS_6memory9AllocatorE
V9e:_ModulusRing__ctor_m2420310199
KBd:_Convert_ToDateTime_m626620011
vUe:_Enumerator_System_Collections_IDictionaryEnumerator_get_Key_m2500634048_AdjustorThunk
FB:__ZN7mecanim8skeleton16SkeletonPoseCopyIN4math4trsXENS2_7affineXEEEvPKNS0_13SkeletonPoseTIT_EEPNS5_IT0_EE
pwa:__ZN18GfxFramebufferGLES18GetFramebufferNameERK20GfxRenderTargetSetup
hbi:__ZN6il2cpp2vm14TypeNameParser12ParseVersionERKNSt3__212basic_stringIcNS2_11char_traitsIcEENS2_9allocatorIcEEEERtSB_SB_SB_
Oke:_InputField_MoveDown_m1455948167
Joc:__Z30Event_Get_Custom_PropCharacterP12Il2CppObject
tea:__ZN13PlayableGraph27SchedulePlayableDestructionERK9HPlayable
iCc:_cff_get_mm_var
RLj:_glGetFramebufferAttachmentParameteriv__wrapper
F8d:_ChannelServices_GetCurrentChannelInfo_m3041604116
iYc:__Z13RegisterClassI20UnityConnectSettingsEvv
Npb:__Z22scripting_array_length17ScriptingArrayPtr
ROd:_SynchronizedReader_Peek_m148942882
ung:__Z95RuntimeInvoker_Void_t1185182177_RuntimeObject_Int32_t2950945753_Int32_t2950945753_RuntimeObjectPFvvEPK10MethodInfoPvPS4_
j2a:__ZN14SafeBinaryRead20TransferTypelessDataEjPvi
sN:__ZN13dynamic_arrayI12SoundChannelLj4EE9push_backERKS0_
a5:__Z19GetActiveColorSpacev
aEc:_UNITY_tt_face_load_kern
k2d:_MonoMethodInfo_GetDeclaringType_m2924452727
NIb:__ZN13sorted_vectorINSt3__24pairIiN17InstancingBatcher12PropertyTypeEEEN10vector_mapIiS3_NS0_4lessIiEE13stl_allocatorIS4_L18MemLabelIdentifier1ELi16EEE13value_compareESA_E21sort_clear_duplicatesEv
D$:__Z6StrCmpPKcS0_
tGd:_NumberFormatter_AppendIntegerString_m2257376141
Qna:__Z21CheckGpuProgramUsable20ShaderGpuProgramType
Z4b:__ZN13ProduceHelperI14Texture2DArrayLb0EE7ProduceE10MemLabelId18ObjectCreationMode
Zqi:__ZN6il2cpp2os9Directory20GetFileSystemEntriesERKNSt3__212basic_stringIcNS2_11char_traitsIcEENS2_9allocatorIcEEEESA_iiPi
cod:_Array_System_Collections_IList_Add_m1063688101
byj:__ZL66Navigation_t3049316579_CustomAttributesCacheGenerator_m_SelectOnUpP21CustomAttributesCache
HKc:__ZN20TextRenderingPrivate19NativeTextGenerator5SetupEv
lTb:__ZNK15SharedLightData24GetFinalShadowResolutionEv
xeb:__ZN12AspectRatios8TransferI18StreamedBinaryReadILb0EEEEvRT_
O8b:__ZN10GameObject14CopyPropertiesERS_
xpc:__Z44Register_UnityEngine_GUIStyle_get_fixedWidthv
IKf:_Array_InternalArray__ICollection_Remove_TisLink_t544317964_m1280781374_gshared
zqd:_BitConverter_DoubleWordsAreSwapped_m1474345095
B6a:__ZNK13ScreenManager12IsFullScreenEv
Rvd:_FixedSizeArrayListWrapper_set_Capacity_m4221053039
WEj:_rand
tMj:_emscripten_glFramebufferRenderbuffer__wrapper
Vbc:__ZN13MeshScripting10CreateMeshE21ScriptingObjectOfTypeI4MeshE
Jqb:__ZN14SafeBinaryRead21TransferSTLStyleArrayINSt3__26vectorI17AnimationCurveTplIfE13stl_allocatorIS4_L18MemLabelIdentifier1ELi16EEEEEEvRT_17TransferMetaFlags
uwd:_SynchronizedArrayListWrapper_Contains_m3809499313
VKf:_Array_InternalArray__ICollection_Remove_TisLabelData_t360167391_m3556246844_gshared
Oid:_HMACSHA256__ctor_m346174875
HVb:__Z22PrepareOptimizedPlanesPK5PlaneiPKN4math7_float4E
pV:__ZN11UnityEngine15CloudWebService17WebFileDownloaderINS0_20WebRequestRestClientENS0_23WebRequestRestHeaderMapEE10InitializeERKN4core12basic_stringIcNS5_20StringStorageDefaultIcEEEE
Eca:__ZN17UniqueIDGenerator15CreatePureIndexEv
zr:__ZN11UnityEngine9Animation28GenericAnimationBindingCache15DidReloadDomainEv
j4b:__Z48InitializeRectTransformAnimationBindingInterfacev
nfb:__ZNSt3__26vectorIN15ResourceManager10DependencyE13stl_allocatorIS2_L18MemLabelIdentifier52ELi16EEE6assignINS_11__wrap_iterIPS2_EEEENS_9enable_ifIXaasr21__is_forward_iteratorIT_EE5valuesr16is_constructibleIS2_NS_15iterator_traitsISC_E9referenceEEE5valueEvE4typeESC_SC_
nTh:__ZN15dense_hashtableINSt3__24pairIK10KeyWrapperIPK22Il2CppGenericParameterEP11Il2CppClassEES6_N6il2cpp5utils11PointerHashIS4_EEN14dense_hash_mapIS6_S9_SE_NS6_14EqualsComparerINS0_8equal_toIS5_EEEENS0_9allocatorISA_EEE9SelectKeyESJ_SL_E14squash_deletedEv
d$a:__ZN9ShaderLabL27GetDesiredRenderTextureDescEPK6Camera
xSf:_Array_InternalArray__Insert_TisMark_t3471605523_m2854535880_gshared
$ya:__ZN6prcoreL29inner_stretch_rgb565_bilinearEPKNS_9InnerInfoE
Tmc:__Z14GUIClipTextureP9Texture2DPhiiii
bee:_MethodReturnDictionary__cctor_m278392388
wY:__ZNK9Transform18TransformDirectionERK8Vector3f
Jsh:_SslStreamBase_get_CanWrite_m1622082918
Jzj:__ZL80CanvasScaler_t2767979955_CustomAttributesCacheGenerator_m_ReferencePixelsPerUnitP21CustomAttributesCache
KCc:_otv_MarkLigPos_validate
$ye:_PrimalityTests_RabinMillerTest_m1471415870
vfg:_Enumerator_MoveNext_m2114485647_gshared
UZd:_GenericTypeParameterBuilder_GetCustomAttributes_m580748276
EZh:__ZN15dense_hashtableINSt3__24pairIK10KeyWrapperIPK11Il2CppClassEPKcEES6_N6il2cpp5utils11PointerHashIS3_EEN14dense_hash_mapIS6_S9_SE_NS6_14EqualsComparerINS0_8equal_toIS5_EEEENS0_9allocatorISA_EEE9SelectKeyESJ_SL_E12resize_deltaEjj
FGj:__ZNK10__cxxabiv120__si_class_type_info27has_unambiguous_public_baseEPNS_19__dynamic_cast_infoEPvi
_9e:_Kernel_LeftShift_m4140742987
BUd:_Assembly_GetManifestResourceInternal_m1224391897
Lwa:__Z30AddDefaultStreamsToMeshBuffersR9GfxDeviceR11MeshBuffersj17ShaderChannelMaskS3_
h9:__ZL16GetInterfaceImpl18UnityInterfaceGUID
rUh:__ZN6il2cpp2vmL17SetupFieldOffsetsENS0_15FieldLayoutKindEP11Il2CppClassjRKNSt3__26vectorIjNS4_9allocatorIjEEEE
Pti:__ZN6il2cpp6icalls8mscorlib6System15MonoCustomAttrs27GetCustomAttributesInternalEP12Il2CppObjectP20Il2CppReflectionTypeb
Wb:invoke_viifi
lIc:_UNITY_TT_Set_MM_Blend
T7:__GLOBAL__sub_I_runtime_math_random_0_cpp
OHb:__ZN14PreloadManager35WaitForAllAsyncOperationsToCompleteEv
gI:__ZL31InitializeAudioScriptingClassesv
$Mb:__Z14SortGUIByDepthP10GUIElementS0_
qC:__ZN12_GLOBAL__N_120ProcessRootMotionMixER33AnimationPlayableEvaluationOutputR35AnimationPlayableEvaluationConstantR32AnimationPlayableEvaluationInputS1_f
LDh:_UriParser__cctor_m3655686731
qne:_LayoutRebuilder_U3Cs_RebuildersU3Em__0_m589488547
rmb:__ZNK20LocalFileSystemPosix21GetAvailableDiskSpaceEPKcRy
r8:__ZNSt3__26__treeIiNS_4lessIiEENS_9allocatorIiEEE7destroyEPNS_11__tree_nodeIiPvEE
ppa:__ZNK9GfxDevice14GetWorldMatrixEv
Pvc:__ZN8JSONRead8TransferI8Vector2fEEvRT_PKc17TransferMetaFlagsb
hUi:_Transform_set_parent_m786917804
mue:_Slider_get_value_m739683640
Hkb:__Z19scripting_array_new17ScriptingClassPtrjj
gN:__ZN11SoundHandle13CreateChannelEb
A4a:__ZN14SafeBinaryRead21TransferSTLStyleArrayI13dynamic_arrayI12LightmapDataLj4EEEEvRT_17TransferMetaFlags
Kja:__ZNSt3__26vectorIN9ShaderLab20SerializedSubProgram16TextureParameterENS_9allocatorIS3_EEE6assignIPS3_EENS_9enable_ifIXaasr21__is_forward_iteratorIT_EE5valuesr16is_constructibleIS3_NS_15iterator_traitsISA_E9referenceEEE5valueEvE4typeESA_SA_
fYh:__ZN13Il2CppHashMapIN6il2cpp5utils13dynamic_arrayIPK10Il2CppTypeLj4EEEPFvvENS0_8metadata19Il2CppSignatureHashENS9_22Il2CppSignatureCompareENSt3__29allocatorINSC_4pairIK10KeyWrapperIS6_ES8_EEEEEC2EjRKSA_RKSB_
q9h:__ZN15dense_hashtableINSt3__24pairIK10KeyWrapperIPK22Il2CppGenericParameterEPK24MonoGenericParameterInfoEES6_N6il2cpp5utils11PointerHashIS4_EEN14dense_hash_mapIS6_SA_SF_NS6_14EqualsComparerINS0_8equal_toIS5_EEEENS0_9allocatorISB_EEE9SelectKeyESK_SM_E15set_deleted_keyERKSB_
igd:_SByte_TryParse_m2431806379
O1b:__ZN6prcoreL11inner_clearILj2EEEvPhjjj
Mhd:_DSACryptoServiceProvider_get_KeySize_m786836990
Ig:_emscripten_exit_fullscreen
o4b:__ZZL31RegisterRectTransformPropertiesR22GenericPropertyBindingEN39Wrapper_RectTransformAnchoredPositiony113GetFloatValueEPv
ITd:_Object_MemberwiseClone_m1474068832
Gpi:__ZN6il2cpp6icalls8mscorlib6System6String19InternalAllocateStrEi
Wwc:__Z29Transfer_Blittable_ArrayFieldI8JSONRead11QuaternionfEvRT_R9ArrayInfoRK23StaticTransferFieldInfo
rgc:__Z45Register_UnityEngine_Camera_get_targetDisplayv
Z6b:__ZNK24RendererAnimationBinding15GenerateBindingERKN4core12basic_stringIcNS0_20StringStorageDefaultIcEEEEbRN11UnityEngine9Animation14GenericBindingE
G1e:_IPv6Address__ctor_m3704187391
uNb:__Z15GetFlareManagerv
Hz:__ZN8Animator13GetAvatarRootEv
hQf:_Array_InternalArray__ICollection_Add_TisResourceCacheItem_t51292791_m3851804827_gshared
WCj:___toread
VFb:__ZNSt3__26vectorI10vector_mapIiiNS_4lessIiEE13stl_allocatorINS_4pairIiiEEL18MemLabelIdentifier38ELi16EEES4_IS9_LS7_38ELi16EEE26__swap_out_circular_bufferERNS_14__split_bufferIS9_RSA_EE
w9e:_BigInteger_get_Rng_m3283260184
gHj:___cxa_is_pointer_type
TE:__ZN8Animator22ScriptingStringToCRC32ERK11ICallString
sC:__ZN7mecanim9animation16EvaluateAvatarDXEPKNS0_14AvatarConstantEPKNS0_11AvatarInputEPNS0_12AvatarMemoryEPNS0_15AvatarWorkspaceEPNS0_12AvatarOutputE
m3c:_RaycastResult_ToString_m2678663776_AdjustorThunk
Uph:_Array_InternalArray__get_Item_TisKeyValuePair_2_t2530217319_m2886833132_gshared
Hse:_ScrollRect_OnEndDrag_m3202230060
Xkc:__Z34Transform_CUSTOM_SetAsFirstSiblingP12Il2CppObject
Dke:_InputField_Delete_m3471899192
S8d:_RemotingConfiguration_get_ProcessId_m2180277012
m3:__ZN17PersistentManager40GlobalToLocalSerializedFileIndexInternalERK26SerializedObjectIdentifier
mS:__ZN11UnityEngine15CloudWebService17SessionEventQueue14ParseEventDataERKN4core12basic_stringIcNS2_20StringStorageDefaultIcEEEE
Pua:__ZN13TranslateGLES4InitERK12GraphicsCaps16GfxDeviceLevelGL
dId:_Int64_System_IConvertible_ToUInt16_m848637338_AdjustorThunk
zOf:_Array_InternalArray__IndexOf_TisLink_t544317964_m455584088_gshared
vWg:_Enumerator_get_Current_m2282646120_AdjustorThunk
M7g:_ReadOnlyCollection_1_IndexOf_m2539022912_gshared
Ryj:__ZL66Selectable_t3250028441_CustomAttributesCacheGenerator_m_TransitionP21CustomAttributesCache
ABi:__ZN6il2cpp2os6Memory12AlignedAllocEjj
sve:_Text_set_alignByGeometry_m3828822280
lvi:__ZN6il2cpp8metadataL7CompareEPK10Il2CppTypeS3_
N_e:_HybridDictionary__ctor_m1681134385
Z1:__ZN21ScalableBufferManager11GetInstanceEv
eBb:__Z18Transfer_BlittableI18StreamedBinaryReadILb0EELb1E10ColorRGBAfEvRK29SerializationCommandArgumentsR31RuntimeSerializationCommandInfo
l_f:_TimeSpan_op_LessThan_m1594498345
eec:__ZL27GetComponentsImplementationILb0ELi0EEbR10GameObjectbRK17CompareParametersRK39GetComponentsImplementation_ReturnValue
DEb:__ZN9Scripting36IsSystemCollectionsGenericDictionaryE17ScriptingClassPtr
Cih:_UnityEvent_1_FindMethod_Impl_m322741469_gshared
xUi:_Enumerator_get_Current_m2591725252
S0:__ZL16ReadTypeTreeImplILb0EEbR8TypeTreeRK16TypeTreeIteratorRPKhS6_i
Y8e:_Interval_Contains_m110351300_AdjustorThunk
BCd:_Convert_ToInt32_m3048308591
Hpe:_RectMask2D_OnCanvasHierarchyChanged_m3195492255
hof:_DateTimeOffset_Equals_m3030958070
qYa:__ZNK22BuiltinResourceManager21GetResourceInstanceIDEPKN5Unity4TypeERKN4core12basic_stringIcNS4_20StringStorageDefaultIcEEEE
Sra:__ZN9GfxDevice15BeginFrameStatsEv
Whc:__Z42Register_UnityEngine_RectOffset_set_bottomv
Tlf:_DateTimeFormatInfo_GetMonthName_m2034512315
ePb:__ZN28LightProbeProxyVolumeContext8CopyFromERKS_
u8g:_ReadOnlyCollection_1_System_Collections_Generic_IListU3CTU3E_Insert_m2489506856_gshared
D6:__ZN23TransformChangeDispatch32QueueTransformChangeIfHasChangedER18TransformHierarchy
Twe:_SimpleCollator_ToDashTypeValue_m6184468
HDa:__ZN7ApiGLES18DeleteRenderbufferERj
jCa:__ZL23ProgramUniformMatrix4fvPK7ApiGLESjiihPKv
QDa:__ZN7ApiGLES13CreateTextureEjj14GraphicsFormatiiiii
xpd:_Array_new_gap_m262136975
oja:__ZN9ShaderLab20SerializedSubProgram15MatrixParameter8TransferI14SafeBinaryReadEEvRT_
gec:__ZL27GetComponentsImplementationILb0ELi1EEbR10GameObjectbRK17CompareParametersRK39GetComponentsImplementation_ReturnValue
$4e:_X509Store__ctor_m275383717
yxe:_SimpleCollator_LastIndexOfOrdinalIgnoreCase_m2984667899
WGc:_Round_Down_To_Grid
CEa:__ZN13RenderTexture7ReleaseEv
tuc:__Z18Transfer_BlittableI8JSONReadLb1EN4math12int3_storageEEvRK29SerializationCommandArgumentsR31RuntimeSerializationCommandInfo
wbb:__ZN10MeshFilter23VirtualRedirectTransferER14SafeBinaryRead
wld:_X509CertificateEnumerator_MoveNext_m2269241175
Gbb:__ZN12MeshRenderer17MainThreadCleanupEv
cUh:__ZN6il2cpp2vmL10InitLockedEP11Il2CppClassRKNS_2os12FastAutoLockE
wHa:__ZN22CreateGpuProgramOutput12CreateParamsEv
rJ:__ZN10ObjectPoolIN4FMOD7ChannelENS0_8ChannelIEE7GetFreeEi
cJe:_InternalEnumerator_1_System_Collections_IEnumerator_get_Current_m548105685_gshared
Fua:__ZNK14GfxContextGLES13GetDefaultFBOEv
Xrd:_Byte_System_IConvertible_ToType_m2251112646
pCg:__Z81RuntimeInvoker_Char_t3634460470_RuntimeObject_Int32_t2950945753_Int16_t2552820387PFvvEPK10MethodInfoPvPS4_
qmf:_DateTime_get_Hour_m4153505178_AdjustorThunk
FOh:_AudioExtensionManager_WriteExtensionProperties_m3028464154
BDf:_Evidence_Equals_m1478353107
Yac:__Z13GetImagePixelI10ColorRGBAfET_PKhii13TextureFormat15TextureWrapModeS5_ii
OPg:_List_1_System_Collections_IList_set_Item_m1842844683_gshared
Fkh:_ObjectPool_1__ctor_m2535233435_gshared
$fi:__ZN6il2cpp2vm6Thread49CheckCurrentThreadForInterruptAndThrowIfNecessaryEv
Cwf:_CultureInfo_construct_datetime_format_m1928121315
i5:__ZNSt3__23mapIN9ShaderLab16FastPropertyNameEN18UnityPropertySheet11UnityTexEnvENS_4lessIS2_EENS_9allocatorINS_4pairIKS2_S4_EEEEEixERS9_
KCa:__ZNK13TranslateGLES25GetTextureTargetDimensionEj
T5g:_ReadOnlyCollection_1_System_Collections_IList_Remove_m1842121503_gshared
TKd:_File_OpenRead_m2936789020
mkc:__Z47Texture2D_CUSTOM_INTERNAL_CALL_GetPixelBilinearP12Il2CppObjectffR10ColorRGBAf
oAd:_Enumerator_get_Entry_m3561948123
$zg:__Z94RuntimeInvoker_Void_t1185182177_RuntimeObject_PlayableGraph_t3515989261_RuntimeObject_IntPtr_tPFvvEPK10MethodInfoPvPS4_
Ji:_emscripten_glVertexAttrib4f
lna:__ZNSt3__26vectorIN20GpuProgramParameters14ConstantBufferENS_9allocatorIS2_EEE8__appendEj
J5e:_X509CertificateCollection_AddRange_m3683116910
$8d:_SinkProviderData__ctor_m1624738837
LBg:__Z88RuntimeInvoker_RuntimeObject_RuntimeObject_SByte_t1669577662_RuntimeObject_RuntimeObjectPFvvEPK10MethodInfoPvPS4_
cWd:_CustomAttributeTypedArgument_Equals_m2261980307
Gx:__ZN7mecanim12statemachine24CreateStateMachineMemoryEPKNS0_20StateMachineConstantERNS_6memory9AllocatorE
Xra:__ZN9GfxDevice18SetGlobalDepthBiasEff
L0h:__ZN6il2cpp6icalls8mscorlib6System8MonoType12get_AssemblyEP20Il2CppReflectionType
so:FUNCTION_TABLE_vi
Xi:_emscripten_glGetPointerv
Noh:_Dictionary_2_Do_CopyTo_TisKeyValuePair_2_t3842366416_TisRuntimeObject_m1564656153_gshared
fC:__ZN8Animator22ApplyBuiltinRootMotionEv
pHb:__Z26ApplyMaterialPassWithCacheRK18SharedMaterialDataR17ShaderPassContextP6ShaderPN9ShaderLab4PassEibPKNS6_10GrabPassesEPNS6_11SubProgramsEPK22DeviceRenderStateBlock
GSd:_MulticastDelegate_KPM_m22863605
KMe:_InternalEnumerator_1_get_Current_m1897120917_AdjustorThunk
eSd:_MonoType_ReorderParamArrayArguments_m2458683451
Ige:_FormatterConverter_ToInt16_m4282804414
Lrg:__Z81RuntimeInvoker_Void_t1185182177_Int64_t3736567304_RuntimeObject_Int64_t3736567304PFvvEPK10MethodInfoPvPS4_
S3c:_StandaloneInputModule_ProcessTouchPress_m4019232747
OKd:_FileStream__ctor_m3151488352
wpd:_Array_swap_m547389985
z3:__ZN8Renderer23VirtualRedirectTransferER14SafeBinaryRead
L1f:_UInt32_ToString_m2420423038
MMg:_List_1_System_Collections_IList_Add_m634558835_gshared
qLd:_FileStream_get_Length_m426703983
mUh:__ZN6il2cpp2vmL15GetBitmapNoInitEP11Il2CppClassPjRjj
OH:__ZN12AudioManager5ResetEv
j9b:__ZN15DirectorManager18ScheduleGraphStartERK14HPlayableGraph
NB:__ZN7mecanim5human14RetargetToTDoFEPKNS0_5HumanEPNS0_9HumanPoseEPNS_8skeleton13SkeletonPoseTIN4math4trsXEEESB_
Qri:__ZN6il2cpp6icalls8mscorlib6System11Environment20GetWindowsFolderPathEi
uw:__ZN7mecanim5human18HumanPoseBlendNodeERNS0_9HumanPoseEPS1_f
dBc:_UNITY_FT_RoundFix
zyi:_GC_is_heap_ptr
Qze:_ASN1_DecodeTLV_m1200977460
$Ii:_UnityEventBase_PrepareInvoke_m1785382128
y8g:_ReadOnlyCollection_1_System_Collections_Generic_IListU3CTU3E_set_Item_m1584697503_gshared
Ibb:__ZNK12MeshRenderer22GetTypeVirtualInternalEv
Htd:_Char_System_IConvertible_ToUInt32_m3901815580
Mqe:_Scrollbar_set_onValueChanged_m346467699
jug:__Z157RuntimeInvoker_Int32_t2950945753_RuntimeObject_Int32_t2950945753_Int32_t2950945753_Int32_t2950945753_SByte_t1669577662_SByte_t1669577662_Int32U26_t1369213839PFvvEPK10MethodInfoPvPS4_
uK:__ZN4FMOD6System17setSoftwareFormatEi17FMOD_SOUND_FORMATii18FMOD_DSP_RESAMPLER
Rha:__ZN14SafeBinaryRead19TransferSTLStyleMapINSt3__23mapIN4core12basic_stringIcNS3_20StringStorageDefaultIcEEEES7_NS1_4lessIS7_EE13stl_allocatorINS1_4pairIKS7_S7_EEL18MemLabelIdentifier1ELi16EEEEEEvRT_17TransferMetaFlags
bQc:__ZN2UI6Canvas27UpdateEventIndexesRecursiveERi
sS:__ZN11UnityEngine15CloudWebService16SessionContainer21PrepareDataErrorEventERN4core12basic_stringIcNS2_20StringStorageDefaultIcEEEE
e1c:_ExecuteEvents_get_pointerUpHandler_m3515704212
Cud:_ArrayList_set_Item_m2003485935
l6d:_SatelliteContractVersionAttribute__ctor_m3630863995
Z2c:_MouseButtonEventData_PressedThisFrame_m1060658845
mxb:__Z19TransferField_ArrayI19StreamedBinaryWriteILb0EE27Converter_SimpleNativeClassI8GUIStyleEEvRK23StaticTransferFieldInfoR31RuntimeSerializationCommandInfoRT0_
RMb:__Z27SetClippingPlaneShaderPropsR9GfxDevice
k6g:_ReadOnlyCollection_1_System_Collections_Generic_IListU3CTU3E_RemoveAt_m3969985996_gshared
FOj:_emscripten_glCopyTexSubImage2D__wrapper
Vbd:_GraphicRegistry_GetGraphicsForCanvas_m4219276355
sGd:_NumberFormatter_FastToDecHex_m699829267
huc:__Z35Transfer_Blittable_FixedBufferFieldI8JSONReadiEvRK29SerializationCommandArgumentsR31RuntimeSerializationCommandInfo
Xla:__ZN15SerializeTraitsIN9ShaderLab16FastPropertyNameEE8TransferI19StreamedBinaryWriteILb0EEEEvRS1_RT_
O$h:__ZNSt3__213__vector_baseIN6il2cpp2os19SocketHandleWrapperENS_9allocatorIS3_EEED2Ev
d_i:__ZL48_Type_t3588564251_CustomAttributesCacheGeneratorP21CustomAttributesCache
dc:invoke_viiffi
eId:_Int64_System_IConvertible_ToUInt32_m109903525
Zpc:__ZN5Unity9rapidjson13GenericReaderINS0_4UTF8IcEES3_13JSONAllocatorE10ParseFalseILj0ENS0_19GenericStringStreamIS3_EENS0_15GenericDocumentIS3_S4_S4_EEEEvRT0_RT1_
pLi:_Mathf_CeilToInt_m432108984
WZf:_TimeSpan_FromHours_m1109641064
mka:__Z14resize_trimmedINSt3__26vectorIN9ShaderLab18SerializedPropertyENS0_9allocatorIS3_EEEEEvRT_j
lZh:__ZN6il2cpp2vm13MetadataCache38GetMethodInfoFromMethodDefinitionIndexEi
R$c:_EventSystem_set_current_m38955169
Axh:_CostDelegate_EndInvoke_m2797921932
s7a:__ZN10VertexData8TransferI24GenerateTypeTreeTransferEEvRT_
Usf:_Double_IsInfinity_m820013146
ksi:__ZN13Il2CppHashMapIPK19Il2CppGenericMethodP10MethodInfoN6il2cpp8metadata23Il2CppGenericMethodHashENS6_26Il2CppGenericMethodCompareENSt3__29allocatorINS9_4pairIK10KeyWrapperIS2_ES4_EEEEEC2EjRKS7_RKS8_
$Ri:_Screen_get_dpi_m495672463
xWf:_UTF8Encoding_InternalGetByteCount_m2120178851
bVb:__ZL10CullLightsRK22SceneCullingParametersR11CullResults
dEd:_Convert_ToUInt64_m3170916409
Bx:__ZN7mecanim12statemachine20GetBlendTreeConstantERKNS0_13StateConstantEi
THd:_Int64_System_IConvertible_ToInt16_m4062196970_AdjustorThunk
ASd:_MonoType_GetGenericTypeDefinition_m3201894896
J1b:__Z40GetTemporaryCachePathApplicationSpecificv
bqa:__ZN9GfxDevice16EndAsyncJobFrameEv
tDg:__Z99RuntimeInvoker_Int32_t2950945753_Ray_t3785851493_RuntimeObject_Single_t1397266774_Int32_t2950945753PFvvEPK10MethodInfoPvPS4_
VDc:_UNITY_tt_face_load_hhea
QXd:_DerivedType_get_Assembly_m2979298667
Tk:___syscall3
Wk:___syscall6
Yk:___syscall4
rT:__ZN11UnityEngine15CloudWebService20WebRequestRestClient17GetResponseStatusEv
wee:_ReturnMessage__ctor_m2352989078
mpg:__Z99RuntimeInvoker_Void_t1185182177_RuntimeObject_Int32_t2950945753_SByte_t1669577662_SByte_t1669577662PFvvEPK10MethodInfoPvPS4_
mnb:__ZNSt3__26__treeINS_12__value_typeIN4core12basic_stringIcNS2_20StringStorageDefaultIcEEEEPN16MemoryFileSystem4NodeEEENS_19__map_value_compareIS6_SA_NS_4lessIS6_EELb1EEE13stl_allocatorISA_L18MemLabelIdentifier55ELi16EEE7destroyEPNS_11__tree_nodeISA_PvEE
_ni:__ZN6il2cpp2vm3RCW14QueryInterfaceILb1EEEP14Il2CppIUnknownP15Il2CppComObjectRK10Il2CppGuid
qgf:_TlsServerCertificateRequest__ctor_m1334974076
DCd:_Convert_ToInt32_m1613163543
goe:_MatEntry__ctor_m1949610076
M5g:_ReadOnlyCollection_1_System_Collections_ICollection_CopyTo_m3127175806_gshared
ml:_emscripten_glShaderBinary
S0f:_UInt16_ToString_m760649087
jmb:__ZNK20LocalFileSystemPosix6ExistsERK13FileEntryData
xFi:_Camera_GetAllCameras_m668492922
BTc:__Z58Register_UnityEngine_Canvas_GetETC1SupportedCanvasMaterialv
k_f:_TimeSpan_op_Inequality_m2467851530
Lzb:__ZN17AnimationCurveTplIfE8TransferI18StreamedBinaryReadILb1EEEEvRT_
Nnh:_Array_Sort_TisUIVertex_t4057497605_m3996333845_gshared
YVc:__ZN18UnityConnectClientD2Ev
Qpd:_Swapper_BeginInvoke_m1688449973
nci:_il2cpp_set_data_dir
Ovg:__Z81RuntimeInvoker_Void_t1185182177_RuntimeObject_Int32_t2950945753_Int64_t3736567304PFvvEPK10MethodInfoPvPS4_
Q0:__ZN13dynamic_arrayIcLj1EE6insertEPcPKcS3_
nsg:__Z86RuntimeInvoker_Boolean_t97287965_Int16_t2552820387_Int16_t2552820387_Int32_t2950945753PFvvEPK10MethodInfoPvPS4_
Cjh:_IndexedSet_1_IndexOf_m241693686_gshared
aVc:__ZN11UnityEngine15PlatformWrapper30GetGraphicsDriverLibraryStringEv
nfd:_RuntimeMethodHandle_Equals_m3301340296_AdjustorThunk
h2f:_UInt64_System_IConvertible_ToSingle_m925613075_AdjustorThunk
fBb:__Z18Transfer_BlittableI18StreamedBinaryReadILb0EELb0E4AABBEvRK29SerializationCommandArgumentsR31RuntimeSerializationCommandInfo
sfb:__ZN24GenerateTypeTreeTransfer19TransferSTLStyleMapINSt3__28multimapIN4core12basic_stringIcNS3_20StringStorageDefaultIcEEEE4PPtrI6ObjectENS1_4lessIS7_EE13stl_allocatorINS1_4pairIKS7_SA_EEL18MemLabelIdentifier52ELi16EEEEEEvRT_17TransferMetaFlags
QD:__ZN16MecanimAnimation24DeleteAnimatedPropertiesERP26IAnimatedPropertyEvaluator
fRh:_CanvasRenderer_SetMaterial_m824577244
ILb:__Z14DrawGUITextureRK5RectTIfEP7Texture11ColorRGBA32P8Materiali
g6g:_ReadOnlyCollection_1_System_Collections_Generic_ICollectionU3CTU3E_Add_m2686599243_gshared
SA:__ZN9BlobWrite8TransferI22OffsetPtrArrayTransferIKN4math7_float4EEEEvRT_PKc17TransferMetaFlags
yMb:__ZN22RenderingCommandBuffer20ExecuteCommandBufferER17ShaderPassContextR15RenderNodeQueuejP13dynamic_arrayINSt3__24pairIN9ShaderLab16FastPropertyNameEP13RenderTextureEELj4EE16ComputeQueueTypeSA_
tUi:_Transform_IsChildOf_m224006092
g_a:__ZN15TextureSettings8TransferI24GenerateTypeTreeTransferEEvRT_
Stc:__ZN9JSONWrite8TransferI4AABBEEvRT_PKc17TransferMetaFlags
zOa:__ZN25MultiBlocksMemoryFileData9SetLengthEy
Ioh:_Dictionary_2_Do_ICollectionCopyTo_TisRuntimeObject_m1855083806_gshared
pHh:_Aes__ctor_m178909601
Q2a:__ZNK9Texture2D20GetRuntimeMemorySizeEv
Jlc:__ZN11Marshalling39CreateNullExceptionForUnityEngineObjectE18ScriptingObjectPtr
Ypc:__ZN5Unity9rapidjson13GenericReaderINS0_4UTF8IcEES3_13JSONAllocatorE9ParseTrueILj0ENS0_19GenericStringStreamIS3_EENS0_15GenericDocumentIS3_S4_S4_EEEEvRT0_RT1_
mVi:_Vector2_op_Implicit_m4260192859
um:_emscripten_glUniform2iv
Ayc:_UNITY_FT_Outline_Transform
FUh:__ZN6il2cpp2vm5Class10GetMethodsEP11Il2CppClassPPv
$Qb:__Z30AddDefaultStreamsToMeshBuffersR9GfxDeviceR11MeshBuffersRK16DrawBuffersRange17ShaderChannelMaskS6_
VCa:__ZN7ApiGLES17DeleteFramebufferERN2gl6HandleILNS0_10ObjectTypeE9EEES3_
yGa:__ZN15UniformTFMethod13MapBoneBufferEj
YOc:__ZN2UI14CanvasRendererD2Ev
lqh:_Array_InternalArray__get_Item_TisParameterModifier_t1461694466_m29553316_gshared
jId:_Int64_CompareTo_m1928360444_AdjustorThunk
nGb:__Z9SetupArgviPPKc
TCd:_Convert_ToInt64_m2075031821
xPj:_glTexParameteri__wrapper
R1a:__ZN12CubemapArray23VirtualRedirectTransferER24GenerateTypeTreeTransfer
w1:__ZN12FileAccessor4OpenER15FileSystemEntry14FilePermission16FileAutoBehavior
Yqi:__ZN6il2cpp2os9Directory6CreateERKNSt3__212basic_stringIcNS2_11char_traitsIcEENS2_9allocatorIcEEEEPi
C6:__ZN23TransformChangeDispatch32QueueTransformChangeIfHasChangedERK15TransformAccess
Z0a:__ZNSt3__26vectorINS_4pairIN9ShaderLab16FastPropertyNameEN18UnityPropertySheet11UnityTexEnvEEENS_9allocatorIS6_EEE21__push_back_slow_pathIKS6_EEvRT_
xUd:_Assembly_get_FullName_m293988418
B:tempValue
kCi:__ZN6il2cpp8metadata24Il2CppGenericContextHash4HashEPK20Il2CppGenericContext
SKe:_InternalEnumerator_1_get_Current_m356936020_AdjustorThunk
l2g:_Collection_1_CheckWritable_m1583234367_gshared
yHd:_Int32_ToString_m141394615_AdjustorThunk
Gvd:_ArrayListWrapper_CopyTo_m498486826
lKd:_Directory_GetCurrentDirectory_m219218555
dmd:_SmallXmlParser_UnexpectedEndError_m1914362401
_x:__ZN26AnimatorControllerPlayable18DeallocateBindingsEv
Mva:__ZN14DelayedDeletorI15dense_hashtableINSt3__24pairIK9TextureIDiEES3_14GfxGenericHashIS3_EN14GfxDoubleCacheIS3_iS7_NS1_8equal_toIS3_EEN31GfxDoubleCacheConcurrencyPolicy11LocklessGetE42GfxDoubleCacheDefaultEmptyDeletedGeneratorIS3_EE9SelectKeyESA_13stl_allocatorIS5_L18MemLabelIdentifier24ELi16EEEEclEv
xN:__ZN11AudioSource19CreateOpenALRolloffEfff
PDc:_UNITY_FT_Stream_ReadAt
jZf:_TimeSpan__ctor_m1896986612_AdjustorThunk
uYh:__ZN15dense_hashtableINSt3__24pairIK10KeyWrapperIN6il2cpp5utils13dynamic_arrayIPK10Il2CppTypeLj4EEEEPFvvEEESA_NS3_8metadata19Il2CppSignatureHashEN14dense_hash_mapISA_SD_SG_NSA_14EqualsComparerINSF_22Il2CppSignatureCompareEEENS0_9allocatorISE_EEE9SelectKeyESK_SM_E9set_valueEPSE_RKSE_
ykd:_ArgumentException__ctor_m1216717135
jPi:_Ray_ToString_m1732834890_AdjustorThunk
md:_glReadBuffer
EPg:_List_1_System_Collections_IList_Contains_m3860993176_gshared
lO:__ZN11AudioModule22CreateAudioClipFromWWWEP10IWWWStreamPKcbbi
k6b:__ZN9Texture2DC2E10MemLabelId18ObjectCreationMode
Si:_emscripten_glRotatef
W0f:_UInt32_System_IConvertible_ToBoolean_m1763673183_AdjustorThunk
VIi:_UnityEvent_AddListener_m2276267359
eRc:__Z13RegisterClassIN2UI11CanvasGroupEEvv
Q1b:__ZN6prcoreL11inner_clearILj4EEEvPhjjj
of:_emscripten_glClear
Txi:_GC_initialize_offsets
sea:__ZNK8Playable6HandleEv
bje:_SetPropertyUtility_SetColor_m2229203028
BTe:_Enumerator_MoveNext_m481679286_gshared
C$:__ZN14MessageHandler28MessageIDToMessageIdentifierEi
O7a:__ZNK11SpriteAtlas20GetRuntimeRenderDataEPK6Sprite
bKd:_FileSystemInfo__ctor_m3035148496
QGd:_Int32_System_IConvertible_ToDecimal_m2190376994_AdjustorThunk
qLc:__ZN20TextRenderingPrivate15DynamicFontData36GetFaceForCharacterIfAvailableInFontERKNS_7FontRefERK13dynamic_arrayI4PPtrIN13TextRendering4FontEELj4EEj
Yv:__ZN7mecanim14ValueArrayCopyILb0EEEvPKNS_10ValueArrayEPS1_
eF:__Z51Register_UnityEngine_Animator_get_hasBoundPlayablesv
Ed:emscriptenWebGLGetUniform
to:FUNCTION_TABLE_iiiiiiiiiii
CEh:_GUI_CallWindowDelegate_m3309453386
gCc:_cff_set_mm_blend
KWb:__ZL10CleanUpJobP20CullingGroupsJobData
YJd:_DirectoryInfo_get_Exists_m3142069876
zLb:__ZN13RenderManager15BatchModeUpdateEv
Y4e:_X509Chain_get_CertificateAuthorities_m804805415
Y6a:__ZN14SafeBinaryRead21TransferSTLStyleArrayI13dynamic_arrayI8Vector2fLj4EEEEvRT_17TransferMetaFlags
l3:__ZN17PersistentManager51InstanceIDToLocalSerializedObjectIdentifierInternalEiR31LocalSerializedObjectIdentifier
pRi:_Vector2_get_one_m738793577
_ac:__ZNK4Mesh14GetIndexFormatEv
qni:__ZN14dense_hash_mapI10KeyWrapperIP12Il2CppObjectEN6il2cpp2gc9CachedCCWENS4_5utils11PointerHashIS1_EENS3_14EqualsComparerINSt3__28equal_toIS2_EEEENSB_9allocatorINSB_4pairIKS3_S6_EEEEE13set_empty_keyERSH_
hd:_glVertexAttribIPointer
VUf:_StringBuilder_ToString_m3317489284
mCa:__ZN13dynamic_arrayI21ComputeShaderResourceLj4EE9push_backERKS0_
lbc:__ZNK6Sprite10GetPaddingE20SpriteRenderDataMode
iLf:_Array_InternalArray__ICollection_Remove_TisUInt32_t2560061978_m733727733_gshared
Dgd:_CryptographicException__ctor_m503735289
LLd:_Stream_EndRead_m1896469262
dkg:__Z93RuntimeInvoker_Boolean_t97287965_Int32_t2950945753_SByte_t1669577662_ExceptionU26_t3600731591PFvvEPK10MethodInfoPvPS4_
VOb:__ZN14qsort_internal5QSortIP15RODataDepthPassi17ROSorterDepthPassEEvT_S4_T0_T1_
zEc:_UNITY_ft_glyphslot_alloc_bitmap
Qjf:_RSASslSignatureDeformatter_SetHashAlgorithm_m895570787
Qwh:_X509CrlEntry__ctor_m4013514048
ezg:__Z87RuntimeInvoker_Color_t2555686324_Color_t2555686324_Color_t2555686324_Single_t1397266774PFvvEPK10MethodInfoPvPS4_
sJc:_ft_raster1_render
njc:__Z57Register_UnityEngine_RectTransform_INTERNAL_set_anchorMaxv
oqa:__ZN9GfxDevice27UpdateComputeSkinPoseBufferEP9GfxBufferP12SkinMeshInfo
PFj:__ZNKSt3__221__basic_string_commonILb1EE20__throw_length_errorEv
zag:_EqualityComparer_1_System_Collections_IEqualityComparer_Equals_m245992594_gshared
ROf:_Array_InternalArray__IndexOf_TisParameterModifier_t1461694466_m1227120810_gshared
WDa:__ZN18GfxFramebufferGLES13ReadbackImageER14ImageReferenceiiiiii
Aqc:__ZN5Unity9rapidjson6WriterI16TempBufferWriterNS0_4UTF8IcEES4_13JSONAllocatorE11WriteStringEPKcj
xed:_SerializationInfo_SetType_m3923964808
zza:__ZN6prcoreL12RemapGenericI17TexFormatARGB888815TexFormatRGB565EEvPKNS_9InnerInfoE
$I:__ZN4FMOD7Channel19setReverbPropertiesEPK29FMOD_REVERB_CHANNELPROPERTIES
$Nd:_StreamReader_Dispose_m156389394
m_:__ZN13MonoBehaviour22GetScriptFullClassNameEv
D3b:__ZN13ProduceHelperI11MonoManagerLb0EE7ProduceE10MemLabelId18ObjectCreationMode
Wyf:_RIPEMD160Managed_JJ_m112143231
rOb:__ZN13BatchRendererC2ER15RenderLoopStatsRK15RenderNodeQueuebb
dnb:__ZNK16MemoryFileSystem9EnumerateEPKcP19dynamic_block_arrayI13FileEntryInfoLj32EEbPPv19FileEnumerationFlag
lEb:__ZN13MonoBehaviour9CallAwakeEv
KYa:__ZN20SphericalHarmonicsL211AddWeightedERKS_f
fng:__Z82RuntimeInvoker_RuntimeObject_Int64_t3736567304_Int64_t3736567304_Int64_t3736567304PFvvEPK10MethodInfoPvPS4_
rtb:__Z19TransferField_ArrayI17RemapPPtrTransfer27Converter_SimpleNativeClassI8GUIStyleEEvRK23StaticTransferFieldInfoR31RuntimeSerializationCommandInfoRT0_
krc:__ZN9JSONWrite8TransferI10ColorRGBAfEEvRT_PKc17TransferMetaFlags
w$:__Z25scripting_method_get_name18ScriptingMethodPtr
$jf:_SslCipherSuite_ComputeKeys_m661027754
oNi:_Object_set_name_m291480324
uqf:_Decimal_Equals_m2486655999
Vxi:_GC_exit_check
och:__ZN16VirtFuncInvoker2Ii19Color32_t2600501292S0_E6InvokeEjP12Il2CppObjectS0_S0_
W2d:_MonoField_ToString_m2518484388
TAe:_DSAManaged_get_Random_m923751780
WVe:_Transform_1_Invoke_m2385719192_gshared
yVi:_Vector3_set_Item_m1772472431_AdjustorThunk
R7e:_Interpreter_PopulateGroup_m4042796257
A_b:__ZNSt3__26vectorINS_4pairIN4core12basic_stringIcNS2_20StringStorageDefaultIcEEEES6_EE13stl_allocatorIS7_L18MemLabelIdentifier38ELi16EEE6insertENS_11__wrap_iterIPKS7_EERSD_
uJi:_RenderPipelineManager_DoRenderLoop_Internal_m3799666479
JA:__ZN9BlobWrite8TransferI22OffsetPtrArrayTransferI9OffsetPtrIN7mecanim12statemachine18StateMachineMemoryEEEEEvRT_PKc17TransferMetaFlags
E$g:_Collection_1_System_Collections_IList_IndexOf_m3894953546_gshared
avh:_PKCS12_get_Certificates_m26161562
z$e:_NameObjectCollectionBase_Init_m2525481323
Fti:__ZN6il2cpp2vm6String8NewUtf16EPKDsi
zfd:_SByte_System_IConvertible_ToByte_m2268214252_AdjustorThunk
tqi:__ZN6il2cpp2os10ThreadImpl12QueueUserAPCEPFvPvES2_
eCh:_RegularExpression__ctor_m119502265
OVc:__ZN22BaseUnityConnectClient10QueueEventERN11UnityEngine15CloudWebService17CloudServiceEventEPKcjb
h6g:_ReadOnlyCollection_1_System_Collections_Generic_ICollectionU3CTU3E_Clear_m522482168_gshared
Fce:_ConstructionCall_InitMethodProperty_m2021094586
pHc:_UNITY_FT_Hypot
Qzj:__ZL74CanvasScaler_t2767979955_CustomAttributesCacheGenerator_m_DefaultSpriteDPIP21CustomAttributesCache
Rci:_il2cpp_class_is_abstract
yf:_emscripten_glGetError
V8h:__ZN15dense_hashtableINSt3__24pairIK10KeyWrapperIPK14Il2CppAssemblyEPK22Il2CppMonoAssemblyNameEES6_N6il2cpp5utils11PointerHashIS4_EEN14dense_hash_mapIS6_SA_SF_NS6_14EqualsComparerINS0_8equal_toIS5_EEEENS0_9allocatorISB_EEE9SelectKeyESK_SM_E14squash_deletedEv
MJ:__Z14FMOD_FILE_SeekPvjS_
Boe:_MaskableGraphic_OnDisable_m1757789159
uZa:__ZN7TextureC2E10MemLabelId18ObjectCreationMode
qme:_LayoutGroup__ctor_m2162961217
LXb:__ZNK13RenderTexture32CalculateNeedsInvertedProjectionEv
O0b:__ZN10systeminfo18GetOperatingSystemEv
Gf:emscriptenWebGLGet
Maa:__Z19CanReplaceComponentRN5Unity9ComponentEPKNS_4TypeEPN4core12basic_stringIcNS5_20StringStorageDefaultIcEEEE
$Pd:_UnmanagedMemoryStream_Flush_m1540584491
oEd:_GuidParser_ParseGuid2_m1914838819
d6b:__ZN12CubemapArray11InitTextureEiii13TextureFormatb
sDd:_Convert_ToSingle_m3983149863
sFe:_InternalEnumerator_1_System_Collections_IEnumerator_get_Current_m55999184_gshared
Wad:_Graphic_get_depth_m815589653
eEh:_Event_set_displayIndex_m1342258734
qB:__ZN7mecanim5human13HumanFixTwistEPKNS0_5HumanEPNS_8skeleton13SkeletonPoseTIN4math4trsXEEES9_iiRKf
JRb:__ZL24AssignProjectorQueuesJobP30AssignProjectorQueuesJobHeader
I4d:_ParameterModifier_t1461694466_marshal_pinvoke
BYh:__ZN15dense_hashtableINSt3__24pairIK10KeyWrapperIN6il2cpp5utils13dynamic_arrayIPK10Il2CppTypeLj4EEEEPFvvEEESA_NS3_8metadata19Il2CppSignatureHashEN14dense_hash_mapISA_SD_SG_NSA_14EqualsComparerINSF_22Il2CppSignatureCompareEEENS0_9allocatorISE_EEE9SelectKeyESK_SM_E4swapERSP_
TEd:_Int16_System_IConvertible_ToUInt32_m3410279543
tna:__ZN9ShaderLab20SerializedSubProgram14SetConstBufferEPKci
o3h:__ZN6il2cpp2os4File5CloseEPNS0_10FileHandleEPi
aYh:__ZNSt3__27__sort5IRN6il2cpp5utils11collections13ArrayValueMapIPK10Il2CppType17Il2CppInteropData26InteropDataToTypeConverterNS1_8metadata14Il2CppTypeLessENSA_26Il2CppTypeEqualityComparerEE12SortComparerEPS8_EEjT0_SH_SH_SH_SH_T_
A0f:_UInt16_CompareTo_m2664746316_AdjustorThunk
bX:__Z40DebugStringToFilePostprocessedStacktraceRK21DebugStringToFileData
Yvc:__Z29Transfer_Blittable_ArrayFieldI8JSONReadjEvRT_R9ArrayInfoRK23StaticTransferFieldInfo
$xi:_GC_check_finalizer_nested
mg:__setLetterbox
Cse:_ScrollRect_OnScroll_m3861066534
F_e:_Dictionary_2_ToTKey_m224697230_gshared
voj:__ZL72FormerlySerializedAsAttribute_t2859083114_CustomAttributesCacheGeneratorP21CustomAttributesCache
Rpc:__ZN8JSONRead32GetValueForKeyWithNameConversionEPKN5Unity9rapidjson12GenericValueINS1_4UTF8IcEE13JSONAllocatorEEPKc
Vyh:_PatternCompiler_EmitFastRepeat_m3012952683
sab:__ZNSt3__26vectorI17BlendShapeChannelNS_9allocatorIS1_EEE6assignINS_11__wrap_iterIPS1_EEEENS_9enable_ifIXaasr21__is_forward_iteratorIT_EE5valuesr16is_constructibleIS1_NS_15iterator_traitsISA_E9referenceEEE5valueEvE4typeESA_SA_
H0b:__ZN11TimeManager11GetRealtimeEv
eK:__ZN29AudioEffectInternalDefinitionC2EP26UnityAudioEffectDefinitionb
Tah:_ReadOnlyCollection_1_System_Collections_IList_Remove_m2434650390_gshared
T0f:_UInt16_ToString_m3056878594_AdjustorThunk
mBi:__ZN6il2cpp2os9FastMutexD2Ev
O8e:_Interval_get_IsSingleton_m3386290029
kci:__ZNSt3__2plIcNS_11char_traitsIcEENS_9allocatorIcEEEENS_12basic_stringIT_T0_T1_EERKS9_PKS6_
mTi:_Time_get_unscaledDeltaTime_m4270080131
Vbb:__ZN4Mesh14GetMeshBuffersER11MeshBuffers17ShaderChannelMaskPS_b
MAf:_SHA384Managed__ctor_m3220477113
yya:_stbir_resize
cOf:_Array_IndexOf_TisCustomAttributeTypedArgument_t2723150157_m3158556463_gshared
kuf:_Environment_GetOSVersionString_m407782784
RIf:_DecoderExceptionFallback_Equals_m1082173956
X1i:__ZL69Assembly_t_CustomAttributesCacheGenerator_Assembly_GetName_m981771927P21CustomAttributesCache
lmj:__ZL93Mesh_t3648964284_CustomAttributesCacheGenerator_Mesh_GetAllocArrayFromChannelImpl_m3084065604P21CustomAttributesCache
FOa:__Z37ReadDirectoryInfo_UnityWebAndUnityRawR12FileAccessorRKN20ArchiveStorageHeader6HeaderERNS1_13DirectoryInfoE
V9:__ZNSt3__26__treeINS_12__value_typeIPKciEENS_19__map_value_compareIS3_S4_15compare_tstringIS3_ELb1EEENS_9allocatorIS4_EEE7destroyEPNS_11__tree_nodeIS4_PvEE
hSf:_Array_InternalArray__Insert_TisIntPtr_t_m189626842_gshared
b4e:_X509Certificate2_get_IssuerName_m1277209535
Yjd:_RijndaelManaged_CreateEncryptor_m263736311
TOb:__ZN20DynamicPropertySheet14SetValueQueuedEN9ShaderLab16FastPropertyNameEN19ShaderPropertySheet12PropertyTypeEjNS2_8SetFlagsE
MPc:__ZN2UI6Canvas26MarkAllNestedCanvasesDirtyEv
xki:__ZN6il2cpp2vm12ReboxIfBoxedEP14Il2CppIUnknownP11Il2CppClass
NFb:__ZN25PathNamePersistentManagerD2Ev
QY:__ZN17PersistentManager48IntegrateObjectAndUnlockIntegrationMutexInternalEi
Kga:__ZZ29InitializeSortingGroupManagerPvEN44PostLateUpdateSortingGroupsUpdateRegistrator7ForwardEv
ytj:__ZL55EventTrigger_t1076084509_CustomAttributesCacheGeneratorP21CustomAttributesCache
sEf:_SecurityElement_SearchForChildByTag_m900466299
mp:__ZN6Object12SetHideFlagsENS_9HideFlagsE
lDd:_Convert_ToSingle_m3227075028
uMj:_emscripten_glGetFramebufferAttachmentParameteriv__wrapper
cMb:__ZN13RendererScene15InitializeUmbraEv
BXa:__Z28CalculateGlobalMatrixInverse23TransformAccessReadOnly
cdg:_GenericEqualityComparer_1_Equals_m3457564127_gshared
Q9e:_BigInteger_ModInverse_m2426215562
NIf:_DecoderExceptionFallback__ctor_m4044614564
eQd:_LocalDataStoreSlot__cctor_m644942532
K3d:_MonoProperty_CachePropertyInfo_m2968057423
lZc:__ZNK25UnityWebRequestJavaScript18GetDownloadedBytesEv
hPi:_Ray_GetPoint_m1852405345_AdjustorThunk
iJf:_Array_get_swapper_TisColor32_t2600501292_m2310851009_gshared
dZc:__ZN12HeaderHelper14SetUnvalidatedERKN4core12basic_stringIcNS0_20StringStorageDefaultIcEEEES6_b
cG:__ZN4FMOD6SoundI7releaseEv
UAc:_cff_parse_num
hPa:__ZN10MemoryFile9SetLengthEy
wvb:__ZN5RectTIiE8TransferI24GenerateTypeTreeTransferEEvRT_
G4a:__ZN14SafeBinaryRead21TransferSTLStyleArrayI13dynamic_arrayI7Hash128Lj8EEEEvRT_17TransferMetaFlags
PEb:__Z28scripting_class_is_interface17ScriptingClassPtr
Dh:_glTexStorage2D
yzd:_SyncHashtable_get_Item_m2686606216
Qma:__ZNK9ShaderLab10SubProgram14EnsureCompiledEv
U_d:_MethodBuilder_GetGenericArguments_m1765425737
Kmf:_DateTime_CompareTo_m3687348273
Qwi:_GC_push_marked
Snf:_DateTime_ToUniversalTime_m1945318289_AdjustorThunk
Dye:_Kernel_modInverse_m668448880
m$:__Z18BuildScriptClassId17ScriptingClassPtr
MPh:_TextGenerator_Init_m1168488231
IMa:__ZL31DeleteLastPathNameComponentImplRKN4core12basic_stringIcNS_20StringStorageDefaultIcEEEEPKc
B2b:__Z13RegisterClassI18DelayedCallManagerEvv
$Vc:__ZN18UnityConnectClient15GetCloudServiceEv
Ftb:__Z18Transfer_BlittableI24GenerateTypeTreeTransferLb0EiEvRK29SerializationCommandArgumentsR31RuntimeSerializationCommandInfo
RJe:_InternalEnumerator_1_get_Current_m2698009637_gshared
TXe:_Enumerator_System_Collections_IEnumerator_Reset_m278261807_gshared
IEb:__ZL28SerializationCommandGroupForRK31TransferFunctionScriptingTraits17ScriptingClassPtr17ScriptingFieldPtrRK20CoreScriptingClasses
ORa:__ZN10TagManager32RegisterDefaultTagsAndLayerMasksEv
dZf:_WaitHandle_Dispose_m738127030
jtg:__Z50RuntimeInvoker_Double_t594665363_Int32_t2950945753PFvvEPK10MethodInfoPvPS4_
QBg:__Z104RuntimeInvoker_Void_t1185182177_Color_t2555686324_Single_t1397266774_SByte_t1669577662_SByte_t1669577662PFvvEPK10MethodInfoPvPS4_
fhg:_Enumerator_System_Collections_IEnumerator_get_Current_m1540440674_gshared
nFf:_Single_System_IConvertible_ToInt16_m809233024_AdjustorThunk
aEj:_fmodf
tie:_InputField_UpdateLabel_m1837760870
Oua:__ZN4gles8InitCapsEP7ApiGLESP12GraphicsCapsR16GfxDeviceLevelGL
Sya:__ZN6prcore14BlitImageFloatERK14ImageReferenceRS0_NS0_8BlitModeE
fXa:__Z24CalculateVertexLightDataRK15SharedLightDataR14GfxVertexLight
li:_glEnable
Nma:__ZNK9ShaderLab7Program28BeginReadUnsupportedVariantsEv
m6:__ZN12CachedWriter11Align4WriteEv
$fb:__ZNSt3__26vectorIN30RuntimeInitializeOnLoadManager9ClassInfoE13stl_allocatorIS2_L18MemLabelIdentifier13ELi16EEE7reserveEj
xrc:__Z35Transfer_Blittable_FixedBufferFieldI9JSONWriteiEvRK29SerializationCommandArgumentsR31RuntimeSerializationCommandInfo
sdg:_Enumerator__ctor_m1590062855_AdjustorThunk
T9h:__ZN14dense_hash_mapI10KeyWrapperINSt3__24pairIPK10MethodInfoP11Il2CppClassEEEj17ReflectionMapHashIS8_ENS9_14EqualsComparerINS1_8equal_toIS8_EEEENS1_9allocatorINS2_IKS9_jEEEEEC2EjRKSB_RKSF_
Sx:__ZN26AnimatorControllerPlayable17ProcessRootMotionEP35AnimationPlayableEvaluationConstantP32AnimationPlayableEvaluationInputP33AnimationPlayableEvaluationOutput
FPd:_UnexceptionalStreamReader_Peek_m1842169584
AUc:__ZN11UnityEngine7Connect15DeviceInfoEvent16CollectExtraInfoEv
CEi:_Bounds_GetHashCode_m1844059663_AdjustorThunk
Ugd:_CryptographicException__ctor_m1422015889
WVi:_Vector4_Equals_m1779210055_AdjustorThunk
eEd:_Convert_ChangeType_m739676612
Rui:__ZThn8_N6il2cpp2vm13CachedCCWBaseINS0_13ManagedObjectEE6AddRefEv
Idf:_Alert_GetAlertMessage_m1942367141
yae:_RemotingServices_GetRealProxy_m2081098851
sAe:_BlockProcessor_Core_m189015002
CMj:_emscripten_glScissor__wrapper
yo:FUNCTION_TABLE_viifi
zo:FUNCTION_TABLE_viiff
Fkd:_X501__cctor_m1166912714
Koe:_MaskUtilities_GetRectMasksForClip_m532898711
GHc:_UNITY_tt_face_free_hdmx
cFi:_Bounds_ToString_m4208690781
Sai:__ZN6il2cpp2vm14TypeNameParser5ParseEb
vQd:_Math_Sqrt_m1297338011
sOd:_StreamWriter_Initialize_m3490883444
C$f:_Type_GetGenericArguments_m3500465462
gYc:__ZN23UnityPurchasingSettingsC2Ev
T1d:_Module_IsDefined_m2423524910
sXd:_DerivedType_create_unmanaged_type_m747846525
lrj:__ZL60EventType_t3528516131_CustomAttributesCacheGenerator_repaintP21CustomAttributesCache
STa:__ZN17GPUFenceInternals7ReleaseEv
Qyj:__ZL66Selectable_t3250028441_CustomAttributesCacheGenerator_m_NavigationP21CustomAttributesCache
MXb:__ZL10RenderFaceR9GfxDeviceR18MaterialStateCacheP13RenderTextureiif
bOf:_Array_IndexOf_TisCustomAttributeNamedArgument_t287865710_m2817957199_gshared
zja:__ZN15SerializeTraitsI13dynamic_arrayIN9ShaderLab21SerializedBindChannelELj4EEE19ResizeSTLStyleArrayERS3_i
puh:_ExtendedKeyUsageExtension_ToString_m2116504780
Uib:__ZNK5Unity9Component38MarkGameObjectAndComponentDependenciesER27GarbageCollectorThreadState
BJd:_BinaryReader_Read_m3708759962
AZc:__ZN20UnityWebRequestProtoI24UnityWebRequestTransport16AtomicRefCounter14RedirectHelper14ResponseHelper15DownloadHandler13UploadHandler12HeaderHelper14AsyncOperationED0Ev
tua:__ZN9GfxDevice26CreateDefaultVertexBuffersEv
VNj:_emscripten_glVertexAttrib2fv__wrapper
TOd:_SynchronizedReader_ReadToEnd_m2160105378
Hsf:_Double_System_IConvertible_ToUInt16_m4132603953_AdjustorThunk
Mxa:__ZN4crnd12symbol_codec32decode_receive_static_data_modelERNS_25static_huffman_data_modelE
d1b:__ZN18ScriptingArguments8AddFloatEf
zTi:_TouchScreenKeyboard_Open_m3325559252
add:_Image_set_fillOrigin_m469806249
oUc:__ZN11UnityEngine15PlatformWrapper16GetVRRenderScaleEv
xsc:__Z18Transfer_BlittableI9JSONWriteLb0EaEvRK29SerializationCommandArgumentsR31RuntimeSerializationCommandInfo
OR:__ZN11UnityEngine15CloudWebService14DataDispatcher34OnSessionContainerArchivedAndReadyERNS0_16SessionContainerE
SMi:_ConnectionChangeEvent__ctor_m764126802
e5d:_ResolveEventHandler_Invoke_m1337322179
Zfg:_Enumerator_VerifyState_m2621680056_gshared
$Ch:_UriParser_InternalRegister_m3643767086
Xha:__ZN14SafeBinaryRead19TransferSTLStyleMapINSt3__23mapIN4core12basic_stringIcNS3_20StringStorageDefaultIcEEEEiNS1_4lessIS7_EENS1_9allocatorINS1_4pairIKS7_iEEEEEEEEvRT_17TransferMetaFlags
SFc:_gray_move_to
Pof:_DBNull_System_IConvertible_ToSingle_m13713620
m5g:_ReadOnlyCollection_1_System_Collections_IList_Contains_m1327645028_gshared
ndd:_Image_GetDrawingDimensions_m3060965396
Loj:__ZL69FontTextureRebuildCallback_t2467502454_CustomAttributesCacheGeneratorP21CustomAttributesCache
V$f:_TypeLoadException__ctor_m1154572625
Wec:__Z30RegisterValidateMethodCallbackiPF18ScriptingMethodPtrS_17ScriptingClassPtrP6ObjectEPKc
dhf:_Context_get_WriteSequenceNumber_m1115956887
Voh:_Dictionary_2_Do_ICollectionCopyTo_TisKeyValuePair_2_t2401056908_m1169495264_gshared
E$d:_OpCodes__cctor_m3821715395
$6c:_ContentSizeFitter__ctor_m2349275633
dFc:_tt_cmap_init
Pwc:__ZN8JSONRead8TransferI9BoundsIntEEvRT_PKc17TransferMetaFlagsb
Ia:invoke_viidi
wnh:_Array_Sort_TisOrderBlock_t1585977831_m2922111197_gshared
Nad:_Graphic_OnRectTransformDimensionsChange_m3695755375
Bfd:_SByte_System_IConvertible_ToChar_m1489191771_AdjustorThunk
FI:__ZN9AudioClip7CleanupEv
wfi:__ZNK15dense_hashtableINSt3__24pairIK10KeyWrapperIP11Il2CppClassES4_EES5_N6il2cpp8metadata16SZArrayClassHashEN14dense_hash_mapIS5_S4_SA_NS5_14EqualsComparerINS9_19SZArrayClassCompareEEENS0_9allocatorIS7_EEE9SelectKeyESE_SG_E12test_deletedEj
qvc:__Z18Transfer_BlittableI8JSONReadLb0EdEvRK29SerializationCommandArgumentsR31RuntimeSerializationCommandInfo
Mbe:_SynchronizationAttribute_EnterContext_m1660729920
uQh:_Canvas_get_referencePixelsPerUnit_m3420541976
iEh:_Event_get_current_m2393892120
rIh:_VertexHelper_Clear_m627349662
$$h:__ZN6il2cpp2vm21ThreadPoolCompartment13QueueWorkItemEP17Il2CppAsyncResult
qpa:__ZNK9GfxDevice13GetViewMatrixEv
aQd:_UnmanagedMemoryStream_Dispose_m2681886347
Uhb:__ZN17RemapPPtrTransferC2E24TransferInstructionFlagsb
_Bd:_Convert_ToDecimal_m889385228
K0:__ZN8TypeTree8BlobReadERPKhS1_ib
opd:_Array_Reverse_m3714848183
h9c:_Dropdown_ClearOptions_m4085591601
m6c:_CanvasUpdateRegistry_InternalRegisterCanvasElementForGraphicRebuild_m3522560454
wgb:__ZN18LoadSceneOperation23GetAllowSceneActivationEv
mSa:__ZN6CameraD0Ev
wfa:__ZN31CanvasBatchIntermediateRenderer16StaticInitializeEPv
ix:__ZN7mecanim12AndValueMaskILb0EEEvPKNS_14ValueArrayMaskEPS1_
Pfb:__ZN14SafeBinaryRead21TransferSTLStyleArrayINSt3__26vectorIi13stl_allocatorIiL18MemLabelIdentifier13ELi16EEEEEEvRT_17TransferMetaFlags
bTf:_EncoderFallback__cctor_m3806755293
PLc:_raccess_guess_apple_double
RBa:__ZL18ProgramUniform1uivPK7ApiGLESjiihPKv
n6b:__ZN14Texture2DArray13RebuildMipMapEv
AVh:__ZN13Il2CppHashSetIPK17Il2CppGenericInstN6il2cpp8metadata21Il2CppGenericInstHashENS4_24Il2CppGenericInstCompareENSt3__29allocatorI10KeyWrapperIS2_EEEEC2EjRKS5_RKS6_
apb:__Z18Transfer_BlittableI14SafeBinaryReadLb1EaEvRK29SerializationCommandArgumentsR31RuntimeSerializationCommandInfo
Bri:__ZN6il2cpp2gc16GarbageCollector14RemoveWeakLinkEPPv
una:__ZN9ShaderLab20SerializedSubProgram14AddVectorParamEPKcii15ShaderParamTypei
ePg:_List_1_GetEnumerator_m563931292_gshared
yRc:__ZN2UI14CanvasRenderer12CleanupClassEv
GAd:_Enumerator__ctor_m3362421874
lAg:__Z117RuntimeInvoker_CSSSize_t3377836552_IntPtr_t_Single_t1397266774_Int32_t2950945753_Single_t1397266774_Int32_t2950945753PFvvEPK10MethodInfoPvPS4_
YRj:_emscripten_glIsFramebuffer__wrapper
Aoi:__ZN6il2cpp2vm6Object3BoxEP11Il2CppClassPv
kgi:__ZN6il2cpp2vm6Thread7SetNameEP12Il2CppThreadP12Il2CppString
VGb:__ZN13ScreenManager18SetAllowCursorLockEb
gT:__ZN11UnityEngine15CloudWebService10RestClientINS0_23WebRequestRestHeaderMapEE16SetRequestHeaderERKN4core12basic_stringIcNS4_20StringStorageDefaultIcEEEESA_
Ufb:__ZN30RuntimeInitializeOnLoadManager15ClassMethodInfo8TransferI14SafeBinaryReadEEvRT_
xce:_ConstructionCall_InitDictionary_m2824447813
DP:__ZL22InitializeModule_Audiov
Smb:__ZN16MemoryFileSystem8IsLockedERK13FileEntryData
Dii:__ZN6il2cpp6icalls8mscorlib6System2IO6MonoIO5WriteEiP11Il2CppArrayiiPi
zLi:_Mathf_InverseLerp_m4155825980
wqg:__Z92RuntimeInvoker_RuntimeObject_RuntimeObject_RuntimeObject_SByte_t1669577662_SByte_t1669577662PFvvEPK10MethodInfoPvPS4_
Zk:_emscripten_glBindRenderbuffer
PMg:_List_1_System_Collections_IList_Insert_m1011775503_gshared
Qxi:_GC_dirty_init
Vli:__ZN6il2cpp2vm5Image33GetCachedMemoryMappedResourceFileEP24Il2CppReflectionAssembly
moi:__ZN6il2cpp2vm5Field14GetValueObjectEP9FieldInfoP12Il2CppObject
WQc:__ZNK2UI6Canvas16GetTargetDisplayEv
NZf:_TimeSpan_CompareTo_m3633415627_AdjustorThunk
mda:__ZN6Object17FindObjectsOfTypeEPKN5Unity4TypeER13dynamic_arrayIPS_Lj4EEb
Coe:_MaskableGraphic_OnTransformParentChanged_m329502413
fEb:__ZN13MonoBehaviour17RemoveFromManagerEv
wVi:_Vector3_get_Item_m668685504_AdjustorThunk
TSa:__ZN12ImageFilters14AddImageFilterERK11ImageFilter
Kae:_Context_NotifyDynamicSinks_m1841702879
KEh:_GUIUtility_get_pixelsPerPoint_m2369948084
eEf:_WindowsIdentity_System_Runtime_Serialization_IDeserializationCallback_OnDeserialization_m3428853631
rW:__ZN13MemoryManagerC2Ev
KFa:__ZN12SkinMeshInfo10DeallocateEPS_
dse:_ScrollRect_SetDirty_m214267968
wPa:__ZN20ArchiveStorageReader28AcquireAndPrefillUnusedBlockEjPNS_11CacheResultE
brd:_Boolean_System_IConvertible_ToDateTime_m603510836
h6b:__Z12NHxRoughnessIA4_tEvP9Texture2DPT_iiii
Vze:_ASN1_get_Value_m1857007406
Gda:__ZN18AsyncUploadManagerD2Ev
ukb:__ZN9Transform5ResetEv
Vqf:_Decimal_op_Explicit_m1842265407
Mvb:__Z22TransferField_NonArrayI24GenerateTypeTreeTransfer16Converter_StringEvRK23StaticTransferFieldInfoR31RuntimeSerializationCommandInfoRT0_
kRh:_CanvasRenderer_SetAlphaTexture_m2009567627
yBc:_UNITY_FT_CMap_New
EGe:_InternalEnumerator_1_get_Current_m4241643334_AdjustorThunk
OGb:__Z17MainLoopKeepalivePv
UMe:_InternalEnumerator_1_get_Current_m1588647567_AdjustorThunk
fDj:_printf_core
D3i:__ZL51GCHandle_t3351438187_CustomAttributesCacheGeneratorP21CustomAttributesCache
Sie:_InputField_get_caretBlinkRate_m3620074524
OOb:__Z19SetupLODFadeKeywordR17ShaderPassContexti
aAf:_RSAPKCS1SignatureFormatter_CreateSignature_m3191980616
r$a:__ZN10builtintex16GetDefaultTexEnvE16TextureDimensionb
mFa:__ZL25CheckCopyTextureArgumentsRK7ApiGLESP11GLESTextureS3_
LQj:_glDeleteShader__wrapper
jvb:__Z29Transfer_Blittable_ArrayFieldI24GenerateTypeTreeTransferyEvRT_R9ArrayInfoRK23StaticTransferFieldInfo
qJ:__ZN4FMOD7SystemI9playSoundE17FMOD_CHANNELINDEXPNS_5SoundEbPPNS_7ChannelE
mId:_Int64_GetHashCode_m703091690
Dwf:_CultureInfo_set_DateTimeFormat_m1843682751
bEh:_Event_get_commandName_m4275147343
hx:__ZN27AnimationLayerMixerPlayable17LayerMixerProcessEP35AnimationPlayableEvaluationConstantP32AnimationPlayableEvaluationInputP33AnimationPlayableEvaluationOutputM17AnimationPlayableFvS1_S3_S5_EMS_FvS1_S3_S5_ESA_MS_FvS5_S1_S3_S5_ifE
arf:_Decimal_op_Implicit_m4256234411
RH:__ZN12AudioManager23VirtualRedirectTransferER18StreamedBinaryReadILb0EE
Zmg:__Z60RuntimeInvoker_RuntimeObject_RuntimeObject_Int16_t2552820387PFvvEPK10MethodInfoPvPS4_
XNd:_StreamReader__ctor_m3941437302
clc:__Z57Register_UnityEngine_Transform_INTERNAL_get_localRotationv
rJj:dynCall_viif
ls:__ZN7mecanim4hand8HandPoseC2Ev
OOd:_StringReader_ReadLine_m2337102945
Rsb:__ZL26Transfer_SimpleNativeClassI17RemapPPtrTransfer8GradientLb0EEvRK29SerializationCommandArgumentsR31RuntimeSerializationCommandInfo
v4b:__ZZL31RegisterRectTransformPropertiesR22GenericPropertyBindingEN32Wrapper_RectTransformAnchorMaxx013SetFloatValueEPvf
Bzd:_SyncHashtable_Add_m3016107307
Uy:__ZN17AnimationPlayable26DisconnectNoTopologyChangeEPS_i
Krd:_Boolean_Equals_m2410333903_AdjustorThunk
sTg:_List_1_System_Collections_IList_Contains_m2131605266_gshared
bU:__ZN13UploadHandlerD2Ev
PHj:dynCall_viiiiiffi
SBj:_Hacker__ctor_m518604791
zc:_emscripten_glBlendFuncSeparate
O$g:_Collection_1_Add_m809543251_gshared
F_:__Z20scripting_string_newPKc
Ajc:__Z43Material_CUSTOM_Internal_CreateWithMaterialP12Il2CppObjectS0_
jCh:_Parser_IsSingleline_m326238187
Fxd:_CollectionBase_get_Count_m1708965601
pid:_HMAC__ctor_m97939284
ali:__ZNK24NamespaceAndNamePairHashclERKNSt3__24pairIPKcS3_EE
i3f:_ValueType_DefaultEquals_m2927252100
Vqc:__ZN9JSONWrite12AppendToNodeEPN5Unity9rapidjson12GenericValueINS1_4UTF8IcEE13JSONAllocatorEEPKcRS6_
aAe:_ASN1_ToString_m1340204511
c5e:_X509Store_get_Certificates_m2149701265
nvj:__ZL144StandaloneInputModule_t2760469101_CustomAttributesCacheGenerator_StandaloneInputModule_t2760469101____allowActivationOnMobileDevice_PropertyInfoP21CustomAttributesCache
UUf:_StringBuilder_set_Chars_m3548656617
g3h:__ZN6il2cpp2os4File17GetFileAttributesERKNSt3__212basic_stringIcNS2_11char_traitsIcEENS2_9allocatorIcEEEEPi
_B:__ZNSt3__26__sortIRPFbPKN8Animator11AnimatorJobES4_EPS4_EEvT0_S9_T_
WG:__ZN17AudioCustomFilterD2Ev
ZGg:__Z56RuntimeInvoker_Void_t1185182177_MonoResource_t4103430009PFvvEPK10MethodInfoPvPS4_
Jvi:_GC_unpromote_black_lists
DDa:__ZN18GfxFramebufferGLES18ReleaseFramebufferEP17RenderSurfaceBaseP14GfxContextGLES
guc:__Z18Transfer_BlittableI8JSONReadLb1EiEvRK29SerializationCommandArgumentsR31RuntimeSerializationCommandInfo
qV:__ZN19CloudServiceHandler34HandleSaveFileWebRequestPlayerLoopEv
Gy:__ZN7mecanim21ValueArrayReverseCopyEPKNS_18ValueArrayConstantEPKNS_10ValueArrayES2_PS3_PKi
EG:__Z31GetParentSampleClipFromInstancePN11SoundHandle8InstanceE
Y3b:__ZNK28RectTransformPropertyBinding13GetFloatValueERKN11UnityEngine9Animation10BoundCurveE
hYb:__ZN6Camera22StandaloneCustomRenderENS_10RenderFlagEP6ShaderRKN4core12basic_stringIcNS3_20StringStorageDefaultIcEEEEPNS_21PerformRenderFunctionE
xOf:_Array_InternalArray__IndexOf_TisKeyValuePair_2_t2401056908_m4118889689_gshared
kfb:__ZNSt3__26vectorI4PPtrI6ObjectE13stl_allocatorIS3_L18MemLabelIdentifier52ELi16EEE6assignINS_11__wrap_iterIPS3_EEEENS_9enable_ifIXaasr21__is_forward_iteratorIT_EE5valuesr16is_constructibleIS3_NS_15iterator_traitsISD_E9referenceEEE5valueEvE4typeESD_SD_
FCi:__ZN6il2cpp2os16ThreadLocalValue8GetValueEPPv
f4e:_X509Certificate2_get_PublicKey_m370665820
Lyc:_cff_slot_init
TZh:__ZN6il2cpp2vm13MetadataCache14GetGenericInstEPKPK10Il2CppTypej
GP:__ZN13AudioListener17ReadExtensionNameEi
Lb:invoke_iiidii
cp:setThrew
_5b:__ZL21BuildEmptyCubeTexturePKci11ColorRGBA3217TextureColorSpace
_ha:__ZN14SafeBinaryRead21TransferSTLStyleArrayINSt3__26vectorIN9ShaderLab20SerializedSubProgramENS1_9allocatorIS4_EEEEEEvRT_17TransferMetaFlags
WOf:_Array_InternalArray__IndexOf_TisX509ChainStatus_t133602714_m48896230_gshared
$Na:__ZN19dynamic_block_arrayI13FileEntryInfoLj32EE4growEj
puc:__Z15Transfer_StringI8JSONReadLb1EEvRK29SerializationCommandArgumentsR31RuntimeSerializationCommandInfo
mAa:__ZN6prcoreL17RemapGenericFloatI17TexFormatRGBFloat15TexFormatRGHalfEEvPKNS_9InnerInfoE
SDc:_sfnt_load_face
mLc:_UNITY_FT_Render_Glyph_Internal
Rhi:__ZNSt3__212basic_stringIDsNS_11char_traitsIDsEENS_9allocatorIDsEEE21__grow_by_and_replaceEjjjjjjPKDs
SBc:_UNITY_ft_service_list_lookup
Xnc:__ZN5IMGUI21SelectReceivingWindowER8GUIStateb
Fid:_HMAC_Initialize_m3157696427
Tpf:_Decimal_System_IConvertible_ToUInt64_m1323635232
hEj:___strchrnul
SV:__ZN13BaseAllocator13TryDeallocateEPv
_2e:_X509SubjectKeyIdentifierExtension__ctor_m2055934916
aUa:__ZNSt3__26vectorIN12FlareManager10FlareEntryENS_9allocatorIS2_EEE21__push_back_slow_pathIKS2_EEvRT_
bDj:_sprintf
Bec:__ZN9Scripting25CreateNullExceptionObjectE18ScriptingObjectPtr
kCe:_PrivateKeyInfo_DecodeRSA_m2889346634
yH:__ZN13AudioListener17RemoveFromManagerEv
td:_glAttachShader
k7c:_ContentSizeFitter_SetLayoutHorizontal_m2833273874
jY:__ZNK6Camera19GetProjectionMatrixEv
zxj:__ZL70InputField_t3762917431_CustomAttributesCacheGenerator_m_SelectionColorP21CustomAttributesCache
sje:_InputField_SetToCustomIfContentTypeIsNot_m2813459946
Olj:__ZL70RuntimePlatform_t4159857903_CustomAttributesCacheGenerator_FlashPlayerP21CustomAttributesCache
vyf:_Guid_GetHashCode_m3042133858_AdjustorThunk
e_:__Z38PreallocateObjectFromPersistentManagerib
Z7e:_Interpreter_Backtrack_m2828876822
X2a:__ZNK9Texture2D20GetUnscaledTextureIDEv
Rfd:_SByte_System_IConvertible_ToType_m4075253447
aPj:_glFenceSync__wrapper
mUi:_Transform_INTERNAL_get_worldToLocalMatrix_m2730237241
Ike:_InputField_IsValidChar_m1928072643
a3a:__ZNK9Texture2D26CanReuploadDataToGfxDeviceEv
e8i:__ZL63CodeAccessPermission_t2681295399_CustomAttributesCacheGeneratorP21CustomAttributesCache
ghb:__Z29ClearRepeatingLogMessageStatev
fLe:_InternalEnumerator_1_get_Current_m3191242573_gshared
Msd:_Byte_Equals_m1161982810_AdjustorThunk
Zjf:_SslCipherSuite_ComputeMasterSecret_m3963626850
YCi:__ZNK6il2cpp8metadata21Il2CppGenericInstHashclEPK17Il2CppGenericInst
HJa:__ZN7ApiGLESD2Ev
hRa:__ZN9Transform47ClearTransformHierarchyAndApplyToSerializedDataEv
Evc:__ZN8JSONRead21TransferSTLStyleArrayINSt3__26vectorI8MonoPPtr13stl_allocatorIS3_L18MemLabelIdentifier1ELi16EEEEEEvRT_17TransferMetaFlags
sSa:__ZN6Camera23VirtualRedirectTransferER19StreamedBinaryWriteILb0EE
IJj:dynCall_fidi
G4h:__ZN15dense_hashtableINSt3__24pairIK10KeyWrapperINS1_IPK9FieldInfoP11Il2CppClassEEEjEES9_17ReflectionMapHashIS8_EN14dense_hash_mapIS9_jSD_NS9_14EqualsComparerINS0_8equal_toIS8_EEEENS0_9allocatorISB_EEE9SelectKeyESI_SK_E12resize_deltaEjj
VEh:_GUILayoutEntry__ctor_m2229197035
m4:__ZN15dense_hashtableINSt3__24pairIKN9ShaderLab7Program23ShaderKeywordSetAndHashEPKNS2_10SubProgramEEES4_NS3_24ShaderKeywordHashFunctorEN14dense_hash_mapIS4_S8_SA_NS0_8equal_toIS4_EE13stl_allocatorIS9_L18MemLabelIdentifier67ELi16EEE9SelectKeyESD_SG_E15insert_noresizeERKS9_
zec:__ZNK13MonoBehaviour13GetScriptTypeEv
sZa:__ZN13RenderTexture12SetDimensionE16TextureDimension
pkf:_SslClientStream_set_ClientCertSelectionDelegate_m1261530976
je:_SDL_FreeRW
kSc:__Z34CanvasRenderer_Get_Custom_PropCullP12Il2CppObject
mN:__ZN20SoundChannelInstance8getDelayE14FMOD_DELAYTYPEPjS1_
D4:__ZNSt3__26vectorIN20GpuProgramParameters15StructParameterENS_9allocatorIS2_EEEC2ERKS5_
JEe:_ArrayReadOnlyList_1_Contains_m232667507_gshared
Osg:__Z77RuntimeInvoker_Boolean_t97287965_IntPtr_t_Int32_t2950945753_SByte_t1669577662PFvvEPK10MethodInfoPvPS4_
hOi:_PlayableHandle_GetPlayableType_m432385838_AdjustorThunk
bKc:__ZNSt3__26vectorIN20TextRenderingPrivate8FontImpl13CharacterInfoE13stl_allocatorIS3_L18MemLabelIdentifier1ELi16EEE8__appendEj
v:tempBigInt
Nkh:_Array_InternalArray__Insert_TisKeyframe_t4206410242_m1558638568_gshared
re:_emscripten_glVertexAttrib1fv
Hia:__ZNSt3__26vectorIN9ShaderLab20SerializedSubProgram12UAVParameterENS_9allocatorIS3_EEE7reserveEj
KGj:__ZSt11__terminatePFvvE
QJ:__ZN12AudioManager14systemCallbackEP11FMOD_SYSTEM24FMOD_SYSTEM_CALLBACKTYPEPvS3_
X8g:_ReadOnlyCollection_1_System_Collections_Generic_ICollectionU3CTU3E_Clear_m3451551308_gshared
W4c:_BaseMeshEffect_OnEnable_m3291426649
xF:__ZN10SampleClip23VirtualRedirectTransferER24GenerateTypeTreeTransfer
yxi:_clear_marks_for_block
DYa:__ZN16ReflectionProbes16UpdateSampleDataEv
Lwf:_CultureInfo_GetCultureInfo_m56098747
kVb:__Z20AddActiveLocalLightsR11CullResultsR27LocalLightCullingParametersPPK15SharedLightDataPK8Vector4fRK9IndexListPfRSA_R12ActiveLightsSG_P5RectTIfEP13TargetEyeMask
w$i:__ZL80Hashtable_t1853889766_CustomAttributesCacheGenerator_Hashtable__ctor_m1763145853P21CustomAttributesCache
VBd:_Convert_ToDecimal_m1284148187
E1g:_Collection_1__ctor_m3489157029_gshared
EMj:_emscripten_glRenderbufferStorage__wrapper
mbi:__ZNK6il2cpp2vm14TypeNameParser10NextWillBeEcb
mzc:_cf2_getNormalizedVector
Oe:_JS_Sound_Play
U9g:_ReadOnlyCollection_1_System_Collections_IList_set_Item_m1538987737_gshared
mha:__ZN9ShaderLab16SerializedShader8TransferI14SafeBinaryReadEEvRT_
lcd:_GridLayoutGroup_set_constraint_m3308895167
Qce:_ConstructionCallDictionary_SetMethodProperty_m3145285304
eHd:_Int32_System_IConvertible_ToUInt32_m3557270157
Jvg:__Z243RuntimeInvoker_Void_t1185182177_Int16_t2552820387_RuntimeObject_Int32_t2950945753_Int32_t2950945753_Int32_t2950945753_SByte_t1669577662_SByte_t1669577662_SByte_t1669577662_SByte_t1669577662_Int16_t2552820387_SByte_t1669577662_SByte_t1669577662PFvvEPK10MethodInfoPvPS4_
CFe:_InternalEnumerator_1_System_Collections_IEnumerator_get_Current_m1503522504_gshared
sB:__ZN7mecanim8skeleton13SkeletonAlignEPKNS0_8SkeletonERKN4math7_float4ES7_i
S6b:__ZN19ShaderPropertySheet16SetVectorIndexedEN9ShaderLab16FastPropertyNameEifRK8Vector4fNS_8SetFlagsE
F_f:_Type_get_IsAbstract_m1120089130
CVi:_Vector3_get_normalized_m2454957984_AdjustorThunk
IDh:_UriFormatException__ctor_m1115096473
jei:__ZN15dense_hashtableINSt3__24pairIK10KeyWrapperINS1_IP11Il2CppClassjEEES4_EES6_N6il2cpp8metadata14ArrayClassHashEN14dense_hash_mapIS6_S4_SB_NS6_14EqualsComparerINSA_17ArrayClassCompareEEENS0_9allocatorIS8_EEE9SelectKeyESF_SH_E9copy_fromERKSK_j
EGh:_GUIUtility_IsExitGUIException_m3644066650
ZU:__ZN11UnityEngine15CloudWebService14DataDispatcher4StopEv
Z6c:_ColorBlock_GetHashCode_m4264192507
VEd:_Int16_System_IConvertible_ToUInt64_m134975563
Jia:__ZNSt3__26vectorIN9ShaderLab20SerializedSubProgram12UAVParameterENS_9allocatorIS3_EEE8__appendEj
Pnc:__ZN5IMGUI9GUIWindow5OnGUIER8GUIState
jFf:_Single_System_IConvertible_ToDecimal_m325860800_AdjustorThunk
rRf:_Array_InternalArray__ICollection_CopyTo_TisSingle_t1397266774_m455540885_gshared
XMa:__ZN17ScriptingGCHandle7AcquireE18ScriptingObjectPtr25ScriptingGCHandleWeakness
avg:__Z74RuntimeInvoker_RuntimeObject_RuntimeObject_Int64_t3736567304_RuntimeObjectPFvvEPK10MethodInfoPvPS4_
cQc:__ZN2UI14CanvasRenderer14AttachToCanvasER8JobFencePNS_6CanvasENS0_15InstructionTypeE
EIj:dynCall_iifiii
mya:__Z21HasAlphaTextureFormat13TextureFormat
XO:__ZN12AudioManager6UpdateEv
fya:__ZN14ImageReference9BlitImageERKS_NS_8BlitModeE
Vs:__ZN8Animator12AddToManagerEv
V5e:_X509Chain__ctor_m2674663382
Y8g:_ReadOnlyCollection_1_System_Collections_Generic_IListU3CTU3E_Insert_m1121807192_gshared
$Eb:__ZN23CachedSerializationDataD2Ev
hXb:__ZNK25CameraStackRenderingState31CalculateStereoCameraTargetTypeEv
dYa:__ZN14RenderSettings23VirtualRedirectTransferER14SafeBinaryRead
dOe:_InternalEnumerator_1_get_Current_m114240259_gshared
Bqi:__ZN6il2cpp2os10ThreadImpl15CurrentThreadIdEv
Xkh:_Array_InternalArray__Insert_TisVector2_t2156229523_m2148694950_gshared
BBf:_SymmetricAlgorithm_get_Key_m3241860519
Mle:_U3CMouseDragOutsideRectU3Ec__Iterator1_Reset_m2233410497
MHc:_UNITY_tt_face_load_fpgm
bRa:__Z17IsObjectAvailablei
ocb:__ZN12InputManagerD0Ev
PWg:_Queue_1_Peek_m1713833142_gshared
VAi:__ZN6il2cpp6icalls8mscorlib6System11Diagnostics10StackTrace9get_traceEP15Il2CppExceptionib
qXf:_ExecutionContext_Capture_m681135907
UGe:_InternalEnumerator_1_System_Collections_IEnumerator_get_Current_m2889979481_AdjustorThunk
EFj:_posix_memalign
Zze:_ASN1_GetBytes_m3305539297
i_:__ZNK15MonoScriptCache7ReleaseEv
pUh:__ZN6il2cpp2vm5Class13HasReferencesEP11Il2CppClass
bg:_glBindTexture
UDj:_snprintf
KBg:__Z50RuntimeInvoker_RuntimeObject_Resources_t1597885468PFvvEPK10MethodInfoPvPS4_
UNj:_emscripten_glVertexAttrib1fv__wrapper
Gib:__Z36scripting_liveness_calculation_begin17ScriptingClassPtriPFvPP12Il2CppObjectiPvES3_PFvvES7_
ROh:_AudioExtensionManager_RemoveExtensionFromManager_m442924172
sMj:_emscripten_glGetProgramInfoLog__wrapper
UD:__ZN25AnimatedPropertyEvaluator29BindCurveToScriptingObjectPtrERKN13AnimationClip10FloatCurveEj18ScriptingObjectPtrb
e0:__ZN17PersistentManager23DestroyFromFileInternalEi
DHi:_Display__ctor_m501911701
G5g:_ReadOnlyCollection_1_System_Collections_Generic_IListU3CTU3E_Insert_m1020890112_gshared
i8c:_DefaultControls_SetDefaultTextValues_m1943359795
sQb:__Z19SetupMotionMatricesR6CameraR18RPDataMotionVector
WSh:__ZL7log2_64y
OC:__ZN26AnimatorControllerPlayable18PrepareForPlaybackERN7mecanim6memory9AllocatorE
kD:__ZN8Animator11AnimatorJob11AddPlayableEP17AnimationPlayablef
gcd:_GridLayoutGroup_get_cellSize_m2967185053
Wkf:_CurrentSystemTimeZone_GetUtcOffset_m340358963
Ruh:_PKCS12_Decrypt_m1280162536
bHe:_InternalEnumerator_1_get_Current_m3081223448_gshared
lEh:_Event_get_isMouse_m1058251071
nWa:__ZN10VertexDataC2ERKS_17ShaderChannelMask10MemLabelId
lxd:_CaseInsensitiveHashCodeProvider_AreEqual_m1790260777
tCc:_otv_JSTF_validate
G4:__ZN22CreateGpuProgramOutputC2Ev
OIi:_PersistentCallGroup_Initialize_m4253175514
ard:_Boolean_System_IConvertible_ToChar_m4279513009_AdjustorThunk
kyd:_Hashtable__ctor_m1763145853
cde:_LogicalCallContext__ctor_m1263247987
iGd:_NumberFormatter_ScaleOrder_m3813786990
lCe:_PrivateKeyInfo_DecodeDSA_m771724585
Z5h:__ZNK15dense_hashtableINSt3__24pairIK10KeyWrapperINS1_IPK10MethodInfoP11Il2CppClassEEEjEES9_17ReflectionMapHashIS8_EN14dense_hash_mapIS9_jSD_NS9_14EqualsComparerINS0_8equal_toIS8_EEEENS0_9allocatorISB_EEE9SelectKeyESI_SK_E23find_position_with_hashERSA_j
M7b:__ZN8GUILayer12CleanupClassEv
l1f:_UInt32_System_IConvertible_ToSByte_m1061556466
R9d:_WellKnownClientTypeEntry__ctor_m2471908952
oUh:__ZN6il2cpp2vm5Class4InitEP11Il2CppClass
ga:invoke_vidi
G$a:__ZN8Material17MainThreadCleanupEv
W7d:_RemotingServices_CreateClientProxyForContextBound_m783705199
$bc:__ZNK15GUIEventManager15GetEventAtIndexEi
tQc:__ZN2UI14CanvasRenderer17SyncDirtyElementsER8JobFence
mTe:_Enumerator_System_Collections_IEnumerator_get_Current_m3816090481_gshared
vti:__ZN6il2cpp5utils11StringUtils15StringDuplicateEPKc
f9f:_DefaultComparer_Equals_m2480133610_gshared
Y3:__ZNK9ShaderLab21ShaderRasterStateDesc16ToGfxRasterStateEPK19ShaderPropertySheetS3_R14GfxRasterState
Tnh:_Array_Sort_TisVector3_t3722313464_m1915176437_gshared
MCi:__ZN6il2cpp2os9EventImplC2Ebb
sQg:_List_1_get_Item_m2113769949_gshared
hUa:__ZN12FlareManager12RemoveCameraER6Camera
W4:__Z20IsMatrixBuiltinParamPKcPi
UCf:_String_memcpy4_m979367827
uVf:_UnicodeEncoding_GetBytesInternal_m1902824297
z6b:__ZN8Renderer19PostInitializeClassEv
UNf:_Array_FindIndex_TisRuntimeObject_m2504082708_gshared
Roc:__Z38Register_UnityEngine_Event_get_rawTypev
Iwh:_X509Chain_FindCertificateRoot_m1937726457
bzi:__ZN6il2cpp6icalls8mscorlib6System8Delegate23CreateDelegate_internalEP20Il2CppReflectionTypeP12Il2CppObjectP22Il2CppReflectionMethodb
nUe:_Enumerator_System_Collections_IEnumerator_get_Current_m921113401_AdjustorThunk
mWb:__ZNK13RendererScene22GetStaticBoundingBoxesEv
tEb:__ZN18DelayedCallManager18CancelCallDelayed2E4PPtrI6ObjectEPF15CallObjectStatePS1_PvES7_
CLi:_Matrix4x4_GetHashCode_m4034747639
JKa:__ZN25ThreadsafeLinearAllocator10ReallocateEPvji
rob:__Z18Transfer_BlittableI14SafeBinaryReadLb1E11QuaternionfEvRK29SerializationCommandArgumentsR31RuntimeSerializationCommandInfo
Gga:__ZN18SpriteAtlasManagerD0Ev
kab:__ZN10Matrix4x4f8TransferI14SafeBinaryReadEEvRT_
Rgd:_CryptographicUnexpectedOperationException__ctor_m2381988196
o9h:__ZN14dense_hash_mapI10KeyWrapperIPK22Il2CppGenericParameterEPK24MonoGenericParameterInfoN6il2cpp5utils11PointerHashIS2_EENS4_14EqualsComparerINSt3__28equal_toIS3_EEEENSD_9allocatorINSD_4pairIKS4_S7_EEEEE15set_deleted_keyERSJ_
IC:__ZN14AvatarPlayback8StopTimeEv
GJe:_InternalEnumerator_1_System_Collections_IEnumerator_get_Current_m4213507601_gshared
kba:__Z6AppendRKN4core12basic_stringIcNS_20StringStorageDefaultIcEEEEPKc
xGh:_GUIUtility_RemoveCapture_m1294193818
gua:__ZN7ApiGLES18ClearBufferSubDataEjN2gl12BufferTargetEll
fgc:__Z37Camera_Get_Custom_PropAllCamerasCountv
H8a:__ZN14Texture2DArray8TransferI18StreamedBinaryReadILb0EEEEvRT_
tUb:__Z18ApplyOcclusionMaskR19ProbeOcclusionCacheRK17LightProbeContextRK10RenderNodeb
nJc:_Split_Cubic
cb:invoke_fiiii
jle:_InputField_OnSubmit_m3583210804
VCh:_Uri_CheckHostName_m2213216182
RNj:_emscripten_glBindRenderbuffer__wrapper
wph:_Mesh_SetUvsImpl_TisVector2_t2156229523_m3009194955_gshared
h3f:_ValueType_InternalEquals_m1384040357
Vnh:_Array_Sort_TisVector4_t3319028937_TisVector4_t3319028937_m4254533673_gshared
wvd:_ArrayListWrapper_Contains_m2641184447
$Ic:_ft_black_render
jsg:__Z177RuntimeInvoker_Int32_t2950945753_RuntimeObject_Int32_t2950945753_Int32_t2950945753_RuntimeObject_Int32_t2950945753_EncoderFallbackBufferU26_t2343550713_CharU5BU5DU26_t3299466565PFvvEPK10MethodInfoPvPS4_
OJj:dynCall_viiifi
QCa:__ZN18GfxFramebufferGLES20ActiveContextChangedEPP17RenderSurfaceBaseS2_
HCa:__Z19PluginsRenderMarkeri
BE:__ZN10HumanTrait18InitializeBoneNameEv
Qia:__ZNSt3__26vectorIN9ShaderLab20SerializedSubProgram15StructParameterENS_9allocatorIS3_EEE6assignINS_11__wrap_iterIPS3_EEEENS_9enable_ifIXaasr21__is_forward_iteratorIT_EE5valuesr16is_constructibleIS3_NS_15iterator_traitsISC_E9referenceEEE5valueEvE4typeESC_SC_
_li:__ZNSt3__214__split_bufferIN6il2cpp2vm5Image20EmbeddedResourceDataERNS_9allocatorIS4_EEEC2EjjS7_
cH:__ZN12AudioManager17RemoveAudioSourceEP11AudioSource
d5e:_X509Certificate2Collection_Add_m3151757943
QRe:_Comparer_1__cctor_m951016718_gshared
pxd:_CaseInsensitiveHashCodeProvider_get_DefaultInvariant_m4264275163
Bsg:__Z195RuntimeInvoker_Int32_t2950945753_RuntimeObject_Int32_t2950945753_Int32_t2950945753_Int32_t2950945753_RuntimeObject_DecoderFallbackBufferU26_t3866396827_ByteU5BU5DU26_t4057885439_SByte_t1669577662PFvvEPK10MethodInfoPvPS4_
NQ:__ZN5physx14PxLightCpuTask12addReferenceEv
XVa:__ZNK15InstancingProps35FillInstanceBufferDispatchConstantsIN10Instancing14RenderLoopArgsEEEvPPvjjRK19ShaderPropertySheetRKT_
DFg:__Z86RuntimeInvoker_Int32_t2950945753_Color32_t2600501292_Color32_t2600501292_RuntimeObjectPFvvEPK10MethodInfoPvPS4_
j5a:__ZN21EnlightenSceneMapping8TransferI19StreamedBinaryWriteILb0EEEEvRT_
Nni:__ZN6il2cpp2gc16GarbageCollector19InitializeFinalizerEv
Iy:__ZN7mecanim8skeleton18CreateSkeletonMaskEjPKNS0_19SkeletonMaskElementERNS_6memory9AllocatorE
unc:__ZN10GUIManager10DoGUIEventER10InputEventb
jub:__Z35Transfer_Blittable_FixedBufferFieldI24GenerateTypeTreeTransferxEvRK29SerializationCommandArgumentsR31RuntimeSerializationCommandInfo
hDc:_otv_LangSys_validate
yQi:_RectOffset_get_right_m2294081512
klh:_Array_InternalArray__set_Item_TisLink_t544317964_m1234244240_gshared
SHc:_UNITY_TT_Init_Glyph_Loading
tPb:__Z20CalculateSqrDistanceRK8Vector3fRK4AABB
Bed:_SerializationInfo_GetBoolean_m1756153320
BL:__Z32AudioMixerDuckingProcessCallbackP21UnityAudioEffectStatePfS1_jii
hMi:_Mesh_get_uv2_m3615020997
D5b:__ZN26CustomRenderTextureManagerD2Ev
hic:__Z32Input_Get_Custom_PropInputStringv
fag:_EqualityComparer_1_System_Collections_IEqualityComparer_Equals_m4172006498_gshared
WH:__ZN12AudioManager8TransferI24GenerateTypeTreeTransferEEvRT_
oLi:_Mathf_Round_m4098141538
kxa:__Z25GetBytesFromTextureFormat13TextureFormat
ohi:__ZN6il2cpp6icalls8mscorlib6System9Threading6Thread20Thread_free_internalEP12Il2CppThreadi
RHj:dynCall_iiffi
S$e:__KeysEnumerator_get_Current_m2996478063
ND:__ZN16MecanimAnimation25RegisterIAnimationBindingEPKN5Unity4TypeEiP17IAnimationBinding
W$:__Z32scripting_class_get_assemblyname17ScriptingClassPtr
qUc:__ZN11UnityEngine15PlatformWrapper15GetVRDeviceNameEv
wBg:__Z99RuntimeInvoker_Boolean_t97287965_Int32_t2950945753_PointerEventDataU26_t867828220_SByte_t1669577662PFvvEPK10MethodInfoPvPS4_
mIe:_InternalEnumerator_1_get_Current_m2128158355_AdjustorThunk
LIa:__ZN9GfxDevice21RegisterNativeTextureE9TextureIDi16TextureDimension
Sad:_GraphicRegistry__ctor_m1851575309
rAi:__ZN6il2cpp6icalls8mscorlib6System10Reflection4Emit11TypeBuilder20create_generic_classEP27Il2CppReflectionTypeBuilder
oAf:_SHA1Internal_FillBuff_m3615718415
ILf:_PlayableHandle_IsPlayableOfType_TisAnimationLayerMixerPlayable_t3631223897_m201603007_gshared
qQ:__Z60Register_UnityEngine_AudioListener_GetNumExtensionPropertiesv
Wi:_emscripten_glUniformMatrix4fv
yei:__ZN15dense_hashtableINSt3__24pairIK10KeyWrapperINS1_IP11Il2CppClassjEEES4_EES6_N6il2cpp8metadata14ArrayClassHashEN14dense_hash_mapIS6_S4_SB_NS6_14EqualsComparerINSA_17ArrayClassCompareEEENS0_9allocatorIS8_EEE9SelectKeyESF_SH_E13set_empty_keyERKS8_
ljb:__ZN12ScriptMapperD2Ev
ERj:b100
kMi:_Mesh_get_colors32_m1253190811
rwi:_GC_stopped_mark
wDi:_AnimationCurve_Finalize_m2397002729
Cve:_Text_OnEnable_m616205807
GLg:__Z50RuntimeInvoker_RuntimeObject_ColorTween_t809614380PFvvEPK10MethodInfoPvPS4_
Pdd:_SerializationCallbacks__cctor_m1674315180
vkc:__Z52Register_UnityEngine_RenderTexture_Internal_GetWidthv
Qla:__ZN9ShaderLab20SerializedSubProgram16TextureParameter8TransferI19StreamedBinaryWriteILb0EEEEvRT_
mKa:__ZNK7Hash12812PackToUInt32Ev
xwd:_SynchronizedArrayListWrapper_IndexOf_m3642674350
J1:__ZNSt3__227__insertion_sort_incompleteIRNS_6__lessI14ObjectLoadDataS2_EEPS2_EEbT0_S6_T_
fV:__ZN11UnityEngine15CloudWebService16SessionContainer8AddEventEPNS0_14CloudEventInfoE
AHa:__Z4TrimRKN4core12basic_stringIcNS_20StringStorageDefaultIcEEEES5_
Poh:_Dictionary_2_Do_ICollectionCopyTo_TisKeyValuePair_2_t3842366416_m1399105608_gshared
p4e:_X509Certificate2_Import_m4026562329
_Oj:_glGetStringi__wrapper
f7a:__ZN10VertexData8TransferI14SafeBinaryReadEEvRT_
kJ:__ZN4FMOD8ChannelI8setDelayE14FMOD_DELAYTYPEjj
fyi:_GC_malloc_atomic
K7d:_ActivatedClientTypeEntry_ToString_m2494181680
ceg:_HashSet_1_GetEnumerator_m3346268098_gshared
QAi:__ZN6il2cpp5utils6Memory13AlignedMallocEjj
ple:_Selectable_get_animator_m2899312855
JGi:__ZN23GenericVirtFuncInvoker5I19CSSSize_t3377836552ififiE6InvokeEPK10MethodInfoP12Il2CppObjectififi
_Y:__ZL20SortItemByInstanceIDRKN18AwakeFromLoadQueue4ItemES2_
iVi:_Vector2_op_Multiply_m2347887432
i0e:_TypeConverterAttribute__ctor_m1774069684
Ty:__ZNK34AnimationStateMachineMixerPlayable26GetInterruptedPosePlayableEv
$Wc:__ZN20UnityConnectSettings8TransferI24GenerateTypeTreeTransferEEvRT_
VA:__ZN34BlobWriteTransferSTLStyleArrayImplI22OffsetPtrArrayTransferIbEEclERS1_17TransferMetaFlagsR9BlobWrite
Cld:_Byte_ToString_m4063101981
NRd:_MonoType_GetConstructors_m2574682189
_0e:_ServicePointManager_FindServicePoint_m4119451290
Qca:__ZL31InitializeRendererUpdateManagerPv
SWd:_ParameterInfo__ctor_m2779026345
jje:_InputField_set_onValueChange_m1251390545
gRc:__ZN2UI13CanvasManager14GetRenderOrderEPKNS_6CanvasE
fTd:_NumberFormatter_get_IsZeroInteger_m2263284741
gth:_X509Certificate_PEM_m2020851166
bSf:_Array_InternalArray__Insert_TisDateTime_t3738529785_m2308632330_gshared
Zcb:__ZN11TimeManager8TransferI19StreamedBinaryWriteILb0EEEEvRT_
rif:_TlsServerCertificateRequest_ProcessAsTls1_m3214041063
DDc:_compare_uni_maps
fVc:__ZN11UnityEngine15PlatformWrapper27GetGraphicsCapsSupportFlagsEv
Mxb:__ZN12NativeBufferI16Converter_StringE15SetupForWritingER9ArrayInfo
Zfa:__ZN13RuntimeStaticI18AssetBundleManagerLb1EE16StaticInitializeEPv
vLj:___cxa_end_catch__wrapper
lud:_Char_ToString_m278452217
rkg:__Z32RuntimeInvoker_Boolean_t97287965PFvvEPK10MethodInfoPvPS4_
uaf:_BigInteger_op_RightShift_m460065452
cFb:__ZN13MonoBehaviour22DoScriptRebuildWarningEv
hgc:__Z38Camera_CUSTOM_INTERNAL_CALL_RaycastTryP12Il2CppObjectRK3Rayfi
qgi:__ZN6il2cpp6icalls8mscorlib6System5Array13ClearInternalEP11Il2CppArrayii
Epe:_RectMask2D_get_rootCanvasRect_m2913509457
ANc:__Z38TextGenerator_Get_Custom_PropLineCountP12Il2CppObject
qsh:_InternalAsyncResult_SetComplete_m963842420
PTf:_Encoding_GetEncoding_m2801244948
woc:__ZN11IMGUIModule25GetGUIStyleScriptingClassEv
fGc:_tt_get_interface
ush:_SslStreamBase_EndRead_m495357226
$gi:__ZN6il2cpp5utils9PathUtils7CombineIcEENSt3__212basic_stringIT_NS3_11char_traitsIS5_EENS3_9allocatorIS5_EEEERKSA_SC_
euc:__ZN9JSONWrite8TransferI13dynamic_arrayIiLj4EEEEvRT_PKc17TransferMetaFlags
Uug:__Z64RuntimeInvoker_RuntimeObject_SByte_t1669577662_SByte_t1669577662PFvvEPK10MethodInfoPvPS4_
M9b:__ZN13PlayableGraph21InvalidateMultithreadEv
Qfg:_Enumerator_System_Collections_IEnumerator_get_Current_m713684915_AdjustorThunk
Dcg:_GenericComparer_1_Compare_m459680062_gshared
vYd:_EnumBuilder_GetConstructorImpl_m3068576149
I_:__Z18ConvertUTF16toUTF8PPKtS0_PPhS2_15ConversionFlags
Yri:__ZN6il2cpp2os20PathErrnoToErrorCodeERKNSt3__212basic_stringIcNS1_11char_traitsIcEENS1_9allocatorIcEEEEi
pxj:__ZL68InputField_t3762917431_CustomAttributesCacheGenerator_m_KeyboardTypeP21CustomAttributesCache
JSh:__ZL16my_g_bit_nth_msfj
kWg:_Enumerator_MoveNext_m3662315381_AdjustorThunk
$hf:_TlsClientFinished_ProcessAsTls1_m2429863130
FNb:__Z23SetupStereoFlareElementP11FlareVertexRK8Vector2fS3_S3_RK11ColorRGBA32RK10Matrix4x4fRK8Vector3fb
sa:invoke_iiiifiiii
pje:_InputField_EnforceContentType_m2436948794
THf:_String_Join_m2050845953
jVe:_ShimEnumerator_MoveNext_m2406150314_gshared
JDa:__ZL19BlitFramebufferImplRN4gles23BlitFramebufferDrawQuadER9GfxDevice9TextureIDRK8Vector4f
h5h:__ZN15dense_hashtableINSt3__24pairIK10KeyWrapperIPK10Il2CppTypeEjEES6_N6il2cpp8metadata14Il2CppTypeHashEN14dense_hash_mapIS6_jSB_NS6_14EqualsComparerINSA_26Il2CppTypeEqualityComparerEEENS0_9allocatorIS8_EEE9SelectKeyESF_SH_E4findERS7_
BIj:dynCall_viiiiiiiiiiiiii
wHc:_UNITY_FT_List_Add
b6b:__ZN14Texture2DArray11InitTextureEiii13TextureFormatb
vgh:_InvokableCall_1_Invoke_m1524307439_gshared
VJd:_Directory_CreateDirectoriesInternal_m3735342319
zne:_LayoutUtility_GetLayoutProperty_m3731360667
dai:__ZN15dense_hashtableINSt3__24pairIK10KeyWrapperINS1_IPK11Il2CppImageP11Il2CppClassEEEjEES9_17ReflectionMapHashIS8_EN14dense_hash_mapIS9_jSD_NS9_14EqualsComparerINS0_8equal_toIS8_EEEENS0_9allocatorISB_EEE9SelectKeyESI_SK_E14squash_deletedEv
qBf:_SHAConstants__cctor_m1699027474
aY:__ZNK6Camera26GetStereoSingleCullEnabledEv
dgb:__Z14resize_trimmedINSt3__26vectorIN4core12basic_stringIcNS2_20StringStorageDefaultIcEEEE13stl_allocatorIS6_L18MemLabelIdentifier13ELi16EEEEEvRT_j
$ob:__Z18Transfer_BlittableI14SafeBinaryReadLb0EaEvRK29SerializationCommandArgumentsR31RuntimeSerializationCommandInfo
pud:_CharEnumerator_System_Collections_IEnumerator_get_Current_m1328529384
HKj:_emscripten_glFrustum__wrapper
URh:_AnimationLayerMixerPlayable__ctor_m860721801
aIc:_UNITY_FT_List_Iterate
Ktd:_Char_System_IConvertible_ToUInt64_m3536560782
w9f:_EqualityComparer_1__cctor_m3452395357_gshared
fJc:_Render_Single_Pass
kMb:__Z20SyncFenceCullResultsR11CullResults
mGa:__ZN15TextureTFMethod20IsBoneCountSupportedEi
ftf:_Double_ToString_m3828879243_AdjustorThunk
utb:__Z22TransferField_NonArrayI17RemapPPtrTransfer27Converter_SimpleNativeClassI8GUIStyleEEvRK23StaticTransferFieldInfoR31RuntimeSerializationCommandInfoRT0_
lPd:_TextReader_Synchronized_m3004980758
h1b:__ZNK17AnimationCurveTplIfE20EvaluateWithoutCacheEfRf
Fzg:__Z67RuntimeInvoker_Boolean_t97287965_Rect_t2360479859_SByte_t1669577662PFvvEPK10MethodInfoPvPS4_
vYa:__ZN19ShaderPropertySheet10SetTextureERK23FastTexturePropertyNameP7Texture
QVd:_CustomAttributeData__ctor_m2966233049
$5c:_CanvasUpdateRegistry_PerformUpdate_m1793997159
rhf:_Context_set_ClientWriteIV_m3405909624
Cbc:__ZN4Mesh10SetNormalsEPK8Vector3fj
tHh:_AesManaged_CreateDecryptor_m692040246
ns:__ZN17AnimationCurveTplIfE8TransferI14SafeBinaryReadEEvRT_
qlh:_Array_InternalArray__set_Item_TisInt16_t2552820387_m2544074754_gshared
Wnd:_ArithmeticException__ctor_m3551809662
uKd:_MonoIO_ExistsDirectory_m2182482658
Q_b:__Z29StdTemplateConversionFunctionIybEbPvR14SafeBinaryRead
G5a:__ZNSt3__26vectorIN15QualitySettings14QualitySettingENS_9allocatorIS2_EEE6assignIPS2_EENS_9enable_ifIXaasr21__is_forward_iteratorIT_EE5valuesr16is_constructibleIS2_NS_15iterator_traitsIS9_E9referenceEEE5valueEvE4typeES9_S9_
f:HEAPU32
sig:_List_1_CheckCollection_m1671972112_gshared
Cff:_CipherSuiteFactory_GetSsl3SupportedCiphers_m3757358569
GVf:_UnicodeEncoding_GetPreamble_m3002287178
xOh:_AudioSource_get_spatialize_m3609701298
izg:__Z52RuntimeInvoker_Color_t2555686324_Color32_t2600501292PFvvEPK10MethodInfoPvPS4_
nna:__ZN20GpuProgramParameters14AddVectorParamEPKcii15ShaderParamTypeiiiP16PropertyNamesSet
QYc:__ZNK12HeaderHelper3GetERKN4core12basic_stringIcNS0_20StringStorageDefaultIcEEEE
Ecb:__ZN9InputAxis8TransferI14SafeBinaryReadEEvRT_
tZ:__ZNK21ExecutionOrderManager30GetCustomAwakeFromLoadQueueForEPKN5Unity4TypeE
jYc:__Z27RegisterModule_UnityConnectv
y4b:__ZZL31RegisterRectTransformPropertiesR22GenericPropertyBindingEN32Wrapper_RectTransformSizeDeltax013GetFloatValueEPv
WMd:_MemoryStream_Expand_m3554752073
A8h:__ZN6il2cpp2vm10Reflection27GetCustomAttributesCacheForEP25Il2CppReflectionParameter
dSi:_ScriptableObject_CreateInstance_m2611081756
vge:_ObjectRecord_get_IsInstanceReady_m2304516395
cOe:_InternalEnumerator_1_System_Collections_IEnumerator_get_Current_m1635397542_gshared
BNd:_Path__cctor_m3273994011
QGj:__ZNSt11logic_errorD2Ev
Olf:_DateTimeUtils_CountRepeat_m3396693018
N3f:_WeakReference_get_Target_m168713953
EK:__ZN10ObjectPoolIN4FMOD12ChannelGroupENS0_13ChannelGroupIEE7SetSizeEi
eHh:_SymmetricTransform_FinalDecrypt_m764004682
Hqi:__ZN6il2cpp2os10ThreadImpl33UnregisterCurrentThreadForCleanupEv
Pzh:_Parser_ParseGroupingConstruct_m263270497
jai:__ZN14dense_hash_mapI10KeyWrapperINSt3__24pairIPK9EventInfoP11Il2CppClassEEEj17ReflectionMapHashIS8_ENS9_14EqualsComparerINS1_8equal_toIS8_EEEENS1_9allocatorINS2_IKS9_jEEEEE15set_deleted_keyERSH_
Zw:__ZN27AnimationLayerMixerPlayable22PrepareAnimationEventsEfR13dynamic_arrayI22AnimationClipEventInfoLj4EE
Lqb:__Z14resize_trimmedINSt3__26vectorI17AnimationCurveTplIfE13stl_allocatorIS3_L18MemLabelIdentifier1ELi16EEEEEvRT_j
fXb:__ZN25CameraStackRenderingState19SetupLastEyeCamerasERK11CameraStack
MPa:__Z12GUIDToStringRK9UnityGUID
Rjf:_RSASslSignatureDeformatter_SetKey_m2204705853
BG:__ZN11SoundHandleC2ERKS_
it:__ZN17AnimationPlayableC2E18DirectorPlayerType
lie:_InputField_set_shouldHideMobileInput_m1650743574
yZh:__ZNK6il2cpp5utils11collections13ArrayValueMapIPK10Il2CppType17Il2CppInteropData26InteropDataToTypeConverterNS_8metadata14Il2CppTypeLessENS8_26Il2CppTypeEqualityComparerEE10find_firstERKS5_
pLd:_FileStream_get_CanSeek_m331583577
Uhd:_DSAParameters_t1885824122_marshal_pinvoke_back
xz:__ZN8Animator22OnGraphTopologyChangedEP8Playablei
nze:_Kernel_MultiplyByDword_m1266935086
SCd:_Convert_ToInt64_m3916071102
QYb:__ZN6Camera25StandaloneRenderToCubemapEP7TextureiPFvPK9SceneNodePK4AABBR9IndexListPvESA_j
PGf:_String_Trim_m3384720403
hYa:__ZN14RenderSettings18TransferDeprecatedI14SafeBinaryReadEEvRT_
Isg:__Z93RuntimeInvoker_Single_t1397266774_SingleU26_t1922108698_Single_t1397266774_Single_t1397266774PFvvEPK10MethodInfoPvPS4_
WDh:_Event__ctor_m526447123
Rvg:__Z88RuntimeInvoker_RuntimeObject_RuntimeObject_RuntimeObject_RuntimeObject_Int32_t2950945753PFvvEPK10MethodInfoPvPS4_
B$f:_Type_ToString_m3975981286
lZ:__ZN12TLSAllocatorI14StackAllocatorE8AllocateEji
l$:__ZN16ScriptingManager18GetMonoScriptCacheEi
bAh:_ExpressionAssertion__ctor_m2554412824
gpb:__Z18Transfer_BlittableI14SafeBinaryReadLb1EyEvRK29SerializationCommandArgumentsR31RuntimeSerializationCommandInfo
SSd:_NullReferenceException__ctor_m3076065613
arc:__ZN8JSONRead8TransferIfEEvRT_PKc17TransferMetaFlagsb
b3e:_X509SubjectKeyIdentifierExtension_Decode_m1505409124
Yma:__ZL23AddGpuProgramParametersR20GpuProgramParametersRKNSt3__26vectorIN9ShaderLab20SerializedSubProgram15MatrixParameterENS1_9allocatorIS5_EEEERKNS2_INS4_15VectorParameterENS6_ISB_EEEEiiP16PropertyNamesSet
BAa:__ZN6prcoreL17RemapGenericFloatI18TexFormatARGBFloat17TexFormatRGBAHalfEEvPKNS_9InnerInfoE
sGf:_String_System_IConvertible_ToUInt16_m2888090399
nM:__ZN11AudioSource21ApplyCachedParametersE12SoundChannel
HUd:_Assembly_InternalGetType_m3065345470
jR:__ZN13Simd4iFactoryIN6detail9FourTupleEEC2Eiiii
V5d:_ResourceSet__ctor_m3356376607
Daf:_PrimeGeneratorBase_get_PrimalityTest_m2487240563
o4i:__ZL56_ParameterInfo_t489405856_CustomAttributesCacheGeneratorP21CustomAttributesCache
L4a:__ZN15SerializeTraitsI33EnlightenTerrainChunksInformationE8TransferI14SafeBinaryReadEEvRS0_RT_
P6b:__ZNK32RendererMaterialAnimationBinding9BindValueER6ObjectRKN11UnityEngine9Animation14GenericBindingERNS3_10BoundCurveE
nXe:_Transform_1_Invoke_m1731820209_gshared
dZa:__Z13GetIAnimationv
Kya:__ZL18stbir__support_onef
LFf:_Single_CompareTo_m189772128
Nsc:__Z26Transfer_UnityEngineObjectI9JSONWriteLb0EEvRK29SerializationCommandArgumentsR31RuntimeSerializationCommandInfo
oQe:_DefaultComparer_Compare_m4042058291_gshared
Pcd:_Image_set_overrideSprite_m3213596394
r0a:__ZNSt3__26vectorIN4core12basic_stringIcNS1_20StringStorageDefaultIcEEEE13stl_allocatorIS5_L18MemLabelIdentifier1ELi16EEE6assignINS_11__wrap_iterIPS5_EEEENS_9enable_ifIXaasr21__is_forward_iteratorIT_EE5valuesr16is_constructibleIS5_NS_15iterator_traitsISF_E9referenceEEE5valueEvE4typeESF_SF_
BPc:__ZNSt3__27__sort5IRNS_6__lessIN2UI14DepthSortEntryES3_EEPS3_EEjT0_S7_S7_S7_S7_T_
aLd:_FileLoadException_ToString_m2989457882
POh:_AudioListener_ClearExtensionProperties_m3849891634
Vyc:_UNITY_FT_DivFix
Zph:_Array_InternalArray__get_Item_TisDecimal_t2948259380_m3511003792_gshared
eDf:_SecurityElement_IsValidAttributeValue_m948345692
Oxc:__ZN19ControllerHitReport15onControllerHitERKN5physx16PxControllersHitE
Ba:invoke_vdd
yn:FUNCTION_TABLE_fiii
wPd:_TextWriter_Write_m2252948084
b9b:__Z19RegisterModule_Corev
eNc:__ZZ29InitializeTextRenderingModulevEN27cleanupAfterLoadRegistrator7ForwardEv
gx:__ZN27AnimationLayerMixerPlayable24ProcessAnimationLayerMixEP33AnimationPlayableEvaluationOutputP35AnimationPlayableEvaluationConstantP32AnimationPlayableEvaluationInputS1_if
Zuf:_CCFixed_FromDateTime_m3894190577
UWb:__Z29PluginsIssueRenderingExtEvent26UnityRenderingExtEventTypePv
Hng:__Z116RuntimeInvoker_RuntimeObject_RuntimeObject_Int32_t2950945753_RuntimeObject_RuntimeObject_RuntimeObject_RuntimeObjectPFvvEPK10MethodInfoPvPS4_
Zge:_MessageFormatter_ReadMethodCall_m2327590823
Q5b:__Z14RandomRotationP9Texture2DPhiiii
pQf:_Array_InternalArray__ICollection_Add_TisUInt16_t2177724958_m3981262878_gshared
Vpf:_Decimal_GetBits_m453754410
$dg:_HashSet_1_Contains_m3173358704_gshared
LHh:_ToggleEvent__ctor_m834619998
Dcf:_PKCS1_Encode_v15_m2077073129
wQi:_RectOffset_get_left_m1232181034
LBa:__ZN4gles14UseGLSLProgramER15DeviceStateGLESjbij
KQj:_glDeleteProgram__wrapper
ogc:__Z50Register_UnityEngine_Camera_INTERNAL_get_pixelRectv
Tza:__ZN6prcoreL18BlitFloatToIntegerERK14ImageReferenceRS0_
Sof:_DBNull_System_IConvertible_ToUInt32_m3784627971
ugf:_ClientSessionCache_Add_m964342678
WFa:__ZN13dynamic_arrayI15ComputeShaderCBLj4EE6assignEPKS0_S3_
AU:__ZN11UnityEngine15CloudWebService14RestDownloader17OnCompleteContentEv
_3h:__ZN15dense_hashtableINSt3__24pairIK10KeyWrapperINS1_IPK14Il2CppAssemblyP11Il2CppClassEEEjEES9_17ReflectionMapHashIS8_EN14dense_hash_mapIS9_jSD_NS9_14EqualsComparerINS0_8equal_toIS8_EEEENS0_9allocatorISB_EEE9SelectKeyESI_SK_E15insert_noresizeERKSB_
dUi:_Transform_get_localScale_m129152068
nqf:_DivideByZeroException__ctor_m3496959969
Qa:invoke_viffi
dz:__ZN17AnimationPlayable28UpdateInternalStateRecursiveILi1ELb0EEEvPK35AnimationPlayableEvaluationConstant
$ni:__ZN6il2cpp2gcL10CleanupCCWEPvS1_
Ta:invoke_vifff
wPj:_glGetVertexAttribiv__wrapper
Aeh:_Predicate_1_Invoke_m851618236_gshared
YFb:__ZN20LocalFileSystemWebGL6DeleteER13FileEntryDatab
Pe:_emscripten_glDisableVertexAttribArray
eLf:_Array_InternalArray__ICollection_Remove_TisSingle_t1397266774_m3361324455_gshared
Um:FUNCTION_TABLE_iiiifiiii
Hga:__ZN4core8hash_mapINS_12basic_stringIcNS_20StringStorageDefaultIcEEEE13dynamic_arrayI4PPtrI6SpriteELj4EENS_4hashIS4_EENSt3__28equal_toIS4_EEE12delete_nodesEv
jc:invoke_fifffi
I1g:_Collection_1_System_Collections_IList_Add_m2969482770_gshared
uJ:__ZN4FMOD5Sound15getNumSubSoundsEPi
fwa:__ZN4gles23ClearCurrentFramebufferEP7ApiGLESbbbRK10ColorRGBAffi
Cx:__ZN7mecanim12statemachine20CreateStateWorkspaceEjjjRNS_6memory9AllocatorE
yih:_UnityEvent_1_Invoke_m3604335408_gshared
_e:_emscripten_glDeleteObjectARB
b0c:_EventSystem_RaycastComparer_m3685368675
Vf:_IMG_Load
Brg:__Z131RuntimeInvoker_Void_t1185182177_RuntimeObject_RuntimeObject_Int64_t3736567304_ObjectU26_t2146539884_SerializationInfoU26_t419328957PFvvEPK10MethodInfoPvPS4_
wkc:__Z53Register_UnityEngine_RenderTexture_Internal_GetHeightv
LDe:_PKCS12_RemoveCertificate_m1421555398
Iue:_Slider_FindSelectableOnLeft_m1667068522
UAa:__ZN6prcoreL17RemapGenericFloatI17TexFormatRGBAHalf18TexFormatARGBFloatEEvPKNS_9InnerInfoE
moc:__Z14GetBuiltinSkini
Lde:_MethodDictionary_get_Item_m1201458851
FQ:___cxx_global_var_init_13
$Q:___cxx_global_var_init_10
aR:___cxx_global_var_init_11
vFf:_Single_System_IConvertible_ToSingle_m1939829239_AdjustorThunk
H7:___cxx_global_var_init_18
il:_JS_SystemInfo_GetBrowserVersionString
Pjb:__ZN2UI13RectTransform23VirtualRedirectTransferER14SafeBinaryRead
qYe:_Enumerator_MoveNext_m3045873697_gshared
Gxg:__Z31RuntimeInvoker_Rect_t2360479859PFvvEPK10MethodInfoPvPS4_
fka:__ZNSt3__26vectorIN9ShaderLab20SerializedSubProgramENS_9allocatorIS2_EEE6assignIPS2_EENS_9enable_ifIXaasr21__is_forward_iteratorIT_EE5valuesr16is_constructibleIS2_NS_15iterator_traitsIS9_E9referenceEEE5valueEvE4typeES9_S9_
Zuc:__Z18Transfer_BlittableI8JSONReadLb0E8BitFieldEvRK29SerializationCommandArgumentsR31RuntimeSerializationCommandInfo
kud:_Char_ToString_m3588025615_AdjustorThunk
Vdg:_HashSet_1_CopyTo_m2849056227_gshared
ezb:__ZL17Transfer_GUIStyleI18StreamedBinaryReadILb1EELb0EEvRK29SerializationCommandArgumentsR31RuntimeSerializationCommandInfo
Xye:_ModulusRing_Multiply_m343333088
zLh:__ZL25UnresolvedVirtualCall_149P12Il2CppObject17Color_t2555686324faaPK10MethodInfo
Wha:__ZN9ShaderLab14SerializedPass8TransferI14SafeBinaryReadEEvRT_
epc:__Z71Register_UnityEngine_GUILayoutUtility_INTERNAL_CALL_Internal_MoveWindowv
$O:__ZN12AudioManager16SetListenerPauseEb
agb:__ZNSt3__26vectorIN30RuntimeInitializeOnLoadManager9ClassInfoE13stl_allocatorIS2_L18MemLabelIdentifier13ELi16EEE6assignINS_11__wrap_iterIPS2_EEEENS_9enable_ifIXaasr21__is_forward_iteratorIT_EE5valuesr16is_constructibleIS2_NS_15iterator_traitsISC_E9referenceEEE5valueEvE4typeESC_SC_
SLf:_SetPropertyUtility_SetStruct_TisSingle_t1397266774_m2805350785_gshared
Chi:__ZN6il2cpp2vm9Exception25RaiseOutOfMemoryExceptionERKNS_5utils10StringViewIDsEE
da:invoke_viiiiiiiiiii
GCj:___syscall_ret
Uuh:_DeriveBytes_set_Salt_m1400945044
k2c:_PointerEventData_set_worldNormal_m1888481930
LAh:_AnchorInfo__ctor_m46784903
aff:_CipherSuiteCollection_get_Item_m4188309062
xrh:_SslHandshakeHash_HashFinal_m2573455475
Ebe:_SynchronizationAttribute_ReleaseLock_m1030353464
J7a:__ZN11ChannelInfo8TransferI19StreamedBinaryWriteILb0EEEEvRT_
pti:__ZN4utf88internal13validate_nextIPKcEENS0_9utf_errorERT_S5_Rj
yzj:__ZL53ToggleGroup_t123837990_CustomAttributesCacheGeneratorP21CustomAttributesCache
tOb:__ZN14qsort_internal13Partition3WayIP17RODataReplacementi19ROSorterReplacementEENSt3__24pairIT_S6_EES6_S6_T0_T1_
ale:_InputField_CreateCursorVerts_m3585916868
whc:__Z34Register_UnityEngine_Gradient_Initv
Sae:_Context_ToString_m1073616138
H6a:__ZN13ScreenManager23SetIsOrientationEnabledE18EnabledOrientationb
fie:_InputField_EnforceTextHOverflow_m3400115777
Jcb:__ZN9InputAxis8TransferI19StreamedBinaryWriteILb0EEEEvRT_
sFd:__Z33il2cpp_codegen_check_sub_overflowxx
AIj:dynCall_viififiii
_ie:_InputField_get_caretColor_m2973283772
ype:_RectMask2D_get_Canvas_m9990042
qrh:_Resources_ConvertObjects_TisRuntimeObject_m1486780300_gshared
xsf:_Double_System_IConvertible_ToInt16_m3591921965_AdjustorThunk
sch:_Comparison_1_Invoke_m2925518770_gshared
KQa:__ZN10GameObject23VirtualRedirectTransferER18StreamedBinaryReadILb0EE
PGh:_SymmetricTransform__ctor_m2693628991
MTd:_ObjectDisposedException__ctor_m1034312941
qg:_glFrontFace
sQi:_RectOffset__ctor_m3236153262
Aoe:_MaskUtilities_IsDescendantOrSelf_m2247511982
pTb:__ZNSt3__26vectorI16ShadowCasterData13stl_allocatorIS1_L18MemLabelIdentifier2ELi16EEE21__push_back_slow_pathIKS1_EEvRT_
ONc:__Z51Register_UnityEngine_TextGenerator_GetLinesInternalv
OXe:_Enumerator_get_Current_m2250080680_AdjustorThunk
AHh:_AesManaged_set_Key_m767972181
uEd:_Int16_System_IConvertible_ToBoolean_m1656400658_AdjustorThunk
rsd:_Byte_System_IConvertible_ToInt64_m285584218
yta:__ZN13GfxDeviceGLES22SetScissorRectPlatformERK5RectTIiE
jAa:__ZN6prcoreL17RemapGenericFloatI17TexFormatRGBFloat18TexFormatRGBAFloatEEvPKNS_9InnerInfoE
JPf:_Array_InternalArray__ICollection_Add_TisDictionaryEntry_t3123975638_m665385049_gshared
JQd:_MissingMemberException__ctor_m2707802176
bYc:__ZN20UnityConnectSettings10InitializeEv
pQh:_Canvas_get_renderMode_m841659411
R4a:__ZN15SerializeTraitsI13dynamic_arrayI28EnlightenRendererInformationLj8EEE19ResizeSTLStyleArrayERS2_i
ved:_SerializationInfo_GetValue_m42271953
sG:__ZN9AudioClip11CreateSoundEv
xai:__ZN14dense_hash_mapI10KeyWrapperINSt3__24pairIPK9FieldInfoP11Il2CppClassEEEj17ReflectionMapHashIS8_ENS9_14EqualsComparerINS1_8equal_toIS8_EEEENS1_9allocatorINS2_IKS9_jEEEEEC2EjRKSB_RKSF_
V5h:__ZNK15dense_hashtableINSt3__24pairIK10KeyWrapperINS1_IPK10MethodInfoP11Il2CppClassEEEjEES9_17ReflectionMapHashIS8_EN14dense_hash_mapIS9_jSD_NS9_14EqualsComparerINS0_8equal_toIS8_EEEENS0_9allocatorISB_EEE9SelectKeyESI_SK_E13find_positionERSA_
Fsa:__ZN13GfxDeviceGLES20CreateComputeProgramEPKhj
wXc:__ZN11UnityEngine7Connect16PersistentValues13RestoreValuesER8JSONRead
Byf:_Guid_BaseToString_m3600006650
qOa:__ZN20ArchiveStorageReader31TryToReadDirectoryFromBlockDataEyPKvj
Cki:__ZN6il2cpp2vmL11GetIdentityEP14Il2CppIUnknown
Wwi:_GC_push_gc_structures
jif:_TlsServerCertificate_ProcessAsTls1_m819212276
R7g:_ReadOnlyCollection_1_System_Collections_Generic_ICollectionU3CTU3E_Clear_m2102011098_gshared
aph:_Dictionary_2_Do_ICollectionCopyTo_TisRuntimeObject_m3942192587_gshared
_1h:__ZN6il2cpp6icalls8mscorlib6SystemL8IsPublicEPK9EventInfo
Raf:_PrimalityTests_RabinMillerTest_m2544317101
Z9e:_Kernel_DwordDivMod_m1540317819
fWg:_Enumerator_System_Collections_IEnumerator_get_Current_m1399273671_gshared
o0d:_TypeBuilder_GetPropertyImpl_m3104345782
b8a:__ZNSt3__213__stable_sortIRNS_4lessI4PPtrI11SpriteAtlasEEENS_11__wrap_iterIPS4_EEEEvT0_SA_T_NS_15iterator_traitsISA_E15difference_typeEPNSD_10value_typeEi
IId:_Int64_ToString_m2085073918_AdjustorThunk
$0d:_FieldInfo_GetFieldOffset_m1356898082
UOf:_Array_InternalArray__IndexOf_TisTypeTag_t3541821701_m2988972362_gshared
Z8:__ZN8keywords6CreateEPKc
XSh:__ZL7log2_32j
S:Math_imul
Eif:_TlsServerKeyExchange_Update_m453798279
U5a:__ZN11PlayerPrefs6GetIntERKN4core12basic_stringIcNS0_20StringStorageDefaultIcEEEEi
hff:_CipherSuiteCollection_System_Collections_IList_IndexOf_m1361500977
Bve:_Text_set_fontStyle_m648756124
wNc:__Z45TextGenerator_CUSTOM_INTERNAL_get_rectExtentsP12Il2CppObjectP5RectTIfE
glf:_DateTime__ctor_m2135476686_AdjustorThunk
NP:__ZN11AudioSource12SetAudioClipEP9AudioClip
jRi:_RectTransform_GetLocalCorners_m823861473
Fwd:_SynchronizedArrayListWrapper_GetEnumerator_m1579424644
u_:__ZN18ScriptingArguments9AddObjectE18ScriptingObjectPtr
MRc:__Z39CanvasGroup_Get_Custom_PropInteractableP12Il2CppObject
IR:__ZN11UnityEngine15CloudWebService16SessionContainerD2Ev
GXc:__ZL38InitializeUnityConnectScriptingClassesv
CXb:__ZN13ProbeRenderer8ConvolveEbijjb
tGh:_GUIUtility_set_systemCopyBuffer_m608712289
zwa:__ZN17GenericDynamicVBOC2ER9GfxDevice13GfxBufferModejj
nnc:__ZZN10GUIManager14InitGUIManagerEvEN41PreUpdateIMGUISendQueuedEventsRegistrator7ForwardEv
e2e:_ServicePointManager_get_SecurityProtocol_m966397919
dDa:__ZN13dynamic_arrayIN18GlslGpuProgramGLES9GLProgramELj4EE6insertEPS1_jRKS1_
ivf:_CCGregorianCalendar_day_from_fixed_m1674702403
$S:__ZN11UnityEngine15CloudWebService17SessionEventQueue10PurgeItemsEj
gYb:__ZN6Camera16StandaloneRenderENS_10RenderFlagEP6ShaderRKN4core12basic_stringIcNS3_20StringStorageDefaultIcEEEE
H4e:_X509Chain_PrepareForNextCertificate_m3691934993
yyb:__Z18Transfer_BlittableI18StreamedBinaryReadILb1EELb1EtEvRK29SerializationCommandArgumentsR31RuntimeSerializationCommandInfo
jrj:__ZL58EventType_t3528516131_CustomAttributesCacheGenerator_keyUpP21CustomAttributesCache
w6i:__ZL57X509Certificate_t713131622_CustomAttributesCacheGeneratorP21CustomAttributesCache
Vab:__ZN12BoneWeights48TransferI19StreamedBinaryWriteILb0EEEEvRT_
Kqa:__ZN9GfxDevice20DeallocRenderSurfaceEP17RenderSurfaceBase
bna:__ZN20GpuProgramParameters36UpdatePrepareValuesMaximumBufferSizeEv
w6g:_ReadOnlyCollection_1_System_Collections_IList_RemoveAt_m2129436005_gshared
Owe:_SimpleCollator_GetContraction_m2205549079
zbf:_ARC4Managed_GenerateKey_m1607343060
ZQf:_Array_InternalArray__ICollection_CopyTo_TisDecimal_t2948259380_m2749946216_gshared
jSa:__ZN12BaseRenderer23RendererBecameInvisibleEv
jKc:__ZN20TextRenderingPrivate8FontImpl13CharacterInfo8TransferI18StreamedBinaryReadILb0EEEEvRT_
Nvb:__Z29Transfer_Blittable_ArrayFieldI24GenerateTypeTreeTransferfEvRT_R9ArrayInfoRK23StaticTransferFieldInfo
Dba:__ZNSt3__26__treeINS_12__value_typeIN4core12basic_stringIcNS2_20StringStorageDefaultIcEEEES6_EENS_19__map_value_compareIS6_S7_NS_4lessIS6_EELb1EEE13stl_allocatorIS7_L18MemLabelIdentifier13ELi16EEE7destroyEPNS_11__tree_nodeIS7_PvEE
YIi:_UnityEvent_FindMethod_Impl_m2312362624
wZb:__ZN19CustomRenderTexture9AddParentE4PPtrIS_E
Y6:__ZN8Gradient8TransferI14SafeBinaryReadEEvRT_
AEi:_Vector3_GetHashCode_m2879461828
DFf:_Single_System_IConvertible_ToUInt64_m3299129161_AdjustorThunk
q0a:__ZNSt3__26vectorIN4core12basic_stringIcNS1_20StringStorageDefaultIcEEEE13stl_allocatorIS5_L18MemLabelIdentifier1ELi16EEE7reserveEj
L1e:_IPv6Address_AsIPv4Int_m844941024
iUd:_Random__ctor_m3209279193
djf:_RecordProtocol__cctor_m1280873827
KLi:_Matrix4x4_MultiplyPoint_m1575665487_AdjustorThunk
e7d:_Marshal__cctor_m4007734770
Qvi:_GC_new_free_list_inner
TCe:_SymmetricTransform_Random_m2004892672
z_i:__ZL72RuntimeCompatibilityAttribute_t1169614002_CustomAttributesCacheGeneratorP21CustomAttributesCache
ddf:_RSAManaged_DecryptValue_m1804388365
kFe:_InternalEnumerator_1_System_Collections_IEnumerator_get_Current_m2980550840_AdjustorThunk
Nvc:__ZN8JSONRead8TransferI10RectOffsetEEvRT_PKc17TransferMetaFlagsb
KS:__ZN9JSONWrite8TransferIN11UnityEngine15CloudWebService14DataErrorEvent15FileErrorDetailEEEvRT_PKc17TransferMetaFlags
tHd:_Int32_Parse_m2087562008
QNf:_Array_compare_TisVector4_t3319028937_m1974066282_gshared
T3d:_MonoProperty_GetAccessors_m412928203
$jh:_TweenRunner_1_Start_m3757154622_gshared
yJ:__ZN12SoundManager20RegisterModifiedClipEP10SampleClip
b8d:_RemotingServices_GetClientChannelSinkChain_m1499550585
IUd:_Assembly_FillName_m1660001542
d4i:__ZL56_EventBuilder_t2558055199_CustomAttributesCacheGeneratorP21CustomAttributesCache
SAf:_SHA384Managed_processBlock_m1272529332
cM:__ZN11AudioSource4PlayEd
mud:_Char_ToString_m278452217_AdjustorThunk
bXh:__ZN15dense_hashtableI10KeyWrapperIPK17Il2CppGenericInstES4_N6il2cpp8metadata21Il2CppGenericInstHashEN14dense_hash_setIS4_S7_NS4_14EqualsComparerINS6_24Il2CppGenericInstCompareEEENSt3__29allocatorIS4_EEE8IdentityESB_SE_E13set_empty_keyERKS4_
ilg:__Z63RuntimeInvoker_Char_t3634460470_Int16_t2552820387_RuntimeObjectPFvvEPK10MethodInfoPvPS4_
fCd:_Convert_ToDouble_m2924063577
kWd:_CustomAttributeNamedArgument_ToString_m1488801416_AdjustorThunk
XYe:_ValueCollection_System_Collections_Generic_ICollectionU3CTValueU3E_Remove_m3673494156_gshared
S2a:__ZN7Cubemap23VirtualRedirectTransferER18StreamedBinaryReadILb0EE
Mic:__ZNSt3__27__sort4IRNS_6__lessI11KeyframeTplIfES3_EEPS3_EEjT0_S7_S7_S7_T_
MGc:_Read_CVT
SL:__ZN11AudioSource23VirtualRedirectTransferER19StreamedBinaryWriteILb0EE
Qwe:_SimpleCollator_GetTailContraction_m2107754083
Bub:__ZL26Transfer_SimpleNativeClassI24GenerateTypeTreeTransfer17AnimationCurveTplIfELb0EEvRK29SerializationCommandArgumentsR31RuntimeSerializationCommandInfo
Nwc:__ZN8JSONRead21TransferSTLStyleArrayI13dynamic_arrayI9BoundsIntLj4EEEEvRT_17TransferMetaFlags
Z4a:__ZN24GenerateTypeTreeTransfer8TransferI13dynamic_arrayI33EnlightenTerrainChunksInformationLj4EEEEvRT_PKc17TransferMetaFlags
Ylf:_DateTimeFormatInfo__ctor_m3106345035
Zff:_TlsServerKeyExchange_verifySignature_m3412856769
n9f:_EqualityComparer_1_System_Collections_IEqualityComparer_GetHashCode_m4137147946_gshared
_ca:__ZN16LightmapSettings20DidChangeActiveSceneEP10UnitySceneS1_
sBj:__ZL59g_AssemblyU2DCSharp_Assembly_CustomAttributesCacheGeneratorP21CustomAttributesCache
B2h:__ZN6il2cpp5utils9PathUtils8BasenameIcEENSt3__212basic_stringIT_NS3_11char_traitsIS5_EENS3_9allocatorIS5_EEEERKSA_
Rfe:_RemotingProxy__cctor_m4096951805
Soc:__Z35Register_UnityEngine_Event_get_typev
Nhi:__ZN6il2cpp2vm9Exception23GetInvalidCastExceptionERKNS_5utils10StringViewIDsEE
ez:__ZN8Animator28BuildControllerPlayableCacheEv
bZ:__Z63ThreadAndSerializationSafeCheckGetMonoBehaviourBeingTransferredv
Xrf:_StackTrace__ctor_m206492268
CNg:_List_1_set_Item_m4224739467_gshared
q7c:_ColorTween_set_startColor_m2562993758_AdjustorThunk
aXd:_ConstructorBuilder_get_Name_m2426555260
sic:__Z37Register_UnityEngine_Input_GetAxisRawv
Ozh:_Parser_ParseCharacterClass_m4285351396
cDd:_Convert_ToSByte_m2653418303
rzd:_SyncHashtable__ctor_m2449935938
QL:__ZN11AudioSource5ResetEv
cAf:_RSAPKCS1SignatureFormatter_SetKey_m2935054088
TNb:__ZN12ImageFilters27SetSurfaceUseResolvedBufferEP13RenderTextureb
q8a:__ZN14Texture2DArray23VirtualRedirectTransferER18StreamedBinaryReadILb0EE
pWf:_UTF7Encoding_GetByteCount_m209415911
Gjb:__ZN2UI13RectTransform13AwakeFromLoadE17AwakeFromLoadMode
uCh:_RegularExpression_Compile_m2385682508
svf:_CompareInfo__cctor_m1837489679
PSb:__ZN14qsort_internal30FindAndMovePivotToLastPositionIP20ShadowCasterSortDatai26ShadowCasterSortDataSorterEEvT_S4_T0_T1_
HXh:__ZNK15dense_hashtableI10KeyWrapperIPK19Il2CppGenericMethodES4_N6il2cpp8metadata23Il2CppGenericMethodHashEN14dense_hash_setIS4_S7_NS4_14EqualsComparerINS6_26Il2CppGenericMethodCompareEEENSt3__29allocatorIS4_EEE8IdentityESB_SE_E3endEv
Znb:__Z18Transfer_BlittableI14SafeBinaryReadLb1EiEvRK29SerializationCommandArgumentsR31RuntimeSerializationCommandInfo
N4e:_X509ExtensionEnumerator_get_Current_m256207749
a8:__GLOBAL__sub_I_modules_profiler_public_0_cpp
gib:__ZN17PersistentManager13GetAllFileIDsERKN4core12basic_stringIcNS0_20StringStorageDefaultIcEEEER13dynamic_arrayIxLj8EE
Dpd:_Array_Sort_m182264525
sme:_LayoutGroup_set_padding_m282562135
EVd:_Default_IsArrayAssignable_m953489228
O0f:_UInt16_ToString_m355311020_AdjustorThunk
xjd:_RC2__ctor_m1146135664
Ek:_glGetStringi
PIf:_DecoderExceptionFallback_CreateFallbackBuffer_m1133375601
ymi:__ZNK15dense_hashtableI10KeyWrapperIP18Il2CppGenericClassES3_N6il2cpp8metadata22Il2CppGenericClassHashEN14dense_hash_setIS3_S6_NS3_14EqualsComparerINS5_25Il2CppGenericClassCompareEEENSt3__29allocatorIS3_EEE8IdentityESA_SD_E10test_emptyERK30dense_hashtable_const_iteratorIS3_S3_S6_SF_SA_SD_E
WTe:_Enumerator_get_CurrentKey_m889650866_gshared
xA:__ZN8Animator9WriteStepEy
nTe:_Enumerator_VerifyCurrent_m829026141_gshared
U9b:__ZN16PropertyAccessorC2Ev
b6a:__ZNSt3__23mapIN4core12basic_stringIcNS1_20StringStorageDefaultIcEEEE9PrefValueNS_4lessIS5_EENS_9allocatorINS_4pairIKS5_S6_EEEEEixERSB_
o9b:__ZN15DirectorManager22ConstructPlayableGraphEv
BYg:_Collection_1_ConvertItem_m1743542180_gshared
DNc:__Z38Register_UnityEngine_Font_HasCharacterv
MWb:__Z35IntersectSpherePlaneBoundsOptimizedRKN4math7_float4EPS1_i
jzf:_RNGCryptoServiceProvider__cctor_m3587754670
mpi:__ZN6il2cpp2os5posix15PosixWaitObject13InterruptWaitEv
xca:__Z22CleanupLODGroupManagerPv
Ooc:__Z21Event_CUSTOM_PopEventP12Il2CppObject
ol:_glUniform3fv
JBi:__ZNK6il2cpp8metadata24Il2CppGenericInstCompareclERK10KeyWrapperIPK17Il2CppGenericInstES8_
efb:__ZNSt3__218__insertion_sort_3IRN15ResourceManager10Dependency6SorterEPS2_EEvT0_S6_T_
g5e:_X509ChainElement_Set_m655180762
GMi:_MonoBehaviour_StopCoroutine_m615723318
ARb:__ZNK16LightmapSettings31GetRealtimeLightmapDecodeValuesEv
SK:__ZN5audio5mixer12SetSuspendedERNS0_16AudioMixerMemoryEb
_ib:__ZN17PersistentManager21UnloadNonDirtyStreamsEv
lsg:__Z96RuntimeInvoker_Int32_t2950945753_RuntimeObject_Int32_t2950945753_RuntimeObject_Int32_t2950945753PFvvEPK10MethodInfoPvPS4_
_Ji:_Input_GetButtonDown_m3074252807
yQh:_Canvas_get_overrideSorting_m2740418462
NYf:_Scheduler__ctor_m3313141270
r9a:__ZN12ImageFilters4BlitER17ShaderPassContextP7TextureP13RenderTextureiPK18SharedMaterialDataPKcP6ShaderiNS_9BlitFlagsE11CubemapFaceRK8Vector2fSH_
pHf:_String_LastIndexOf_m3451222878
Kzj:__ZL69CanvasScaler_t2767979955_CustomAttributesCacheGenerator_m_ScaleFactorP21CustomAttributesCache
k9d:_ConfigHandler_CheckPath_m3079311646
jT:__ZN11UnityEngine15CloudWebService10RestClientINS0_23WebRequestRestHeaderMapEED2Ev
Kl:_emscripten_glDepthMask
V7d:_RemotingServices_CreateClientProxy_m3886727610
Oxa:__ZN4crnd25static_huffman_data_model22prepare_decoder_tablesEv
ijf:_RecordProtocol_GetMessage_m2086135164
Nnc:__Z23GUIStatePopDisplayIndexv
dda:__Znaj
iRj:_emscripten_glEnableClientState__wrapper
L9:__ZN17MessageIdentifierC2EPKcNS_7OptionsEPKN5Unity4TypeES1_
yMi:_Mesh_SetTriangles_m1523451247
sFf:_Single_System_IConvertible_ToSByte_m1208276900
cmh:_Array_InternalArray__set_Item_TisVector4_t3319028937_m757305038_gshared
Eqg:__Z105RuntimeInvoker_Void_t1185182177_RuntimeObject_RuntimeObject_RuntimeObject_RuntimeObject_Int32_t2950945753PFvvEPK10MethodInfoPvPS4_
GYe:_ValueCollection_System_Collections_Generic_ICollectionU3CTValueU3E_Add_m3298059628_gshared
Flg:__Z64RuntimeInvoker_RuntimeObject_Int16_t2552820387_Int16_t2552820387PFvvEPK10MethodInfoPvPS4_
zQ:__Z55Register_UnityEngine_AudioSource_get_spatializeInternalv
dLa:__ZN14SafeBinaryRead8TransferI14ConstantStringEEvRT_PKc17TransferMetaFlags
eMb:__ZNK6Camera16GetStereoEnabledEv
mvg:__Z72RuntimeInvoker_Int32_t2950945753_TimeSpan_t881159249_TimeSpan_t881159249PFvvEPK10MethodInfoPvPS4_
Jjf:_SendRecordAsyncResult_SetComplete_m153213906
Hna:__ZL24FindBelongingStructParamRPKcRNSt3__26vectorIN9ShaderLab20SerializedSubProgram14ConstantBufferENS2_9allocatorIS6_EEEE
r6b:__ZN12LightManager15InitializeClassEv
_Yf:_WaitHandle__cctor_m4242752477
p$a:__ZN9ShaderLab11shaderprops16GetComputeBufferEPK19ShaderPropertySheetS3_NS_16FastPropertyNameE
Nti:__ZN6il2cpp6icalls8mscorlib6System10Reflection10MethodBase31GetMethodFromHandleInternalTypeEii
K_:__ZN18ScriptingArgumentsC2Ev
WEi:_Vector3_op_Equality_m4231250055
FMj:_emscripten_glBlendFuncSeparate__wrapper
EKd:_FileSystemInfo__ctor_m3769019897
Gqh:_Array_InternalArray__get_Item_TisContentType_t1787303396_m421427711_gshared
Rua:__Z17HasSampledTexture14GraphicsFormat13formatSupport
tNb:__ZNK25CameraStackRenderingState27GetStereoImageEffectTextureEb
Rid:_HMACSHA384__ctor_m1677515580
fzf:_RIPEMD160Managed_J_m1336489154
sp:__ZN8Vector3f8TransferI14SafeBinaryReadEEvRT_
K$h:__ZN6il2cpp6icalls6System6System3Net7Sockets6Socket7ReceiveEiP11Il2CppArrayiiNS4_11SocketFlagsEPi
wo:FUNCTION_TABLE_ii
$Ra:__ZN10TagManager8TransferI18StreamedBinaryReadILb0EEEEvRT_
nsc:__Z18Transfer_BlittableI9JSONWriteLb0E8BitFieldEvRK29SerializationCommandArgumentsR31RuntimeSerializationCommandInfo
MMd:_MemoryStream_set_Capacity_m1773624579
qei:__ZNK15dense_hashtableINSt3__24pairIK10KeyWrapperINS1_IP11Il2CppClassjEEES4_EES6_N6il2cpp8metadata14ArrayClassHashEN14dense_hash_mapIS6_S4_SB_NS6_14EqualsComparerINSA_17ArrayClassCompareEEENS0_9allocatorIS8_EEE9SelectKeyESF_SH_E10test_emptyEj
Ria:__ZNSt3__26vectorIN9ShaderLab20SerializedSubProgram15StructParameterENS_9allocatorIS3_EEE8__appendEj
tb:invoke_diiii
lLj:b47
rxg:__Z95RuntimeInvoker_Void_t1185182177_RuntimeObject_RuntimeObject_SByte_t1669577662_SByte_t1669577662PFvvEPK10MethodInfoPvPS4_
FMa:__Z24CreateDirectoryRecursiveRKN4core12basic_stringIcNS_20StringStorageDefaultIcEEEE
ZKj:b41
lla:__ZN9ShaderLab20SerializedSubProgram8TransferI18StreamedBinaryReadILb0EEEEvRT_
YKj:b40
Alj:__ZL54ContextMenu_t1295656858_CustomAttributesCacheGeneratorP21CustomAttributesCache
l9:__ZN13RuntimeStaticI21ScalableBufferManagerLb0EE13StaticDestroyEPv
jOc:__ZN2UI13CanvasManager9AddCanvasEPNS_6CanvasE
i9a:__ZN9Texture3D8TransferI19StreamedBinaryWriteILb0EEEEvRT_
YNb:__ZNK6Camera22CalculateRenderingPathEv
OCd:_Convert_ToInt64_m3758262873
gC:__ZN11UnityEngine9Animation37SetGenericRootTransformPropertyValuesERKNS0_30AnimatorGenericBindingConstantERKN7mecanim10ValueArrayER9Transformbb
$Da:__Z13ConvertMipmap14GraphicsFormatPKvS_Pviiii
htb:__ZL12InvokeMethodI17RemapPPtrTransferEvRK29SerializationCommandArgumentsR31RuntimeSerializationCommandInfo
J0e:_RemoteCertificateValidationCallback_Invoke_m3086073466
pIf:_StringComparer_Compare_m991165676
tEc:_tt_sbit_decoder_load_image
Njh:_U3CStartU3Ec__Iterator0_Dispose_m261027331_gshared
_Ea:__ZN4core8hash_mapIPK17RenderSurfaceBaseP13RenderTexture19PointerHashFunctionIS3_ENSt3__28equal_toIS3_EEE6insertERKNS8_4pairIKS3_S5_EE
Hnc:__ZNSt3__24listIN10GUIManager12SortedScriptE11memory_poolIS2_EE6__sortI13OldSortScriptEENS_15__list_iteratorIS2_PvEESA_SA_jRT_
B$g:_Collection_1_System_Collections_IList_Add_m3364892189_gshared
ZNg:_List_1_AddEnumerable_m3500350831_gshared
Qcf:_PrivateKeyInfo_get_PrivateKey_m3647771102
nhi:__ZN6il2cpp6icalls8mscorlib6System9ThreadingL11ThreadStartEPv
Wea:__ZN15DirectorManager12OnSampleTimeEv
j$d:_TypeBuilder_check_not_created_m3652863637
G3c:_StandaloneInputModule_UpdateModule_m450861257
oPh:_Font_add_textureRebuilt_m2164317336
Sah:_ReadOnlyCollection_1_System_Collections_IList_Insert_m2928873627_gshared
xmf:_DateTime_get_UtcNow_m1393945741
Wag:_EqualityComparer_1__cctor_m314889309_gshared
f6:__ZN12CachedReader10Align4ReadEv
Gvh:_X501__cctor_m2428304915
xQh:_Canvas_get_renderOrder_m1489855841
cmg:__Z50RuntimeInvoker_Void_t1185182177_Single_t1397266774PFvvEPK10MethodInfoPvPS4_
oEh:_Event_ToString_m1688862299
eKa:__ZNK9Behaviour22GetTypeVirtualInternalEv
hvf:_CCGregorianCalendar_month_from_fixed_m4268992710
HNf:_Array_compare_TisUICharInfo_t75501106_m1310495481_gshared
wXb:__Z21GetScriptingArraySize17ScriptingArrayPtr
HJc:__ZN20TextRenderingPrivate8FontImpl8TransferI14SafeBinaryReadEEvRT_
OFa:__ZN13ComputeShader14SetBufferParamEjRKN9ShaderLab16FastPropertyNameE15ComputeBufferID
f9g:_ReadOnlyCollection_1_System_Collections_IList_Clear_m4022532825_gshared
RTf:_Encoding_get_ASCII_m3595602635
Gra:__ZN9GfxDevice17ImmediateTexCoordEifff
_Xd:_DerivedType_GetCustomAttributes_m3536779709
o9i:__ZL93Interlocked_t2273387594_CustomAttributesCacheGenerator_Interlocked_CompareExchange_m388540288P21CustomAttributesCache
l0d:_MethodBase_get_IsAbstract_m428833029
Ktb:__Z35Transfer_Blittable_FixedBufferFieldI24GenerateTypeTreeTransferhEvRK29SerializationCommandArgumentsR31RuntimeSerializationCommandInfo
zKj:_emscripten_glUniform4f__wrapper
khg:_Enumerator_MoveNext_m2595190390_AdjustorThunk
dPf:_Array_InternalArray__IndexOf_TisColor32_t2600501292_m3783551884_gshared
oY:__ZNK6Camera16GetProjectionFarEv
Nq:__Z24InverseTransformRotationRK23TransformAccessReadOnlyRKN4math7_float4E
Gwh:_X509Chain_Build_m2469702749
XL:__ZN11AudioSource6UpdateEv
s1a:__ZNK14PlayableOutput11DerivesFromE17ScriptingClassPtr
F2a:__ZN7Texture34CreateFileTextureUploadInstructionE18TextureUploadFlagsj
ynd:__ZN25GenericVirtActionInvoker06InvokeEPK10MethodInfoP12Il2CppObject
h$d:_TypeBuilder_DefineConstructor_m2989882735
kPa:__ZN25SingleBlockMemoryFileDataC2E10MemLabelIdPvjb
pD:__ZN8Animator8TransferI14SafeBinaryReadEEvRT_
jWb:__ZN27IntermediateRendererManager24GetIntermediateRenderersEi
B1:__Z23AsyncReadForceCloseFileRKN4core12basic_stringIcNS_20StringStorageDefaultIcEEEE
Ut:__ZN17AnimationPlayable34CollectAnimatorControllerPlayablesER13dynamic_arrayIP26AnimatorControllerPlayableLj4EE
TO:__ZN16BaseVideoTexture19UpdateVideoTexturesEv
T2d:_MonoField_GetValue_m3124733531
PVa:__Z28BuildSingleStreamChannelInfo17ShaderChannelMaskRK20VertexChannelsLayoutS_S2_P11ChannelInfo
O6a:__ZN6Sprite23VirtualRedirectTransferER19StreamedBinaryWriteILb0EE
G4b:__ZN2UI13RectTransform12SetAnchorMaxERK8Vector2f
r0c:_EventTrigger_Execute_m2453060771
$bh:_Comparison_1_Invoke_m517083441_gshared
Esg:__Z253RuntimeInvoker_Int32_t2950945753_RuntimeObject_Int32_t2950945753_Int32_t2950945753_RuntimeObject_Int32_t2950945753_UInt32U26_t3735378166_UInt32U26_t3735378166_RuntimeObject_DecoderFallbackBufferU26_t3866396827_ByteU5BU5DU26_t4057885439_SByte_t1669577662PFvvEPK10MethodInfoPvPS4_
X4h:__ZNK15dense_hashtableINSt3__24pairIK10KeyWrapperINS1_IPK9FieldInfoP11Il2CppClassEEEjEES9_17ReflectionMapHashIS8_EN14dense_hash_mapIS9_jSD_NS9_14EqualsComparerINS0_8equal_toIS8_EEEENS0_9allocatorISB_EEE9SelectKeyESI_SK_E5beginEv
Una:__ZNK9ShaderLab7Program19HasMatchingVariantsERK13dynamic_arrayI16ShaderKeywordSetLj4EE
kB:__ZN15SerializeTraitsIN4math4trsXEE8TransferI8BlobSizeEEvRS1_RT_
Ava:__ZN14DataBufferGLES11CopySubDataEPKS_jjj
fe:_emscripten_glVertexPointer
lQc:__ZN2UI13PrepareOutputERNS_7BatchesEjjNS_30AdditionalCanvasShaderChannelsE
O2h:__ZN6il2cpp2vm7Runtime47RaiseExecutionEngineExceptionIfMethodIsNotFoundEPK10MethodInfo
ryh:_PatternCompiler_GetMachineFactory_m3758869886
sTb:__Z17GetFrustumPortionPK8Vector3fffPS_
Zji:__ZN15dense_hashtableINSt3__24pairIK10KeyWrapperIP14Il2CppIUnknownEjEES5_N6il2cpp5utils11PointerHashIS3_EEN14dense_hash_mapIS5_jSB_NS5_14EqualsComparerINS0_8equal_toIS4_EEEENS0_9allocatorIS7_EEE9SelectKeyESG_SI_E14squash_deletedEv
I0c:_EventTrigger_OnCancel_m585099428
AFh:_GUILayoutEntry_ApplyOptions_m1741659338
ufd:_RuntimeTypeHandle_Equals_m2857439487_AdjustorThunk
xpa:__ZNK9GfxDevice27GetPlatformAdjustedViewportEv
m6g:_ReadOnlyCollection_1_System_Collections_Generic_IListU3CTU3E_set_Item_m88350439_gshared
Hdh:_Func_3_Invoke_m1194147890_gshared
$Ah:_Reference_Compile_m4195878675
fCj:_InputBuffer_remove_onCommandSent_m3139499669
A8g:_ReadOnlyCollection_1_System_Collections_ICollection_CopyTo_m2672196987_gshared
Y9b:__ZN16StreamedResource8TransferI24GenerateTypeTreeTransferEEvRT_
KQi:_RectTransform_get_anchorMin_m2928307238
xud:_ArrayList__ctor_m3828927650
Ita:__ZThn9568_N13GfxDeviceGLES26EnableScissorRectsPlatformEv
KGa:__ZN10Matrix3x3f15InvertTransposeEv
MFh:_GUILayoutGroup_SetHorizontal_m996475327
DFh:_GUILayoutEntry__cctor_m663865902
xLb:__Z11IsBatchmodev
Pfg:_Enumerator_System_Collections_IEnumerator_get_Current_m713684915_gshared
Jrb:__Z29Transfer_Blittable_ArrayFieldI14SafeBinaryRead8Vector3fEvRT_R9ArrayInfoRK23StaticTransferFieldInfo
wKc:__ZN20TextRenderingPrivate8FontImpl18ResetCachedTextureEv
b1h:__ZN6il2cpp6icalls8mscorlib6SystemL16GetFieldFromTypeINS_5utils10functional6FilterINSt3__212basic_stringIcNS7_11char_traitsIcEENS7_9allocatorIcEEEENS4_13VmStringUtils21CaseSensitiveComparerEEEEEP21Il2CppReflectionFieldP11Il2CppClassSK_iRKT_
Klc:__Z27Screen_Get_Custom_PropWidthv
ywi:_GC_print_finalization_stats
rGh:_GUITargetAttribute_GetGUITargetAttrValue_m2954410352
Tfc:__Z53Register_UnityEngine_Behaviour_get_isActiveAndEnabledv
Lpd:_SimpleEnumerator_get_Current_m72361444
hq:__ZNSt3__26vectorIN4core12basic_stringIcNS1_20StringStorageDefaultIcEEEENS_9allocatorIS5_EEE8__appendEj
gP:__ZN13ProduceHelperI10SampleClipLb0EE7ProduceE10MemLabelId18ObjectCreationMode
teb:__ZN26PlayerSettingsSplashScreen8TransferI17RemapPPtrTransferEEvRT_
Wze:_ASN1_set_Value_m2803403806
i1h:__ZN6il2cpp6icalls8mscorlib6SystemL17CollectTypeFieldsINS_5utils10functional10TrueFilterEEEvP11Il2CppClassPKS7_iRNSt3__26vectorIP9FieldInfoNSB_9allocatorISE_EEEERKT_
X1b:__Z13GetTagManagerv
jnd:_Hashtable__ctor_m1815022027
MWf:_UTF8Encoding_GetChars_m1433288684
OSh:__ZL10roundUp128PyS_
sR:__ZN11UnityEngine15CloudWebService17CloudJobSchedulerD0Ev
tEe:_ArrayReadOnlyList_1_Contains_m381552673_gshared
u_f:_TimeZone_ToUniversalTime_m2789507578
_lg:__Z96RuntimeInvoker_Boolean_t97287965_RuntimeObject_RuntimeObject_Int32_t2950945753_Int32_t2950945753PFvvEPK10MethodInfoPvPS4_
hOf:_Array_IndexOf_TisUICharInfo_t75501106_m3198896198_gshared
HOc:__ZNK2UI11CanvasGroup22GetTypeVirtualInternalEv
zhf:_Context_get_Current_m2853615040
sCj:_Keyboard_WarnIfTerminalNotConneced_m1063217717
$nc:__Z21CleanupGlobalGUIStatev
w$f:_Type_IsContextfulImpl_m3693603908
Hgg:_Enumerator_VerifyState_m2873941769_gshared
YAb:__Z18Transfer_BlittableI18StreamedBinaryReadILb0EELb1EN4math12int3_storageEEvRK29SerializationCommandArgumentsR31RuntimeSerializationCommandInfo
hIa:__ZN22VertexDeclarationCache5ClearEv
ahd:_CspParameters__ctor_m3852972821
x_b:__ZN17PersistentManager12SetPathRemapERKN4core12basic_stringIcNS0_20StringStorageDefaultIcEEEES6_
xw:__Z27ProcessRootMotionEmptyMixerP35AnimationPlayableEvaluationConstantP32AnimationPlayableEvaluationInputP33AnimationPlayableEvaluationOutput
VUb:__ZN6Camera24PrepareCullingParametersERK23CameraCullingParameters13RenderingPathR11CullResults
qcc:__Z12SetIUISystemP9IUISystem
Lgb:__ZN19RuntimeSceneManager22EndIntegrateMainThreadEP10UnitySceneNS_11LoadingModeE
Hnh:_Array_Sort_TisUICharInfo_t75501106_m3474449559_gshared
jtb:__Z26Transfer_UnityEngineObjectI17RemapPPtrTransferLb0EEvRK29SerializationCommandArgumentsR31RuntimeSerializationCommandInfo
ozh:_QuickSearch_GetShiftDistance_m2542665852
fqh:_Array_InternalArray__get_Item_TisCustomAttributeTypedArgument_t2723150157_m2639399822_gshared
fye:_BigInteger_GenerateRandom_m3141592944
Evb:__Z29Transfer_Blittable_ArrayFieldI24GenerateTypeTreeTransfer4AABBEvRT_R9ArrayInfoRK23StaticTransferFieldInfo
W8e:_Interval_Contains_m1454846757
Tad:_Graphic_CacheCanvas_m1120385152
CCj:_emscripten_GetProcAddress
Ca:invoke_fiiifii
YDj:_modff
MYa:__ZN20SphericalHarmonicsL219AddDirectionalLightERKN4math7_float3ERKNS0_7_float4E
Nea:__Z26ScheduleJobForEachInternalR8JobFencePFvPvjES1_iPFvS1_E11JobPriority
iLb:__ZZ23InitPlayerLoopCallbacksvEN41PostLateUpdateProfilerEndFrameRegistrator7ForwardEv
Kcc:__ZN9Scripting18RaiseMonoExceptionEPKcz
hOc:__ZN2UI13UIInstruction19ClearSharedMeshDataER8JobFence
M8b:__ZN10GameObject17WillHandleMessageERK17MessageIdentifier
mDf:_StrongNamePublicKeyBlob_Equals_m3655422942
jEf:_SecurityContext__ctor_m1730177197
IRh:_RectTransformUtility_GetTransposed_m3952754222
Q6b:__ZN9ShaderLab16FastPropertyName15InitBy28BitHashEj
gpg:__Z96RuntimeInvoker_Void_t1185182177_Int32_t2950945753_Single_t1397266774_RuntimeObject_RuntimeObjectPFvvEPK10MethodInfoPvPS4_
xSe:_Enumerator_System_Collections_IDictionaryEnumerator_get_Key_m195047678_AdjustorThunk
wQh:_Canvas_get_pixelPerfect_m333060872
iab:__ZN17PackedFloatVector12UnpackFloatsEPfiiii
Cz:__ZN17AnimationPlayable28UpdateInternalStateRecursiveILi3ELb0EEEvPK35AnimationPlayableEvaluationConstant
Gsa:__ZN13GfxDeviceGLES21DestroyComputeProgramER12ObjectHandleI18ComputeProgram_TagPvE
Nyh:_PatternCompiler_EmitIfDefined_m2075050865
Kpf:_Decimal_System_IConvertible_ToInt64_m1446427516_AdjustorThunk
Bca:__ZN17UniqueIDGenerator16DestroyPureIndexEj
NSd:_NotImplementedException__ctor_m3095902440
X$:__ZL21AppendNestedClassName17ScriptingClassPtrRN4core17string_with_labelILi1EEE
yia:__ZN14SafeBinaryRead21TransferSTLStyleArrayINSt3__26vectorIN9ShaderLab20SerializedSubProgram12UAVParameterENS1_9allocatorIS5_EEEEEEvRT_17TransferMetaFlags
rPh:_FontTextureRebuildCallback_Invoke_m3604797831
CS:__ZN24TextDOMTransferWriteBaseI9JSONWriteE12PushMetaFlagEi
p4i:__ZL59_PropertyBuilder_t1366136710_CustomAttributesCacheGeneratorP21CustomAttributesCache
lBa:__ZN6prcoreL26RemapGenericIntegerToFloatI17TexFormatARGB888815TexFormatRFloatEEvPKNS_9InnerInfoE
C0h:__ZN6il2cpp2vm10ThreadPool10InitializeEv
vQg:_List_1__ctor_m808270210_gshared
qbi:__ZN6il2cpp2vm17TypeNameParseInfoD2Ev
Idg:_PrimeHelper_ToPrime_m3704362632_gshared
YI:__ZN4FMOD7Channel7setModeEj
spf:_Decimal_System_IConvertible_ToType_m2919262279
pVi:_Vector2_get_right_m1027081661
xX:__ZNK8Renderer8GetLayerEv
JNd:_Stream_Close_m771352034
xQe:__ZN21InterfaceFuncInvoker1Ii19TimeSpan_t881159249E6InvokeEjP11Il2CppClassP12Il2CppObjectS0_
FPb:__ZNK6Camera20GetReplacementShaderEv
vTg:_List_1_System_Collections_IList_Remove_m4226673807_gshared
NAi:__ZNSt3__26__treeINS_12__value_typeINS_12basic_stringIcNS_11char_traitsIcEENS_9allocatorIcEEEEPFvvEEENS_19__map_value_compareIS7_SA_NS_4lessIS7_EELb1EEENS5_ISA_EEE4findIS7_EENS_15__tree_iteratorISA_PNS_11__tree_nodeISA_PvEEiEERKT_
Aya:__ZL23stbir__calculate_memoryP11stbir__info
e8e:_Interpreter_Close_m126356671
D9a:__ZNK6Camera18GetRenderRectangleEv
Z7a:__ZN13sorted_vectorIN4core12basic_stringIcNS0_20StringStorageDefaultIcEEEENSt3__24lessIS4_EE13stl_allocatorIS4_L18MemLabelIdentifier81ELi16EEE4findIS4_EENS5_11__wrap_iterIPS4_EERKT_
Fzh:_Parser_HandleExplicitNumericGroups_m1412234891
Eqh:_Array_InternalArray__get_Item_TisRaycastHit2D_t2279581989_m2440275162_gshared
dWd:_CustomAttributeNamedArgument_Equals_m1414002036
gvc:__ZL26Transfer_SimpleNativeClassI8JSONRead10RectOffsetLb1EEvRK29SerializationCommandArgumentsR31RuntimeSerializationCommandInfo
bLi:_Material_SetInt_m475299667
URc:__Z44CanvasRenderer_CUSTOM_INTERNAL_CALL_SetColorP12Il2CppObjectRK10ColorRGBAf
rYe:_Enumerator_MoveNext_m3045873697_AdjustorThunk
cfg:_Enumerator_System_Collections_IEnumerator_Reset_m959124362_AdjustorThunk
Vtf:_Enum_ToObject_m121831801
hdd:_Image_get_hasBorder_m3423344180
Xrc:__Z18Transfer_BlittableI9JSONWriteLb1EsEvRK29SerializationCommandArgumentsR31RuntimeSerializationCommandInfo
rdc:__ZN9Transform16SetLocalRotationERK11Quaternionf
nad:_FontData_set_richText_m993590067
WLb:__ZN13RenderManager37RenderCamerasWithScriptableRenderLoopEi
kZf:_TimeSpan__ctor_m3689759052
tB:__ZN7mecanim8skeleton25SkeletonPoseComputeLocalQEPKNS0_8SkeletonEPKNS0_13SkeletonPoseTIN4math4trsXEEEPS7_ii
YKg:__Z37RuntimeInvoker_Enumerator_t3123848928PFvvEPK10MethodInfoPvPS4_
eni:__ZN6il2cpp2os19ReleaseSocketHandleEj
eO:__ZN11AudioModule16GetDSPSampleRateEv
JIb:__ZN15InstancingProps11NewConstantERKN9ShaderLab16FastPropertyNameEj15ShaderParamTypehhjjP6Object
Oie:_InputField_get_characterValidation_m4196664041
C_f:_Type_get_Attributes_m58528356
Skd:_Array_GetUpperBound_m4018715963
fpi:__ZN6il2cpp2os5posix15PosixWaitObjectC2ENS2_4TypeE
SNb:__ZN6Camera21PostMultiCustomRenderENS_10RenderFlagEb
oSf:_Array_InternalArray__Insert_TisMonoResource_t4103430009_m1997865927_gshared
iBf:_SHA512Managed_HashFinal_m2173184560
tFa:__ZN12_GLOBAL__N_112UploadImagesEP7ApiGLESjji14GraphicsFormatPKhjS2_iiii16TextureUsageModePh
xIb:__ZN23ShaderVariantCollection13WarmupShadersEv
R4b:__ZN13ProduceHelperI9TransformLb0EE7ProduceE10MemLabelId18ObjectCreationMode
F$:__Z25GetCommonScriptingClassesv
ihb:__Z27scripting_gc_collect_unsafei
qcf:_MD5SHA1_HashFinal_m4115488658
jO:__ZN11AudioModule20SuspendVideoTexturesEv
LPf:_Array_InternalArray__ICollection_Add_TisKeyValuePair_2_t71524366_m3468275433_gshared
_Oh:_AudioSettings_InvokeOnAudioManagerUpdate_m4044425648
oQ:__Z59Register_UnityEngine_AudioExtensionManager_GetAudioListenerv
Xub:__Z26Transfer_UnityEngineObjectI24GenerateTypeTreeTransferLb0EEvRK29SerializationCommandArgumentsR31RuntimeSerializationCommandInfo
dCd:_Convert_ToDouble_m278900635
iBc:_UNITY_FT_GlyphLoader_CheckPoints
BHi:_DebugLogHandler_LogException_m302830419
GLd:_Stream_BeginRead_m2233539237
_Te:_Enumerator_System_Collections_IDictionaryEnumerator_get_Value_m684446183_AdjustorThunk
eXa:__ZN15SharedLightData7PrecalcEv
O1:__ZN10Matrix4x4fmLERKS_
wPi:_Vector2__ctor_m3970636864
tyb:__Z35Transfer_Blittable_FixedBufferFieldI18StreamedBinaryReadILb1EEsEvRK29SerializationCommandArgumentsR31RuntimeSerializationCommandInfo
ruf:_Environment_InternalGetFolderPath_m468390978
cOa:__ZN15ArchiveReadFileD0Ev
lVc:__ZN11UnityEngine15PlatformWrapper18GetOperatingSystemEv
TEf:_SecurityFrame_ToString_m339310712
Kvc:__ZN8GUIStyle8TransferI8JSONReadEEvRT_
h4c:_TouchInputModule_ProcessTouchPress_m3504077560
NAc:_FT_MSB
LOj:_emscripten_glReadPixels__wrapper
Zdg:_HashSet_1_Add_m1971460364_gshared
$Ai:__ZN6il2cpp6icalls8mscorlib4Mono8Security12Cryptography18KeyPairPersistence10_CanSecureEP12Il2CppString
VJf:_Array_InternalArray__ICollection_Contains_TisParameterModifier_t1461694466_m1000453323_gshared
P5f:_Dictionary_2_System_Collections_ICollection_CopyTo_m4047192178_gshared
j3h:__ZN6il2cpp2os4File11GetFileStatERKNSt3__212basic_stringIcNS2_11char_traitsIcEENS2_9allocatorIcEEEEPNS0_8FileStatEPi
Lyf:_RIPEMD160Managed_Initialize_m2173168986
D6b:__ZN9TransformC2E10MemLabelId18ObjectCreationMode
Soa:__ZN13GfxDeviceGLES14SetRasterStateEPK17DeviceRasterState
NUd:_Assembly_ToString_m2053237013
GLi:_Vector4_Equals_m1779210055
cDc:_otv_Coverage_get_count
J4d:_ParameterModifier_t1461694466_marshal_pinvoke_back
F2:__ZN14SafeBinaryRead11EndTransferEv
fcg:_EqualityComparer_1__cctor_m2741186979_gshared
Jpb:__ZN14SafeBinaryRead8TransferI8MonoPPtrEEvRT_PKc17TransferMetaFlags
Ltf:_Enum_System_IConvertible_ToUInt16_m4216751959
rGa:__ZN21UniformBufferTFMethod13MapBoneBufferEj
bCj:_StringExtension_Anagram_m968226828
fSf:_Array_InternalArray__Insert_TisInt32_t2950945753_m4073217122_gshared
ZXe:_Enumerator_get_Current_m2897627569_AdjustorThunk
fAd:_SortedList_Remove_m2784369438
yxa:__ZN4crnd12crn_unpacker10unpack_dxnEPPhjjj
n0:__ZN14SerializedFileD2Ev
Ioc:__Z30Event_Get_Custom_PropModifiersP12Il2CppObject
hu:__ZN7mecanim9animation16CreateClipOutputEPKNS0_4ClipERNS_6memory9AllocatorE
ope:_RawImage_get_mainTexture_m2396337033
S3h:__ZN6il2cpp2vm10Reflection17GetAssemblyObjectEPK14Il2CppAssembly
hDb:__ZNSt3__218__stable_sort_moveIRN10vector_mapI17ScriptingClassPtrPKN5Unity4TypeENS_4lessIS2_EENS_9allocatorINS_4pairIS2_S6_EEEEE13value_compareENS_11__wrap_iterIPSB_EEEEvT0_SJ_T_NS_15iterator_traitsISJ_E15difference_typeEPNSM_10value_typeE
aha:__ZN6Shader21AwakeFromLoadThreadedEv
nAa:__ZN6prcoreL17RemapGenericFloatI17TexFormatRGBFloat17TexFormatRGBAHalfEEvPKNS_9InnerInfoE
aye:_BigInteger__ctor_m3991350270
cVi:_Vector2_GetHashCode_m3916089713_AdjustorThunk
lCi:__ZN6il2cpp2os9SemaphoreC2Eii
Lpb:__ZNSt3__26vectorI8MonoPPtr13stl_allocatorIS1_L18MemLabelIdentifier1ELi16EEE8__appendEj
vOb:__ZN14qsort_internal30FindAndMovePivotToLastPositionIP17RODataReplacementi19ROSorterReplacementEEvT_S4_T0_T1_
CGa:__ZN15UniformTFMethod20IsBoneCountSupportedEi
P2f:_UnauthorizedAccessException__ctor_m246605039
Y5b:__Z12BuildTextureIA4_tPFvP9Texture2DPS0_iiiiEES2_PKcii13TextureFormatRKT0_17TextureColorSpaceb
nIj:dynCall_viidi
W_:__ZN24ScriptingMethodFiltering17FilterOnSignatureENS_18MethodSearchFilterE
XZb:__ZN18ScreenManagerWebGL13SetLockCursorE14CursorLockMode
Oef:_CipherSuite_DecryptRecord_m1495386860
cwh:_X509Certificate_VerifySignature_m3538124832
NNd:_StreamAsyncResult_SetComplete_m1102187093
J3b:__ZN13MonoBehaviour19HandleNotificationsEPviR11MessageData
tQi:_RectOffset_Init_m2028508611
OCi:__ZN6il2cpp2os9EventImpl5ResetEv
Bdf:_Alert__ctor_m3135936936
UHd:_Int64_System_IConvertible_ToInt32_m772105781
Zsh:_TlsClientSettings__ctor_m3220697265
T7h:__ZNK15dense_hashtableINSt3__24pairIK10KeyWrapperINS1_IPK9EventInfoP11Il2CppClassEEEjEES9_17ReflectionMapHashIS8_EN14dense_hash_mapIS9_jSD_NS9_14EqualsComparerINS0_8equal_toIS8_EEEENS0_9allocatorISB_EEE9SelectKeyESI_SK_E23find_position_with_hashERSA_j
ILj:b58
f5f:_Dictionary_2_make_pair_m2250450206_gshared
tUf:_ForwardingDecoder_GetChars_m4228908854
z8e:_InterpreterFactory_get_GroupCount_m2226373271
BLj:b53
oLj:b50
pLj:b51
GLj:b56
HLj:b57
ELj:b54
FLj:b55
Wwe:_SimpleCollator_IsSafe_m310268646
eld:_X509Certificate_get_RawData_m2387471414
lNj:_glDetachShader__wrapper
Spd:_ArrayTypeMismatchException__ctor_m3375008173
uVe:_Transform_1_BeginInvoke_m1757796657_gshared
HFg:__Z88RuntimeInvoker_Int32_t2950945753_UIVertex_t4057497605_UIVertex_t4057497605_RuntimeObjectPFvvEPK10MethodInfoPvPS4_
f8b:__ZN10GameObject12CleanupClassEv
Gpa:__ZN9GfxDevice25SetShaderPropertiesSharedERK19ShaderPropertySheet
V4c:_BaseMeshEffect_get_graphic_m1852367505
qxd:_CaseInsensitiveHashCodeProvider_GetHashCode_m2168170016
Ywa:__ZN18AsyncUploadManager19AsyncResourceUploadER9GfxDeviceii9TextureID
z7b:__ZL25InitializeDefaultMaterialv
tSc:__Z53Register_UnityEngine_CanvasRenderer_get_materialCountv
Q$d:_PropertyBuilder_GetCustomAttributes_m3798356764
N4d:_PropertyInfo_get_MemberType_m2794839864
tRe:_Comparer_1_System_Collections_IComparer_Compare_m4179495191_gshared
pMa:__ZN17PersistentManager12UnloadStreamERKN4core12basic_stringIcNS0_20StringStorageDefaultIcEEEEb
bPa:__ZN10MemoryFile4ReadEyyPvPy
Tkh:_Array_InternalArray__Insert_TisUICharInfo_t75501106_m2924156520_gshared
BPf:_MonoProperty_GetterAdapterFrame_TisRuntimeObject_TisRuntimeObject_m458718082_gshared
g6a:__ZN13ScreenManager17RequestResolutionEiibi
udi:_il2cpp_unity_liveness_calculation_from_statics
Qx:__ZNK26AnimatorControllerPlayable11DerivesFromE17ScriptingClassPtr
QOe:_InternalEnumerator_1_System_Collections_IEnumerator_get_Current_m2649471526_gshared
_5:__ZN8Renderer8TransferI17RemapPPtrTransferEEvRT_
epa:__ZN13GfxDeviceGLES26UpdateViewProjectionMatrixEv
tSe:_Enumerator_System_Collections_IDictionaryEnumerator_get_Entry_m522483686_gshared
iCe:_PrivateKeyInfo_RemoveLeadingZero_m3921889925
UXf:_Thread_get_CurrentContext_m1695017876
VXb:__Z24LookRotationToQuaternionRK8Vector3fS1_P11Quaternionf
TXb:__ZN16ReflectionProbes9GetCameraEv
Uma:__ZL18IsGpuProgramUsable20ShaderGpuProgramTypePK6Shader
VQc:__ZN2UI6Canvas17SetSortingLayerIDEi
cpi:__ZN6il2cpp2vm11MethodStack23CleanupForCurrentThreadEv
_Dd:_Convert_ToUInt64_m388601487
cVa:__ZN20TierGraphicsSettings8TransferI24GenerateTypeTreeTransferEEvRT_
EYh:__ZN15dense_hashtableINSt3__24pairIK10KeyWrapperIN6il2cpp5utils13dynamic_arrayIPK10Il2CppTypeLj4EEEEPFvvEEESA_NS3_8metadata19Il2CppSignatureHashEN14dense_hash_mapISA_SD_SG_NSA_14EqualsComparerINSF_22Il2CppSignatureCompareEEENS0_9allocatorISE_EEE9SelectKeyESK_SM_E16reset_thresholdsEv
dMi:_Mesh_get_vertices_m3585684815
yrb:__ZN14SafeBinaryRead21TransferSTLStyleArrayI13dynamic_arrayI4AABBLj4EEEEvRT_17TransferMetaFlags
ATi:_TouchScreenKeyboard_get_text_m1797464608
cZb:__ZN26CustomRenderTextureManager25UpdateCustomRenderTextureEP19CustomRenderTexturei
Rfa:__ZNSt3__26__treeINS_12__value_typeIiN11TypeManager18TypeCallbackStructEEENS_19__map_value_compareIiS4_NS_4lessIiEELb1EEENS_9allocatorIS4_EEE7destroyEPNS_11__tree_nodeIS4_PvEE
fFb:__ZN13MonoBehaviour18TransferEngineDataI24GenerateTypeTreeTransferEE4PPtrI10MonoScriptERT_
P9b:__ZNK14PlayableOutput23GetSourcePlayableUnsafeEv
gUc:__ZN11UnityEngine7Connect17XRDeviceInfoEventD0Ev
u5i:__ZL60SoapTypeAttribute_t1750930817_CustomAttributesCacheGeneratorP21CustomAttributesCache
tVd:_Binder_ConvertArgs_m2124461494
RV:__ZN21UnityDefaultAllocatorI17LowLevelAllocatorE10DeallocateEPv
ts:__ZN15PackedIntVector8TransferI14SafeBinaryReadEEvRT_
rVi:_Vector3__ctor_m3353183577_AdjustorThunk
EHe:_InternalEnumerator_1_System_Collections_IEnumerator_get_Current_m1514266661_gshared
pcf:_MD5SHA1_Initialize_m675470944
wQf:_Array_InternalArray__ICollection_Add_TisKeyframe_t4206410242_m442111799_gshared
YQg:_List_1_CheckMatch_m3263549496_gshared
AH:__ZN13AudioListener8DoUpdateEv
FHd:_Int32_GetTypeCode_m1648562395_AdjustorThunk
nBd:__Z13bankers_roundd
ieb:__ZN14SafeBinaryRead8TransferI5RectTIfEEEvRT_PKc17TransferMetaFlags
ri:_emscripten_glGenFramebuffers
Lfa:__ZN17BaseObjectManager16StaticInitializeEPv
sMg:_List_1_CheckCollection_m2602703205_gshared
Dsc:__Z18Transfer_BlittableI9JSONWriteLb0EyEvRK29SerializationCommandArgumentsR31RuntimeSerializationCommandInfo
B_a:__ZN13RenderTexture15ThreadedCleanupEv
S3e:_X509BasicConstraintsExtension__ctor_m3721156175
S1a:__ZN12CubemapArray23VirtualRedirectTransferER14SafeBinaryRead
lu:__ZN21AnimationClipPlayable16ProcessHumanPassEPK35AnimationPlayableEvaluationConstantPK32AnimationPlayableEvaluationInputP33AnimationPlayableEvaluationOutput
eKd:_Path_GetFileName_m1354558116
oAe:_BitConverterLE_ToDouble_m1601000678
jMj:_emscripten_glUniform3i__wrapper
bQi:_Rect_Contains_m1232228501_AdjustorThunk
gjc:__Z43RectTransform_CUSTOM_INTERNAL_set_sizeDeltaP12Il2CppObjectRK13Vector2fIcall
bId:_Int64_System_IConvertible_ToType_m3223988955_AdjustorThunk
Uki:__ZN15dense_hashtableINSt3__24pairIK10KeyWrapperINS1_IPKcS4_EEEiEES6_24NamespaceAndNamePairHashN14dense_hash_mapIS6_iS9_NS6_14EqualsComparerI26NamespaceAndNamePairEqualsEENS0_9allocatorIS8_EEE9SelectKeyESD_SF_E6insertERKS8_
X5:__ZN24GenerateTypeTreeTransfer18BeginArrayTransferEPKcS1_Ri17TransferMetaFlags
Cqh:_Array_InternalArray__get_Item_TisPlayableBinding_t354260709_m3837494573_gshared
om:___syscall51
_Hf:_String_CreateString_m4016935005
ayh:_MatchCollection_get_FullList_m1829231879
sm:___syscall54
Hod:_Array_GetValue_m2528415604
oUi:_Transform_INTERNAL_CALL_TransformPoint_m4261269221
zyf:_Guid_AppendShort_m791023083
sRg:_List_1__ctor_m4212503576_gshared
boa:__ZN9ShaderLab9SubShader19CreateFromSubShaderERKS0_
jBc:_cff_builder_add_point1
bmi:__ZN6il2cpp2vm5Image21GetCachedResourceDataEPK11Il2CppImageRKNSt3__212basic_stringIcNS5_11char_traitsIcEENS5_9allocatorIcEEEE
sob:__Z18Transfer_BlittableI14SafeBinaryReadLb0E10ColorRGBAfEvRK29SerializationCommandArgumentsR31RuntimeSerializationCommandInfo
za:invoke_iiiiiiiiii
QP:__ZN11AudioSource25GetNumExtensionPropertiesEv
IRf:_Array_InternalArray__ICollection_CopyTo_TisUILineInfo_t4195266810_m104406798_gshared
u4b:__ZZL31RegisterRectTransformPropertiesR22GenericPropertyBindingEN32Wrapper_RectTransformAnchorMaxx013GetFloatValueEPv
nHi:_Debug_LogErrorFormat_m3558239521
Pad:_Graphic_get_canvas_m3320066409
gke:_InputField_ActivateInputFieldInternal_m3360893886
fG:__ZN4FMOD7SystemI11createSoundEPKcjP22FMOD_CREATESOUNDEXINFOPPNS_5SoundE
d0b:__ZN10FileSystem19SetCurrentDirectoryERKN4core12basic_stringIcNS0_20StringStorageDefaultIcEEEE
pGi:_Component_get_gameObject_m442555142
tQd:_Math_Log_m2526073084
W4b:__ZN23TransformChangeDispatch24RemovePermanentInterestsE15TransformAccessPKN5Unity4TypeE
Lfc:__Z47Register_UnityEngine_Coroutine_ReleaseCoroutinev
lI:__ZN15AudioReverbZone13SetFMODValuesEv
IZ:__ZN14SafeBinaryRead4InitERK16TypeTreeIteratorxx24TransferInstructionFlags10MemLabelId
Wga:__ZL19StaticDestroyShaderPv
ae:_glRenderbufferStorageMultisample
y9b:__ZN8Playable4PlayEv
Hzd:_SyncHashtable_Clone_m3726939774
$y:__ZN23AnimationPlayableOutput17SetTargetAnimatorEP8Animator
_tc:__ZN9JSONWrite8TransferI13dynamic_arrayIN4math12int3_storageELj4EEEEvRT_PKc17TransferMetaFlags
LQb:__ZN22MotionVectorRenderLoopD2Ev
pHi:_Debug_LogException_m2207318968
FPf:_Array_InternalArray__ICollection_Add_TisClientCertificateType_t1004704908_m2622721177_gshared
Bs:__ZN17PackedFloatVector8TransferI18StreamedBinaryReadILb0EEEEvRT_
T2a:__ZN7Cubemap23VirtualRedirectTransferER17RemapPPtrTransfer
Nlc:__Z37Register_UnityEngine_Screen_get_widthv
pDh:_Uri_get_Authority_m3816772302
Nac:__ZN22BlockMemoryCacheWriter11GetPathNameEv
ACe:_RSAManaged_ToXmlString_m645792083
rTi:_Touch_get_position_m3109777936
W3d:_ParameterInfo__ctor_m3269320476
T6e:_X509SubjectKeyIdentifierExtension_FromHexChars_m3244835916
EFf:_Single_CompareTo_m2785801815
Nuh:_PKCS12_MAC_m3355614022
_o:stackAlloc
dgc:__Z44Camera_CUSTOM_INTERNAL_CALL_ScreenPointToRayP12Il2CppObjectRK8Vector3fR3Ray
nPa:__ZN25SingleBlockMemoryFileData4LockEPPv
QPj:_glProgramParameteri__wrapper
DZ:__ZN17PersistentManager23PostReadActivationQueueEiPK8TypeTreeb
Ihc:__Z32RectOffset_Get_Custom_PropBottomP12Il2CppObject
kHi:_Debug_LogError_m2850623458
jKh:__ZL24UnresolvedVirtualCall_79P12Il2CppObjectPK10MethodInfo
B1g:_Collection_1_CheckWritable_m3225530705_gshared
iEj:_stat
q4:__ZN9ShaderLab10SubProgram7CompileEv
LIb:__ZN15InstancingProps14CombineBuiltinEN10Instancing11BuiltinPropES1_S1_
J$d:_PropertyBuilder_get_CanRead_m3783190070
q0:__ZN14SerializedFile14SerializedTypeD2Ev
MPf:_Array_InternalArray__ICollection_Add_TisKeyValuePair_2_t3699644050_m4052349323_gshared
$ef:_CipherSuiteCollection_System_Collections_IList_get_Item_m2175128671
lSa:__ZN6CameraD2Ev
la:invoke_iiiiiiiiiiii
emf:_DateTime_System_IConvertible_ToType_m1242864300_AdjustorThunk
_Ne:_InternalEnumerator_1_get_Current_m2446410893_AdjustorThunk
OVa:__Z29CalculateDefaultChannelsToAdd17ShaderChannelMaskS_
QRa:__ZN10TagManager13RegisterLayerEjRKN4core12basic_stringIcNS0_20StringStorageDefaultIcEEEE
oIa:__ZNSt3__26__treeI20DeviceBlendStateGLES14MemoryCompLessI16DeviceBlendStateENS_9allocatorIS1_EEE7destroyEPNS_11__tree_nodeIS1_PvEE
gRh:_CanvasRenderer_SetMaterial_m633746949
hL:__ZN10AudioMixer12RebindOutputEv
Oei:__ZNK15dense_hashtableINSt3__24pairIK10KeyWrapperIP11Il2CppClassES4_EES5_N6il2cpp8metadata16SZArrayClassHashEN14dense_hash_mapIS5_S4_SA_NS5_14EqualsComparerINS9_19SZArrayClassCompareEEENS0_9allocatorIS7_EEE9SelectKeyESE_SG_E5beginEv
kne:_LayoutRebuilder_PerformLayoutControl_m4241054021
hUh:__ZN6il2cpp2vm17SetupFieldsLockedEP11Il2CppClassRKNS_2os12FastAutoLockE
yHb:__ZNK9GfxDevice20IsViewportFullscreenEv
ML:__ZN11AudioSourceD0Ev
aDa:__ZN18GlslGpuProgramGLES13SwitchProgramEj
$Pa:__ZN20ArchiveStorageReaderC2E10MemLabelId
ylg:__Z132RuntimeInvoker_Int32_t2950945753_RuntimeObject_Int32_t2950945753_Int32_t2950945753_RuntimeObject_Int32_t2950945753_Int32_t2950945753PFvvEPK10MethodInfoPvPS4_
Lmb:__ZN16MemoryFileSystem4NameEv
Ilc:__Z13SetCopyBufferRKN4core12basic_stringIcNS_20StringStorageDefaultIcEEEE
pth:_TlsException__ctor_m818940807
sld:_X509CertificateEnumerator_System_Collections_IEnumerator_get_Current_m418791713
ILc:_UNITY_FT_New_Size
$dc:__Z42ScriptingGetComponentsOfTypeFromGameObjectRK26ScriptingGetComponentsArgs
Umj:__ZL73ArgumentCache_t2187958399_CustomAttributesCacheGenerator_m_ObjectArgumentP21CustomAttributesCache
ioh:_Array_swap_TisRaycastResult_t3360306849_TisRaycastResult_t3360306849_m3400922624_gshared
GOh:_AudioListener_ReadExtensionName_m929423100
$gd:_CspParameters__ctor_m2741097571
$0a:__ZNSt3__27__sort4IRPFbRKNS_4pairIN9ShaderLab16FastPropertyNameEN18UnityPropertySheet11UnityTexEnvEEES8_EPS6_EEjT0_SD_SD_SD_T_
hAc:_cf2_hintmap_build
bTi:_Texture_get_width_m888163864
qJc:_Line_Up
gAb:__Z29Transfer_Blittable_ArrayFieldI18StreamedBinaryReadILb1EExEvRT_R9ArrayInfoRK23StaticTransferFieldInfo
he:_emscripten_glBufferSubData
CHf:_String_ReplaceUnchecked_m1381393810
CQe:_DefaultComparer_Compare_m3278268937_gshared
Rp:__Z17CalculateGlobalRS23TransformAccessReadOnly
Azi:__ZNSt3__210__list_impIPN6il2cpp5utils10MemoryPool6RegionENS_9allocatorIS5_EEE5clearEv
urb:__ZN14SafeBinaryRead21TransferSTLStyleArrayI13dynamic_arrayI9BoundsIntLj4EEEEvRT_17TransferMetaFlags
cjb:__ZN22MemoryCacherReadBlocks14LockCacheBlockEjPPhS1_
y9a:__ZNK9GfxDevice26GetSinglePassStereoEyeMaskEv
yHi:_DebugLogHandler_Internal_Log_m4175774469
uti:__ZN4utf88internal15increase_safelyIPKcEENS0_9utf_errorERT_S5_
iUh:__ZN6il2cpp2vmL21SetupPropertiesLockedEP11Il2CppClassRKNS_2os12FastAutoLockE
XKc:__ZN20TextRenderingPrivate8FontImpl16CacheFontForTextEPtiifjPK13dynamic_arrayINS_16TextFormatChangeELj4EE
qud:_CharEnumerator_get_Current_m525608209
K$c:__Z21ArrayElementTypeCheckP11Il2CppArrayPv
VOj:_emscripten_glTexSubImage2D__wrapper
Yrf:_StackTrace_init_frames_m641783388
F3e:_PublicKey_DecodeRSA_m1824703659
aGj:__ZNSt3__212basic_stringIcNS_11char_traitsIcEENS_9allocatorIcEEE6appendEjc
ZCb:__Z13TransferFieldI18StreamedBinaryReadILb0EELb0E16Converter_StringEvRK23StaticTransferFieldInfoR31RuntimeSerializationCommandInfoRT1_
zTc:__Z42Register_UnityEngine_Canvas_get_rootCanvasv
mvd:_ArrayListWrapper_set_Item_m3849584877
Qe:_TTF_RenderText_Solid
Hig:_List_1__ctor_m3947764094_gshared
gCh:_Parser_IsIgnorePatternWhitespace_m2107132682
R0e:_HttpRequestCreator_Create_m400548686
XXc:__ZN11UnityEngine7Connect16PersistentValuesC2Ev
oah:_ReadOnlyCollection_1_System_Collections_IList_Insert_m134149130_gshared
hsc:__Z18Transfer_BlittableI9JSONWriteLb0E5RectTIiEEvRK29SerializationCommandArgumentsR31RuntimeSerializationCommandInfo
eye:_BigInteger_get_Rng_m4216817480
qzc:_cf2_getStdVW
LKf:_Array_InternalArray__ICollection_Remove_TisDateTime_t3738529785_m2250893026_gshared
sDa:__Z15IsIEEE754Format14GraphicsFormat
otb:__Z19TransferField_ArrayI17RemapPPtrTransfer27Converter_UnityEngineObjectEvRK23StaticTransferFieldInfoR31RuntimeSerializationCommandInfoRT0_
Za:invoke_iifiii
dyd:_KeyNotFoundException__ctor_m541499307
fMf:_SetPropertyUtility_SetStruct_TisSpriteState_t1362986479_m665096788_gshared
Ulg:__Z61RuntimeInvoker_Single_t1397266774_RuntimeObject_RuntimeObjectPFvvEPK10MethodInfoPvPS4_
RKf:_Array_InternalArray__ICollection_Remove_TisIntPtr_t_m3807208150_gshared
Dyg:__Z71RuntimeInvoker_Void_t1185182177_Vector3_t3722313464_Vector3_t3722313464PFvvEPK10MethodInfoPvPS4_
IKe:_InternalEnumerator_1_get_Current_m2316281569_AdjustorThunk
hlf:_DateTime__ctor_m1095105629
$qa:__ZN13GfxDeviceGLES15UploadTexture2DE9TextureID16TextureDimensionPKhiii14GraphicsFormati18TextureUploadFlags16TextureUsageMode
XDh:_Event_Cleanup_m2477919477
dK:__ZN4FMOD6System9createDSPEP20FMOD_DSP_DESCRIPTIONPPNS_3DSPE
F9i:__ZL87Thread_t2300836069_CustomAttributesCacheGenerator_Thread_GetCompressedStack_m2923422412P21CustomAttributesCache
kkf:_SslClientStream_get_ClientCertificates_m998716871
dG:__ZN4FMOD8ChannelI11EndCallbackEv
loc:__ZN8GUIStyle14SetDefaultFontEPN13TextRendering4FontE
A5a:__ZN15QualitySettings23VirtualRedirectTransferER24GenerateTypeTreeTransfer
uhe:_ObjectReader_ReadValue_m3145979203
L5c:_CanvasScaler_OnDisable_m3424669401
pyj:__ZL68Scrollbar_t1494447233_CustomAttributesCacheGenerator_m_NumberOfStepsP21CustomAttributesCache
TWh:__ZN30dense_hashtable_const_iteratorINSt3__24pairIK10KeyWrapperIPK19Il2CppGenericMethodEPK26Il2CppGenericMethodIndicesEES6_N6il2cpp8metadata23Il2CppGenericMethodHashEN14dense_hash_mapIS6_SA_SE_NS6_14EqualsComparerINSD_26Il2CppGenericMethodCompareEEENS0_9allocatorISB_EEE9SelectKeyESI_SK_EppEv
Wyc:_UNITY_FT_Request_Metrics
Pji:__ZN6il2cpp6icalls8mscorlib6System10Reflection10MonoMethod29get_IsGenericMethodDefinitionEP22Il2CppReflectionMethod
igi:__ZN6il2cpp2vm6Thread21AllocThreadStaticDataEi
yVd:_Default_SelectMethod_m469311730
cKi:_Input_get_mousePosition_m1616496925
Qn:FUNCTION_TABLE_difi
Bsi:__ZN30dense_hashtable_const_iteratorINSt3__24pairIK10KeyWrapperIPK19Il2CppGenericMethodEP10MethodInfoEES6_N6il2cpp8metadata23Il2CppGenericMethodHashEN14dense_hash_mapIS6_S9_SD_NS6_14EqualsComparerINSC_26Il2CppGenericMethodCompareEEENS0_9allocatorISA_EEE9SelectKeyESH_SJ_EppEv
M1f:_UInt32_ToString_m2066897296_AdjustorThunk
bP:__Z13RegisterClassI13AudioListenerEvv
uyd:_Enumerator_Reset_m4274366540
Grc:__Z18Transfer_BlittableI9JSONWriteLb0E8Vector3fEvRK29SerializationCommandArgumentsR31RuntimeSerializationCommandInfo
Pf:_emscripten_glUniform4i
eDc:_otv_FeatureList_validate
$e:_emscripten_glUniform4f
yj:___unlock
mCc:_otv_validate
z_b:__ZN13sorted_vectorINSt3__24pairIN4core12basic_stringIcNS2_20StringStorageDefaultIcEEEES6_EEN10vector_mapIS6_S6_27compare_tstring_insensitiveIS6_E13stl_allocatorIS7_L18MemLabelIdentifier38ELi16EEE13value_compareESD_E9erase_oneIS6_EEjRKT_
DCf:_X509Certificate_Equals_m3784196370
gVg:_List_1__ctor_m3376067838_gshared
zM:__ZN20SoundChannelInstance19setReverbPropertiesEP29FMOD_REVERB_CHANNELPROPERTIES
Ngg:_Enumerator_MoveNext_m1446151600_gshared
rAf:_SHA1Internal_ProcessFinalBlock_m1403775421
plc:__Z40Register_UnityEngine_Transform_IsChildOfv
Efe:_RemotingServices_GetOrCreateClientIdentity_m648299611
aQe:_InternalEnumerator_1_get_Current_m2356858238_AdjustorThunk
Tgc:__Z45Register_UnityEngine_Display_GetSystemExtImplv
yCe:_RSAManaged_ImportParameters_m1844641996
ASe:_Enumerator_System_Collections_IDictionaryEnumerator_get_Value_m3325938730_AdjustorThunk
lv:__ZN7mecanim9animation23TransformValuesFromClipEiiiRKNS_10ValueArrayERKNS0_10ClipOutputERKNS0_12ClipBindingsERS1_RNS_14ValueArrayMaskEb
pZe:_ValueCollection_System_Collections_ICollection_get_SyncRoot_m1114275063_gshared
USh:__ZL17log2withScale_128yyi
pyf:_Guid_Equals_m1866984197
CPc:__ZNSt3__218__insertion_sort_3IRNS_6__lessIN2UI14DepthSortEntryES3_EEPS3_EEvT0_S7_T_
fUd:_PlatformNotSupportedException__ctor_m1787918017
Kda:__ZN13RuntimeStaticI15DirectorManagerLb0EE16StaticInitializeEPv
u7g:_ReadOnlyCollection_1_System_Collections_ICollection_CopyTo_m2643246984_gshared
Wcb:__ZN11TimeManager6UpdateEv
Dhg:_Enumerator_System_Collections_IEnumerator_get_Current_m209407522_gshared
E5c:_CanvasScaler_get_fallbackScreenDPI_m2811935689
Zlf:_DateTimeFormatInfo_ReadOnly_m890935083
Hui:__ZN6il2cpp2vm3CCW9CreateCCWEP12Il2CppObject
Nqi:__ZN6il2cpp2vm6Method17IsGenericInstanceEPK10MethodInfo
pEj:_fflush
H3:__ZN17LightProbeContext4InitERK16LightmapSettingsRK14RenderSettings
STb:__ZN18DeferredRenderLoop14RenderLightingER21ActiveLightingContextP13RenderTexture9TextureIDPS3_iRK8Vector4fRK14LightingLayersR10MinMaxAABBb12ObjectHandleI17RenderSurface_TagP17RenderSurfaceBaseE
YRi:_SceneManager_Internal_ActiveSceneChanged_m3676176255
gDi:__GLOBAL__sub_I_Error_cpp
wsf:_Double_System_IConvertible_ToInt16_m3591921965
J8a:__ZN9Texture3DD2Ev
h2g:_Collection_1_set_Item_m4280581817_gshared
FBd:_Convert_ToChar_m2796006345
Skh:_Array_InternalArray__Insert_TisContentType_t1787303396_m3566390691_gshared
Hvd:_ArrayListWrapper_GetEnumerator_m2336495952
iWb:__Z34ProcessIndexListIsNodeVisibleStep2RK22SceneCullingParametersPK9SceneNodePK4AABBR9IndexList
pFb:__ZN10MonoScriptD2Ev
pHa:__ZN19ConstantBuffersGLES8UpdateCBE5CbKeyPKvj
kOh:_AudioSource_get_spatializeInternal_m2117549793
dic:__Z39Input_CUSTOM_INTERNAL_get_mousePositionP8Vector3f
Odd:_SerializationCallbacks_GetMethodsByAttribute_m2095490433
TEc:_tt_cmap13_char_next
xtj:__ZL117EventSystem_t1003666588_CustomAttributesCacheGenerator_EventSystem_t1003666588____lastSelectedGameObject_PropertyInfoP21CustomAttributesCache
_na:__ZN9ShaderLab4Pass16SetupPassOptionsEv
dh:_JS_Sound_ReleaseInstance
Ypa:__ZN13GfxDeviceGLES19DrawBuffersIndirectEP9GfxBufferPK18VertexStreamSourceiP17VertexDeclaration17ShaderChannelMask16GfxPrimitiveType15ComputeBufferIDj
byf:_Guid_CheckArray_m921056615
t9d:_ConfigHandler_ReadLifetine_m208994800
$$f:_UInt16_System_IConvertible_ToByte_m3185614807_AdjustorThunk
HPi:_Rect_get_max_m350137314_AdjustorThunk
Cm:FUNCTION_TABLE_diddi
vgi:__ZN6il2cpp6icalls8mscorlib6System5Array8FastCopyEP11Il2CppArrayiS5_ii
xjc:__Z26Material_CUSTOM_SetIntImplP12Il2CppObjectii
Vhc:__Z42Register_UnityEngine_RectOffset_get_bottomv
SDj:_newlocale
vrb:__ZN9BoundsInt8TransferI14SafeBinaryReadEEvRT_
ZMj:_emscripten_glUniform1f__wrapper
YHj:dynCall_di
jIi:_BaseInvokableCall_AllowInvoke_m878393606
nrc:__Z28RegisterModule_JSONSerializev
Ujb:__ZN2UI13RectTransform8TransferI14SafeBinaryReadEEvRT_
zsc:__Z35Transfer_Blittable_FixedBufferFieldI9JSONWriteaEvRK29SerializationCommandArgumentsR31RuntimeSerializationCommandInfo
tEi:_Behaviour_get_enabled_m753527255
kcc:__Z20IsHumanControllingUsv
BYe:_Enumerator_MoveNext_m181298207_gshared
GW:__ZNK20DynamicHeapAllocatorI17LowLevelAllocatorE10GetPtrSizeEPKv
v0i:__ZL51TextInfo_t3810425522_CustomAttributesCacheGeneratorP21CustomAttributesCache
EMa:__ZN10systeminfo21GetPersistentDataPathEv
Lpa:__ZN13GfxDeviceGLES17DestroyGpuProgramEPK10GpuProgram
Rlh:_Array_InternalArray__set_Item_TisRaycastResult_t3360306849_m730888808_gshared
Rnb:__Z44InitializeTransferFunctionScriptingTraitsForI18StreamedBinaryReadILb0EEEvR31TransferFunctionScriptingTraits
cYe:_Enumerator_System_Collections_IEnumerator_Reset_m53411943_gshared
mSb:__ZNSt3__218__insertion_sort_3IR23CompareReflectionProbesP31RuntimeReflectionProbeBlendInfoEEvT0_S5_T_
ytb:__ZN12NativeBufferI27Converter_SimpleNativeClassI8GradientEE15SetupForWritingER9ArrayInfo
Mye:_Kernel_RightShift_m2207393597
rga:__ZNSt3__213__stable_sortIRNS_4lessIN4core12basic_stringIcNS2_20StringStorageDefaultIcEEEEEENS_11__wrap_iterIPS6_EEEEvT0_SC_T_NS_15iterator_traitsISC_E15difference_typeEPNSF_10value_typeEi
nBj:__ZL48Shadow_t773074319_CustomAttributesCacheGeneratorP21CustomAttributesCache
k8:__ZN12_GLOBAL__N_113StaticDestroyEPv
KRj:_glUnmapBuffer__wrapper
fwc:__ZN8JSONRead21TransferSTLStyleArrayINSt3__26vectorI8Gradient13stl_allocatorIS3_L18MemLabelIdentifier1ELi16EEEEEEvRT_17TransferMetaFlags
rdb:__ZNSt3__218__insertion_sort_3IRNS_6__lessINS_4pairIPKN5Unity4TypeE7Hash128EES8_EEPS8_EEvT0_SC_T_
kje:_InputField_set_onValueChanged_m3658917578
gvb:__ZN10RectOffset8TransferI24GenerateTypeTreeTransferEEvRT_
qJd:_BinaryReader__ctor_m2266204403
uAe:__ZN21InterfaceFuncInvoker5IiP22ByteU5BU5D_t4116647657iiS1_iE6InvokeEjP11Il2CppClassP12Il2CppObjectS1_iiS1_i
ufg:_Enumerator_VerifyState_m3047769867_AdjustorThunk
sub:__Z18Transfer_BlittableI24GenerateTypeTreeTransferLb1E5RectTIiEEvRK29SerializationCommandArgumentsR31RuntimeSerializationCommandInfo
aoc:__ZN16GUIKeyboardStateD2Ev
mPc:__ZN2UI13CanvasManager19RemoveDirtyRendererEPNS_6CanvasEPNS_14CanvasRendererE
UCj:_isspace
bge:_BinaryFormatter__ctor_m2620705134
ZUc:__ZN11UnityEngine15PlatformWrapper25GetGraphicsRendererStringEv
fWf:_UTF7Encoding_InternalGetBytes_m797138468
p4b:__ZZL31RegisterRectTransformPropertiesR22GenericPropertyBindingEN39Wrapper_RectTransformAnchoredPositiony113SetFloatValueEPvf
nV:__ZN11UnityEngine15CloudWebService17WebFileDownloaderINS0_20WebRequestRestClientENS0_23WebRequestRestHeaderMapEED2Ev
Qb:invoke_vi
Wld:_SmallXmlParser_HandleWhitespaces_m549588711
Otc:__ZN9JSONWrite8TransferI13dynamic_arrayI9BoundsIntLj4EEEEvRT_PKc17TransferMetaFlags
Ob:invoke_vd
pb:invoke_vf
Yxh:_Regex_get_RightToLeft_m2317867572
q3:__ZNK10GameObject8IsActiveEv
Agc:__Z34Component_Get_Custom_PropTransformP12Il2CppObject
csj:__ZL67g_UnityEngine_PhysicsModule_Assembly_CustomAttributesCacheGeneratorP21CustomAttributesCache
RCa:__ZN18GfxFramebufferGLES23SetupDefaultFramebufferEPP17RenderSurfaceBaseS2_N2gl6HandleILNS3_10ObjectTypeE9EEE
v8c:_DefaultControls_CreateDropdown_m3286664171
E6a:__ZN13ScreenManager18RequestOrientationE17ScreenOrientation
GUh:__ZN6il2cpp2vm5Class12SetupMethodsEP11Il2CppClass
Adc:__Z39DeleteLastPathNameComponentWithAnySlashRKN4core12basic_stringIcNS_20StringStorageDefaultIcEEEE
lnc:__ZN10GUIManager14InitGUIManagerEv
B0f:_UInt16_Equals_m642257745
hod:_Array_System_Collections_IList_IndexOf_m3301661616
XUd:_AssemblyFileVersionAttribute__ctor_m3720707642
j6d:_RuntimeResourceSet_CloneDisposableObjectIfPossible_m2725520898
upc:__Z37Register_UnityEngine_GUIStyle_Cleanupv
Ma:invoke_iiifii
Ylc:__Z26Mesh_CUSTOM_SetIndicesImplP12Il2CppObjecti16GfxPrimitiveTypeP11Il2CppArrayihi
Xte:_SliderEvent__ctor_m3149452941
lkd:_DeriveBytes__cctor_m1212925033
dbd:_Graphic_OnDisable_m1097930217
U1h:__ZN6il2cpp6icalls8mscorlib6System8MonoType13IsPointerImplEP20Il2CppReflectionType
Qi:_emscripten_glFramebufferRenderbuffer
XUb:__ZN19CullingGroupManager17CullAndSendEventsERK22SceneCullingParametersiRK13CullingOutputRK8JobFence
mRa:__ZN9Transform30EnsureTransformHierarchyExistsEv
z_f:_Type_FilterName_impl_m2651733559
Xod:_Array_GetValue_m116098292
ufc:__Z46Register_UnityEngine_Application_get_isPlayingv
n_b:__ZNSt3__26vectorINS_4pairIN4core12basic_stringIcNS2_20StringStorageDefaultIcEEEEPK17MessageIdentifierEENS_9allocatorISA_EEE12__move_rangeEPSA_SE_SE_
wOb:__ZN14qsort_internal17MedianOfThreeSwapIP17RODataReplacement19ROSorterReplacementEEvT_S4_S4_T0_
DGf:_String_Split_m3646115398
HQi:_RectOffset_ToString_m2007443979
wTh:__ZNK15dense_hashtableINSt3__24pairIK10KeyWrapperIPK22Il2CppGenericParameterEP11Il2CppClassEES6_N6il2cpp5utils11PointerHashIS4_EEN14dense_hash_mapIS6_S9_SE_NS6_14EqualsComparerINS0_8equal_toIS5_EEEENS0_9allocatorISA_EEE9SelectKeyESJ_SL_E3endEv
wdc:__ZN17TransformInternal36OnScaleChangedCalculateTransformTypeE15TransformAccess
qNa:__ZN17ArchiveFileSystem10ToAbsoluteEPKc
MVc:__ZN19UnityConnectService15GetPlayerUserIdEv
VOf:_Array_InternalArray__IndexOf_TisSByte_t1669577662_m4156538463_gshared
ir:__ZN7mecanim6CRCKeyENS_7eStringE
ebc:__ZL12SetPrefValueRKN4core12basic_stringIcNS_20StringStorageDefaultIcEEEERK9PrefValue
l9a:__ZN19ShaderPropertySheet20ReservePropertyCountEj
ati:__ZN6il2cpp5utils11StringUtils6PrintfEPKcz
cfi:__ZNSt3__26vectorIN6il2cpp8metadata18GenericArrayMethodENS_9allocatorIS3_EEE7reserveEj
Ema:__ZN15NameToObjectMapI6ShaderNSt3__23mapI4PPtrIS0_EN4core12basic_stringIcNS5_20StringStorageDefaultIcEEEENS1_4lessIS4_EENS1_9allocatorINS1_4pairIKS4_S9_EEEEEENS1_8multimapIS9_S4_NSA_IS9_EENSC_INSD_IKS9_S4_EEEEEEE4FindERSK_
q2a:__ZN24GenerateTypeTreeTransfer21TransferResourceImageE19ActiveResourceImagePKcR13StreamingInfoPvjiPKN5Unity4TypeE
Unh:_Array_Sort_TisVector3_t3722313464_m1030213405_gshared
Eoi:__ZN6il2cpp2vm6Object5CloneEP12Il2CppObject
ZAi:__ZN6il2cpp6icalls8mscorlib6System9Threading5Mutex20CreateMutex_internalEbP12Il2CppStringPb
eRj:_emscripten_glLinkProgram__wrapper
EGi:_Coroutine_Finalize_m1957108547
SXa:__ZNSt3__212__deque_baseI18ReflectionProbeJobNS_9allocatorIS1_EEED2Ev
Ez:__ZN11UnityEngine9Animation27DestroyAnimationSetBindingsEPNS0_20AnimationSetBindingsERN7mecanim6memory9AllocatorE
nia:__ZN15dense_hashtableINSt3__24pairIKiN4core17string_with_labelILi1EEEEEi18SInt32HashFunctionN14dense_hash_mapIiS5_S7_NS0_8equal_toIiEE13stl_allocatorIS6_L18MemLabelIdentifier1ELi16EEE9SelectKeyESA_SD_E13set_empty_keyERKS6_
sGi:_Component_GetComponentInChildren_m388868270
idg:_GenericEqualityComparer_1_Equals_m1705889345_gshared
oE:__ZN8Animator12CleanupClassEv
dwc:__Z13TransferFieldI8JSONReadLb0E27Converter_SimpleNativeClassI10RectOffsetEEvRK23StaticTransferFieldInfoR31RuntimeSerializationCommandInfoRT1_
H0e:_FtpWebRequest__cctor_m699542155
emi:__GLOBAL__sub_I_GenericMetadata_cpp
G$e:_NameObjectCollectionBase_GetEnumerator_m3677320185
LVb:__Z24CalculateSpotLightBoundsffRK10Matrix4x4fR15SpotLightBounds
z4f:_Dictionary_2_TryGetValue_m3495031886_gshared
KZa:__ZNK13RenderTexture21GetShadowSamplingModeEv
AR:__ZN23CloudWebServicesManager23VirtualRedirectTransferER14SafeBinaryRead
PDe:_PKCS12_AddCertificate_m3857004455
XEb:__Z19ShouldTransferFieldR32SerializationCommandQueueBuilder17ScriptingClassPtriR18TransferField_InfoRK20CoreScriptingClasses
VDf:_SecurityElement_IsValidText_m1346599242
PHa:__ZN26SinglePassStereoSupportExt21SetStereoMatrixCommonE21MonoOrStereoscopicEye24BuiltinShaderMatrixParamRK10Matrix4x4f
NK:__ZN5audio5mixer22UpdateAudioMixerMemoryERKNS0_18AudioMixerConstantERNS0_16AudioMixerMemoryEfPN4FMOD6SystemEf
hyc:__ZL21InitializeCachedStripPv
R4f:_Dictionary_2_System_Collections_Generic_ICollectionU3CSystem_Collections_Generic_KeyValuePairU3CTKeyU2CTValueU3EU3E_Add_m3652125112_gshared
qhi:__ZN6il2cpp6icalls8mscorlib6System9Threading6Thread23GetCachedCurrentCultureEP12Il2CppThread
iY:__ZNK6Camera22GetWorldToCameraMatrixEv
hHj:runPostSets
Uoi:__ZN6il2cpp2vm12GenericClass11IsValueTypeEP18Il2CppGenericClass
SDb:__ZN13MonoBehaviour7SetNameEPKc
Kde:_MethodDictionary_IsOverridenKey_m946843558
FLd:_FileStream_BeginRead_m2419864669
Qjh:_U3CStartU3Ec__Iterator0_MoveNext_m4270440387_gshared
nYh:__ZN10KeyWrapperIN6il2cpp5utils13dynamic_arrayIPK10Il2CppTypeLj4EEEEC2ERKS7_
MIb:__ZN17InstancingBatcher22FindCBUpperBoundKonstsEv
Y7:__GLOBAL__sub_I_runtime_shaders_shaderimpl_0_cpp
Ogb:__ZN18AwakeFromLoadQueue5ClearEv
bMd:_FileStream_SetLength_m99749826
mUb:__ZNSt3__27__sort5IR15ReflProbeSorterPP15ReflectionProbeEEjT0_S6_S6_S6_S6_T_
xea:__ZN8Playable10DisconnectEPS_i
uk:_glGenTransformFeedbacks
fMa:__ZN13LoadOperationD2Ev
PEd:_Int16_System_IConvertible_ToType_m3672347013
q$f:_Type_GetProperty_m4206634422
Dmd:_AttrListImpl_GetValue_m3657391095
IHb:__Z21PlayerStartFirstSceneb
OVg:_List_1_CheckIndex_m3933537097_gshared
a1a:__ZNSt3__27__sort5IRPFbRKNS_4pairIN9ShaderLab16FastPropertyNameEN18UnityPropertySheet11UnityTexEnvEEES8_EPS6_EEjT0_SD_SD_SD_SD_T_
cva:__ZNK7ApiGLES18GetExtensionStringEv
nVg:_List_1_System_Collections_IList_IndexOf_m2444653486_gshared
_Mj:_emscripten_glVertexAttrib1f__wrapper
Ukb:__ZNK12HandlerChain4SizeERK13FileEntryData
Yo:FUNCTION_TABLE_iiiiiiiii
T7g:_ReadOnlyCollection_1_System_Collections_Generic_ICollectionU3CTU3E_Remove_m4177779688_gshared
Xtd:_Char_IsLetter_m3996985877
EWg:_Queue_1_Peek_m2302800625_gshared
iYi:__ZL51Delegate_t1188392813_CustomAttributesCacheGeneratorP21CustomAttributesCache
fDh:_Uri__ctor_m253204164
Zvi:_GC_allochblk
Zgb:__Z15UnloadGameScenev
BRf:_Array_InternalArray__ICollection_CopyTo_TisKeyframe_t4206410242_m2132255743_gshared
FRj:_glCheckFramebufferStatus__wrapper
Mcd:_Image__ctor_m2551076292
i_e:_Dictionary_2_System_Collections_ICollection_CopyTo_m3143696177_gshared
Tng:__Z103RuntimeInvoker_Void_t1185182177_Int32_t2950945753_Int32_t2950945753_Int32_t2950945753_SByte_t1669577662PFvvEPK10MethodInfoPvPS4_
Tlc:__Z36Renderer_Get_Custom_PropSortingOrderP12Il2CppObject
n5h:__ZNK15dense_hashtableINSt3__24pairIK10KeyWrapperIPK10Il2CppTypeEjEES6_N6il2cpp8metadata14Il2CppTypeHashEN14dense_hash_mapIS6_jSB_NS6_14EqualsComparerINSA_26Il2CppTypeEqualityComparerEEENS0_9allocatorIS8_EEE9SelectKeyESF_SH_E13find_positionERS7_
AZa:__ZN7Texture5ResetEv
Utb:__Z18Transfer_BlittableI24GenerateTypeTreeTransferLb0E8Vector2fEvRK29SerializationCommandArgumentsR31RuntimeSerializationCommandInfo
Lae:_Context_get_HasDynamicSinks_m3952434387
vUf:_Latin1Encoding_GetByteCount_m1145650505
Jtb:__Z18Transfer_BlittableI24GenerateTypeTreeTransferLb1EhEvRK29SerializationCommandArgumentsR31RuntimeSerializationCommandInfo
DAb:__Z13TransferFieldI18StreamedBinaryReadILb1EELb0E16Converter_StringEvRK23StaticTransferFieldInfoR31RuntimeSerializationCommandInfoRT1_
bfc:__ZNK16TypeTreeIterator10ByteOffsetEv
rIj:dynCall_iiifii
tda:__ZnwjRKSt9nothrow_t
PC:__ZN8Animator11ClearObjectEv
Cnd:_ApplicationException__ctor_m2557611022
V$a:__ZN14SafeBinaryRead19TransferSTLStyleMapINSt3__23mapI39DeprecatedFastPropertyNameSerializationN18UnityPropertySheet11UnityTexEnvENS1_4lessIS3_EENS1_9allocatorINS1_4pairIKS3_S5_EEEEEEEEvRT_17TransferMetaFlags
SSg:_List_1_CheckMatch_m579516778_gshared
Vrd:_Buffer_ByteLengthInternal_m1388208719
bRf:_Array_InternalArray__ICollection_CopyTo_TisInt64_t3736567304_m2845057751_gshared
Yec:__Z35UnregisterSerializationCacheBuilderPFv17ScriptingClassPtrR23CachedSerializationDataRbE
fId:_Int64_System_IConvertible_ToUInt32_m109903525_AdjustorThunk
_3:__Z30GetBuiltinVectorParamArraySize24BuiltinShaderVectorParam
HRf:_Array_InternalArray__ICollection_CopyTo_TisUICharInfo_t75501106_m4268526610_gshared
tZa:__ZN13RenderTextureC2E10MemLabelId18ObjectCreationMode
dFd:_Int32_GetFormatException_m519586683
M8i:__ZL46StringBuilder_t_CustomAttributesCacheGeneratorP21CustomAttributesCache
Yeg:_Enumerator_MoveNext_m1131351993_gshared
mUd:_RankException__ctor_m2226473861
Lqh:_Array_InternalArray__get_Item_TisVector2_t2156229523_m2502961026_gshared
x6:__ZN21RendererUpdateManager11AddRendererER8Renderer
X2b:__Z13RegisterClassI15ResourceManagerEvv
Aob:__Z35Transfer_Blittable_FixedBufferFieldI14SafeBinaryReadsEvRK29SerializationCommandArgumentsR31RuntimeSerializationCommandInfo
oab:__ZN14SafeBinaryRead21TransferSTLStyleArrayI13dynamic_arrayIfLj4EEEEvRT_17TransferMetaFlags
JBd:_Convert_ToDateTime_m3802186295
bti:__ZN6il2cpp5utils11StringUtils11Utf16ToUtf8EPKDs
yfb:__ZN18StreamedBinaryReadILb0EE21TransferSTLStyleArrayINSt3__26vectorIN15ResourceManager10DependencyE13stl_allocatorIS5_L18MemLabelIdentifier52ELi16EEEEEEvRT_17TransferMetaFlags
u2f:_UInt64_CompareTo_m1614517204_AdjustorThunk
oVc:__ZN11UnityEngine15PlatformWrapper20IsRootedOrJailbrokenEv
qLb:__ZZ23InitPlayerLoopCallbacksvEN52PreLateUpdateScriptRunBehaviourLateUpdateRegistrator7ForwardEv
GVb:__Z33IntersectAABBPlaneBoundsOptimizedRK4AABBPKN4math7_float4Ei
aqa:__ZN9GfxDevice19EndGeometryJobFrameEv
JEh:_GUILayoutUtility_Layout_m1159951704
nie:_InputField_get_shouldActivateOnSelect_m3055465770
Dtb:__ZN27Converter_SimpleNativeClassI17AnimationCurveTplIfEE17ScriptingToNativeER18ScriptingObjectPtrPS1_
y_f:_Type__cctor_m2371893800
KBi:__ZN6il2cpp8metadata24Il2CppGenericInstCompare7CompareERK10KeyWrapperIPK17Il2CppGenericInstES8_
QWh:__ZNK15dense_hashtableINSt3__24pairIK10KeyWrapperIPK19Il2CppGenericMethodEPK26Il2CppGenericMethodIndicesEES6_N6il2cpp8metadata23Il2CppGenericMethodHashEN14dense_hash_mapIS6_SA_SE_NS6_14EqualsComparerINSD_26Il2CppGenericMethodCompareEEENS0_9allocatorISB_EEE9SelectKeyESI_SK_E5beginEv
N0c:_ExecuteEvents_Execute_m3049310229
xt:__ZN27AnimationLayerMixerPlayable21UpdateLayerParametersEv
bw:__ZN7mecanim9animation16CopyMotionOutputEPKNS0_18AnimationNodeStateEPS1_bbRKNS_6bitsetILj83EEE
f1b:__ZNK17AnimationCurveTplIfE8EvaluateEfPNS0_5CacheE
uKb:__Z31ManagerContextInitializeClassesv
a8g:_ReadOnlyCollection_1_System_Collections_IList_Contains_m2650112051_gshared
oJf:_Array_get_swapper_TisVector3_t3722313464_m1221246401_gshared
vGc:_UNITY_FT_List_Finalize
zPb:__Z20LightAttenuateApproxRKfS0_
p7:__ZN9Scripting30SetCachedPtrOnScriptingWrapperE18ScriptingObjectPtrP6Object
Lv:__ZN17AnimationPlayable17SetInternalWeightEf
m8e:_RepeatContext_get_IsMinimum_m3640286252
Xhe:_ObjectRecord_ChainFixup_m1889316362
kXa:__ZN18BlockRangeInternal16PopLastNodeIndexEP10BlockRangeji
a4c:_TouchInputModule_UpdateModule_m2582897964
K9a:__ZN4MeshD0Ev
p_c:__ZL42RequestRecreateEyeTexturesBeforeNextUpdatev
kv:__ZN21AnimationClipPlayable23ProcessRootMotionNoClipEPK35AnimationPlayableEvaluationConstantPK32AnimationPlayableEvaluationInputP33AnimationPlayableEvaluationOutput
bSc:__Z36CanvasRenderer_CUSTOM_SetPopMaterialP12Il2CppObjectS0_i
Gsc:__Z18Transfer_BlittableI9JSONWriteLb0EdEvRK29SerializationCommandArgumentsR31RuntimeSerializationCommandInfo
XCc:_otv_u_O_O_u_O_O
MSa:__ZN6Camera8TransferI19StreamedBinaryWriteILb0EEEEvRT_
Oof:_DBNull_System_IConvertible_ToSByte_m3533624679
nDj:_wctomb
Ntd:_Char_CompareTo_m42489266
BHg:__Z67RuntimeInvoker_Void_t1185182177_Int32_t2950945753_Double_t594665363PFvvEPK10MethodInfoPvPS4_
ggc:__Z27Camera_CUSTOM_GetAllCamerasP11Il2CppArray
Wc:___cxa_rethrow
F4d:_ParameterInfo_GetCustomAttributes_m2376494592
juc:__Z18Transfer_BlittableI8JSONReadLb1EhEvRK29SerializationCommandArgumentsR31RuntimeSerializationCommandInfo
Xad:_Graphic_get_canvasRenderer_m315509948
R_g:_Collection_1_System_Collections_IList_Contains_m3397768605_gshared
kzg:__Z90RuntimeInvoker_Void_t1185182177_Int64_t3736567304_Int32_t2950945753_RuntimeObject_IntPtr_tPFvvEPK10MethodInfoPvPS4_
eNj:_glBindRenderbuffer__wrapper
Toh:_Dictionary_2_Do_CopyTo_TisInt32_t2950945753_TisInt32_t2950945753_m3384108308_gshared
Hwf:_CultureInfo_construct_internal_locale_from_name_m3254739477
Pjf:_RSASslSignatureDeformatter_VerifySignature_m1061897602
oCe:_RSAManaged_remove_KeyGenerated_m2046909903
vjd:_RandomNumberGenerator_Create_m4162970280
mSf:_Array_InternalArray__Insert_TisLabelFixup_t858502054_m171542753_gshared
uPe:_InternalEnumerator_1_System_Collections_IEnumerator_get_Current_m3539708496_AdjustorThunk
Ilb:__ZN20LocalFileSystemPosix4ReadER13FileEntryDatayyPvPy
XSb:__ZNSt3__211__sift_downIRN23ForwardShaderRenderLoop18RenderObjectSorterILb0EEEP21ForwardRenderPassDataEEvT0_S7_T_NS_15iterator_traitsIS7_E15difference_typeES7_
GCf:_SecurityPermission__ctor_m1462427327
FJj:dynCall_iiiiiiffiiiiiiiiiffffiiii
gEb:__ZN13MonoBehaviour5DoGUIENS_13GUILayoutTypeEii
z8d:_ChannelData_get_ClientProviders_m594662942
nzh:_QuickSearch_GetChar_m1297698557
VKa:__ZNK12TLSAllocatorI14StackAllocatorE8ContainsEPKv
Ycb:__ZN11TimeManager8TransferI18StreamedBinaryReadILb0EEEEvRT_
jkg:__Z68RuntimeInvoker_Boolean_t97287965_Int16_t2552820387_SByte_t1669577662PFvvEPK10MethodInfoPvPS4_
lnf:_DateTime__ParseEnum_m253019513
NDd:_Convert_ToUInt32_m2194577773
X9a:__ZN14BlendShapeData8TransferI14SafeBinaryReadEEvRT_
O6:__ZN15dense_hashtableINSt3__24pairIKyP17VertexDeclarationEEy14GfxGenericHashIyEN14GfxDoubleCacheIyS4_S7_NS0_8equal_toIyEEN31GfxDoubleCacheConcurrencyPolicy11LocklessGetE42GfxDoubleCacheDefaultEmptyDeletedGeneratorIyEE9SelectKeyESA_13stl_allocatorIS5_L18MemLabelIdentifier24ELi16EEE12resize_deltaEjj
Oyd:_Hashtable_Remove_m4032631466
LAe:_DSAManaged_GenerateKeyPair_m2236915969
c2a:__ZN7Texture25ReloadFromStorageIfNeededEPvb
pOf:_Array_InternalArray__IndexOf_TisBoolean_t97287965_m1161209222_gshared
DAi:__ZN6il2cpp2os12Cryptography24OpenCryptographyProviderEv
twd:_SynchronizedArrayListWrapper_Clear_m2191301493
xHc:_Update_Max
Egi:__ZN6il2cpp6icalls8mscorlib6SystemL15ThrowNoWideningEv
q1b:__ZNK23TransformChangeDispatch24GetChangeMaskForInterestENS_12InterestTypeE
z9b:__ZN8Playable5PauseEv
Ukc:__Z45Transform_CUSTOM_INTERNAL_CALL_TransformPointP12Il2CppObjectRK8Vector3fRS1_
MZd:_GenericTypeParameterBuilder_InvokeMember_m1647304778
Jcd:_HorizontalOrVerticalLayoutGroup_set_childControlWidth_m3261460516
k0a:__ZNSt3__26__treeINS_12__value_typeI39DeprecatedFastPropertyNameSerializationfEENS_19__map_value_compareIS2_S3_NS_4lessIS2_EELb1EEENS_9allocatorIS3_EEE7destroyEPNS_11__tree_nodeIS3_PvEE
rFc:_tt_cmap4_char_index
J4c:_AspectRatioFitter_GetParentSize_m3159144324
QEf:_SecurityFrame_get_Assembly_m2874566710
dWg:_Enumerator_System_Collections_IEnumerator_Reset_m1487823313_gshared
clb:__ZNK12HandlerChain8IsHiddenERK13FileEntryData
Tsb:__ZL26Transfer_SimpleNativeClassI17RemapPPtrTransfer10RectOffsetLb0EEvRK29SerializationCommandArgumentsR31RuntimeSerializationCommandInfo
rMc:__Z14ValidateFormatR13dynamic_arrayIN20TextRenderingPrivate16TextFormatChangeELj4EE
EHd:_Int32_ToString_m2507389746_AdjustorThunk
Xqf:_Decimal_op_Explicit_m438967917
oSh:_AnimatorControllerPlayable_SetHandle_m2260644454_AdjustorThunk
Hja:__ZNSt3__26vectorIN9ShaderLab20SerializedSubProgram13BufferBindingENS_9allocatorIS3_EEEC2ERKS6_
eje:_InputField_set_selectionColor_m2084640295
W3:__ZNK9ShaderLab20ShaderBlendStateDesc15ToGfxBlendStateEPK19ShaderPropertySheetS3_R13GfxBlendState
iz:__ZN11UnityEngine9AnimationL22GenericBindingCallbackEPvS1_i
cHc:_Compute_Point_Displacement
goa:__ZN9ShaderLab9IntShaderC2Ev
$1h:__ZN6il2cpp6icalls8mscorlib6SystemL9IsPrivateEPK9EventInfo
uAi:__ZN6il2cpp6icalls8mscorlib6System10Reflection4Emit11TypeBuilder20setup_internal_classEP27Il2CppReflectionTypeBuilderS7_
Pbc:__Z18TransformPoints3x4RK10Matrix4x4fPK8Vector3fjPS2_ji
OOf:_Array_InternalArray__IndexOf_TisILTokenInfo_t2325775114_m2602704009_gshared
kVf:_StringBuilder_AppendFormat_m3255666490
bUd:_OverflowException__ctor_m4029085969
B0d:_TypeBuilder_GetGenericArguments_m2872156836
gTh:__ZN13Il2CppHashMapIPK22Il2CppGenericParameterP11Il2CppClassN6il2cpp5utils11PointerHashIS1_EENSt3__28equal_toIS2_EENS9_9allocatorINS9_4pairIK10KeyWrapperIS2_ES4_EEEEEC2EjRKS8_RKSB_
DBe:_KeyPairPersistence_Remove_m1876145547
GMa:__Z15CreateDirectoryRKN4core12basic_stringIcNS_20StringStorageDefaultIcEEEE
HYa:__Z21CalculateGlobalMatrix23TransformAccessReadOnly
C0d:_TypeBuilder_GetGenericTypeDefinition_m1632720438
DJf:_Array_InternalArray__ICollection_Contains_TisLink_t544317964_m163190451_gshared
cof:_DateTimeOffset_System_IComparable_CompareTo_m176229495_AdjustorThunk
NKi:_ManagedStreamHelpers_ValidateLoadFromStream_m580138133
bdb:__ZNK13BuildSettings22GetTypeVirtualInternalEv
shh:__ZN30GenericInterfaceActionInvoker1I17Scene_t2348375561E6InvokeEPK10MethodInfoP12Il2CppObjectS0_
Y9i:__ZL56AppDomainSetup_t123196401_CustomAttributesCacheGeneratorP21CustomAttributesCache
UTg:_List_1_CheckIndex_m2250397830_gshared
V2b:__Z13RegisterClassI14RenderSettingsEvv
z:tempBigIntI
L8e:_Interval_get_Empty_m3617514670
JUd:_Assembly_GetName_m981771927
zx:__ZN7mecanim12statemachine24CreateStateMachineOutputEPKNS0_20StateMachineConstantEjRNS_6memory9AllocatorE
Soi:__ZN6il2cpp2vm12GenericClass8GetClassEP18Il2CppGenericClass
Bqa:__ZNK9GfxDevice27GetActiveRenderSurfaceWidthEv
lvj:__ZL114StandaloneInputModule_t2760469101_CustomAttributesCacheGenerator_StandaloneInputModule_ForceAutoSelect_m2837047882P21CustomAttributesCache
$Uc:__ZN11UnityEngine15PlatformWrapper28GetCleanGraphicsFixedVersionEv
Foe:_MaskableGraphic_RecalculateClipping_m1772937317
_Pd:_UnmanagedMemoryStream_SetLength_m3752964620
Yrh:_SslStreamBase_RaiseLocalPrivateKeySelection_m4112368540
Rbi:__ZN6il2cpp2vm4Type7GetTypeEPK10Il2CppType
CLc:_open_face_PS_from_sfnt_stream
oKe:_InternalEnumerator_1_get_Current_m165106323_AdjustorThunk
WVf:_UTF32Encoding_GetByteCount_m3610769032
uAa:__ZN6prcoreL17RemapGenericFloatI18TexFormatRGBAFloat17TexFormatRGBAHalfEEvPKNS_9InnerInfoE
XLb:__Z16FindCameraStacksRKNSt3__24listI4PPtrI6CameraENS_9allocatorIS3_EEEERNS_6vectorI11CameraStackNS4_ISA_EEEE
fyh:_MatchCollection_CopyTo_m3807326147
B4a:__ZN10GISettings8TransferI14SafeBinaryReadEEvRT_
un:FUNCTION_TABLE_vifff
uzj:__ZL54Text_t1901882714_CustomAttributesCacheGenerator_m_TextP21CustomAttributesCache
kjd:_MD5CryptoServiceProvider__ctor_m3271163125
sZb:__ZN19CustomRenderTexture12ClearGPUDataEv
JZa:__ZN13RenderTexture13ApplySettingsEv
ehe:_ObjectReader_RegisterObject_m1853376334
n$d:_ModuleBuilderTokenGenerator_GetToken_m2588853565
frd:_Boolean_System_IConvertible_ToDecimal_m3176932461_AdjustorThunk
Ue:_JS_Sound_SetListenerPosition
mn:FUNCTION_TABLE_fiffi
Fse:_ScrollRect_OnInitializePotentialDrag_m3139711961
W7g:_ReadOnlyCollection_1_System_Collections_Generic_IListU3CTU3E_set_Item_m711370667_gshared
JVd:_Default_check_arguments_with_score_m3467814020
JOj:_glGetActiveUniform__wrapper
COd:_StreamWriter_LowLevelWrite_m1081676583
Tda:__ZZN15DirectorManager15InitializeClassEvEN45FixedUpdateDirectorFixedSampleTimeRegistrator7ForwardEv
Vib:__ZNK8Material16MarkDependenciesER27GarbageCollectorThreadState
cue:_Slider_set_handleRect_m1101657556
qof:_DateTimeOffset_ToString_m3985341516_AdjustorThunk
Jsc:__ZL17Transfer_GUIStyleI9JSONWriteLb0EEvRK29SerializationCommandArgumentsR31RuntimeSerializationCommandInfo
rQb:__Z28GetHaloVertexPositionsStereoP8Vector3fRKS_S2_f
jBa:__ZN6prcoreL27StretchGenericFloatBilinearI15TexFormatRGHalfEEvPKNS_9InnerInfoE
U7:__GLOBAL__sub_I_runtime_misc_0_cpp
Pxf:_SortKey_GetHashCode_m3547067087
iBb:__Z18Transfer_BlittableI18StreamedBinaryReadILb0EELb1E9BoundsIntEvRK29SerializationCommandArgumentsR31RuntimeSerializationCommandInfo
qzj:__ZL71SpriteState_t1362986479_CustomAttributesCacheGenerator_m_DisabledSpriteP21CustomAttributesCache
G3e:_PublicKey_DecodeDSA_m3490622362
vjc:__Z49Register_UnityEngine_Resources_GetBuiltinResourcev
n$f:_Type_GetMethod_m1479779718
eFc:_tt_cmap10_char_index
wsh:_TlsException__ctor_m3242533711
jbf:_BitConverterLE_GetUIntBytes_m795219058
Mzd:_SortedList__ctor_m3676552745
KTh:__ZN15dense_hashtableINSt3__24pairIK10KeyWrapperIPK22Il2CppGenericParameterEP11Il2CppClassEES6_N6il2cpp5utils11PointerHashIS4_EEN14dense_hash_mapIS6_S9_SE_NS6_14EqualsComparerINS0_8equal_toIS5_EEEENS0_9allocatorISA_EEE9SelectKeyESJ_SL_E3endEv
pqb:__Z35Transfer_Blittable_SingleValueFieldI14SafeBinaryReadjEvRT_R17GeneralMonoObjectRK23StaticTransferFieldInfo
UP:__ZN11AudioSource24ClearExtensionPropertiesE12PropertyName
Qlh:_Array_InternalArray__set_Item_TisColor32_t2600501292_m1891325855_gshared
Nla:__ZN9ShaderLab22SerializedBindChannels8TransferI19StreamedBinaryWriteILb0EEEEvRT_
drb:__ZN15SerializeTraitsI5RectTIiEE8TransferI14SafeBinaryReadEEvRS1_RT_
ooc:__ZN5IMGUI20MoveWindowFromLayoutER8GUIStateiRK5RectTIfE
KBc:_UNITY_FT_Stream_ReadUShort
Zhc:__Z51Register_UnityEngine_GUILayer_INTERNAL_CALL_HitTestv
Sha:__ZNSt3__26__treeINS_12__value_typeIN4core12basic_stringIcNS2_20StringStorageDefaultIcEEEES6_EENS_19__map_value_compareIS6_S7_NS_4lessIS6_EELb1EEE13stl_allocatorIS7_L18MemLabelIdentifier1ELi16EEE7destroyEPNS_11__tree_nodeIS7_PvEE
pYf:_Thread_get_ManagedThreadId_m1068113671
jwa:__Z13IsDepthFormat14GraphicsFormat
oeb:__ZN12AspectRatios8TransferI24GenerateTypeTreeTransferEEvRT_
SRd:_MonoType_GetFields_m4176012508
Hxc:__Z12FormatBufferPciPKcz
tag:_EqualityComparer_1_System_Collections_IEqualityComparer_GetHashCode_m3423304513_gshared
XTh:__ZN6il2cpp2vm5Class13GetArrayClassEP11Il2CppClassj
u3c:_StandaloneInputModule_set_inputActionsPerSecond_m4057208843
THb:__ZN19RuntimeSceneManager18LoadSceneAsyncIntoER10UnitySceneRKN4core12basic_stringIcNS2_20StringStorageDefaultIcEEEENS_11LoadingModeEb
csc:__Z35Transfer_Blittable_FixedBufferFieldI9JSONWritetEvRK29SerializationCommandArgumentsR31RuntimeSerializationCommandInfo
voc:__ZN11IMGUIModule12AddGUIScriptER8ListNodeI13MonoBehaviourE
nb:invoke_difi
GEh:_GUILayoutUtility_BeginWindow_m2240221150
ENj:_glDeleteSamplers__wrapper
V_e:_HybridDictionary_set_Item_m2997363718
aMa:__ZNSt3__26__treeIiNS_4lessIiEE13stl_allocatorIiL18MemLabelIdentifier1ELi16EEE7destroyEPNS_11__tree_nodeIiPvEE
SPe:_InternalEnumerator_1_get_Current_m1477715453_AdjustorThunk
m2f:_UInt64_System_IConvertible_ToUInt32_m2784653358
Qva:__ZN21GLESGpuProgramApplier11ApplyVectorERKN20GpuProgramParameters14ValueParameterEPK8Vector4ft
aVb:__Z17PrepareSceneNodesP11CullResults
Efd:_SByte_System_IConvertible_ToDecimal_m2548745278
Kyc:_cff_size_done
BVb:__ZN29ExtractProjectionPlanesHelperILb1EE5ApplyERK10Matrix4x4fP5Plane
i8b:__ZN13ProduceHelperI7CubemapLb0EE7ProduceE10MemLabelId18ObjectCreationMode
KZb:__ZN6Camera34UpdatePreviousViewProjectionMatrixEv
Hma:__ZN9ShaderLab11ShaderState25RemoveUnsupportedProgramsEPK6Shader
pNc:__Z28Font_Get_Custom_PropMaterialP12Il2CppObject
gLi:_Mathf_Abs_m3281243566
bPd:_SynchronizedWriter_WriteLine_m1552352268
Scc:__Z26scripting_class_has_parent17ScriptingClassPtrS_
Vba:__ZN13RuntimeStaticI21AssetReferenceStorageLb0EE16StaticInitializeEPv
BWc:__ZNSt3__26__treeINS_12__value_typeIN4core12basic_stringIcNS2_20StringStorageDefaultIcEEEEN11UnityEngine7Connect19RemoteSettingsValueEEENS_19__map_value_compareIS6_SA_NS_4lessIS6_EELb1EEE13stl_allocatorISA_L18MemLabelIdentifier6ELi16EEE16__construct_nodeERKNS_4pairIKS6_S9_EE
KGd:_Int32_System_IConvertible_ToByte_m3832391412_AdjustorThunk
EQ:__Z71Register_UnityEngine_AudioSource_INTERNAL_CALL_ClearExtensionPropertiesv
XCi:__ZN6il2cpp8metadata25Il2CppGenericClassCompare7CompareEPK18Il2CppGenericClassS4_
zC:__ZNK8Animator20IsInMatchTargetStateEv
aMe:_InternalEnumerator_1_System_Collections_IEnumerator_get_Current_m4088805473_gshared
apc:__Z36Register_UnityEngine_GUI_set_changedv
Tae:_Context_GetServerContextSinkChain_m3154465897
yFh:_GUIStyle_get_fixedHeight_m2868324709
QCd:_Convert_ToInt64_m2075293963
ACj:__GLOBAL__sub_I_Il2CppCodeRegistration_cpp
Fw:__ZN7mecanim28TransformValueArrayBlendNodeEiiiRKNS_10ValueArrayERKNS_14ValueArrayMaskERS0_RS3_RNS_16ValueArrayWeightEf
Z8c:_Dropdown_set_value_m1048320169
jVa:__ZN20TierGraphicsSettings8TransferI18StreamedBinaryReadILb0EEEEvRT_
Bmj:__ZL59PropertyNameUtils_t539849043_CustomAttributesCacheGeneratorP21CustomAttributesCache
hHd:_Int32_System_IConvertible_ToUInt64_m2502338186_AdjustorThunk
Bfa:__Z33CleanupCubemapGPUUtilityMaterialsPv
a0a:__ZN14SafeBinaryRead8TransferINSt3__24pairIN9ShaderLab16FastPropertyNameE10ColorRGBAfEEEEvRT_PKc17TransferMetaFlags
KSh:__ZL9rshift128PyS_
ogg:_Enumerator_VerifyState_m169680537_AdjustorThunk
qai:__ZN14dense_hash_mapI10KeyWrapperINSt3__24pairIPK12PropertyInfoP11Il2CppClassEEEj17ReflectionMapHashIS8_ENS9_14EqualsComparerINS1_8equal_toIS8_EEEENS1_9allocatorINS2_IKS9_jEEEEE13set_empty_keyERSH_
Ng:_glRenderbufferStorage
Xki:__ZNK15dense_hashtableINSt3__24pairIK10KeyWrapperINS1_IPKcS4_EEEiEES6_24NamespaceAndNamePairHashN14dense_hash_mapIS6_iS9_NS6_14EqualsComparerI26NamespaceAndNamePairEqualsEENS0_9allocatorIS8_EEE9SelectKeyESD_SF_E13find_positionERS7_
Dic:__Z45Register_UnityEngine_Input_get_touchSupportedv
dVc:__ZN11UnityEngine15PlatformWrapper28GetTextureFormatSupportFlagsEv
LDc:_sfnt_is_postscript
C_b:__ZNSt3__26vectorINS_4pairIN4core12basic_stringIcNS2_20StringStorageDefaultIcEEEES6_EE13stl_allocatorIS7_L18MemLabelIdentifier38ELi16EEE26__swap_out_circular_bufferERNS_14__split_bufferIS7_RSA_EEPS7_
HCh:_Uri_EscapeString_m3864445955
xzc:_cf2_setError
$9a:__ZN14SafeBinaryRead21TransferSTLStyleArrayI13dynamic_arrayI12BoneWeights4Lj16EEEEvRT_17TransferMetaFlags
cTe:_Enumerator_MoveNext_m465222849_AdjustorThunk
RKb:__ZZ23InitPlayerLoopCallbacksvEN35PreUpdateSendMouseEventsRegistrator7ForwardEv
KEa:__ZNK6Camera25GetNormalizedViewportRectEP13RenderTextureb
_8c:_Dropdown_Awake_m3140021404
_g:_glDisable
e_a:__ZN13RenderTexture8TransferI24GenerateTypeTreeTransferEEvRT_
gVi:_Vector2_get_sqrMagnitude_m837837635
Tfj:__ZL59WritableAttribute_t812406054_CustomAttributesCacheGeneratorP21CustomAttributesCache
wti:__ZN6il2cpp5utils11StringUtils15StringDuplicateEPKDsj
sE:__ZZN8Animator15InitializeClassEvEN37FunctorImpl_417kDidModifyOverrideClip4CallEPviR11MessageData
vAh:_Regex_Match_m4145799399
Dv:__ZN17AnimationPlayable17ProcessRootMotionEP35AnimationPlayableEvaluationConstantP32AnimationPlayableEvaluationInputP33AnimationPlayableEvaluationOutput
vHf:_String_IsNullOrEmpty_m2969720369
LXe:_Enumerator_MoveNext_m2602845255_gshared
iQh:_TextGenerator_GetPreferredHeight_m3514897836
pye:_BigInteger_LowestSetBit_m3082714978
rSj:b118
sSj:b119
PLb:__ZNK8Material12GetPassCountEv
Kzf:_RSAParameters_t1728406613_marshal_pinvoke
U8e:_Interval_IsDisjoint_m1532171337_AdjustorThunk
lSj:b112
lHj:_bitshift64Ashr
nSj:b114
oSj:b115
pSj:b116
qSj:b117
IIj:dynCall_diii
Fne:_LayoutUtility_GetFlexibleWidth_m22831835
Qge:_BinaryFormatter__ctor_m971003555
eFe:_ArrayReadOnlyList_1_ReadOnlyError_m865416608_gshared
Cxd:_CollectionBase_System_Collections_IList_get_Item_m3743372945
CDf:_Evidence_GetEnumerator_m302914965
Jxa:__ZN4crnd12crn_unpacker22decode_alpha_endpointsEv
xWg:_Queue_1__ctor_m2068090025_gshared
gWb:__Z23CullDynamicObjectsUmbraPK4AABBPKN5Umbra15OcclusionBufferER9IndexList
Xrh:_SslStreamBase_RaiseRemoteCertificateValidation2_m2908038766
sFc:_tt_cmap4_char_next
a_:__ZN4core8hash_mapIi17ThreadedAwakeDataNS_4hashIiEENSt3__28equal_toIiEEE4growEi
Wkg:__Z50RuntimeInvoker_Boolean_t97287965_Int16_t2552820387PFvvEPK10MethodInfoPvPS4_
ZBd:_Convert_ToDecimal_m1233667008
$Z:__ZN4core8hash_mapIi17ThreadedAwakeDataNS_4hashIiEENSt3__28equal_toIiEEE4growEv
y7:__GLOBAL__sub_I_runtime_assetbundles_1_cpp
KI:__ZN4FMOD7Channel11setPositionEjj
Sh:_glBindSampler
Ref:_ClientContext_get_ClientHelloProtocol_m1654639078
Wh:_glGetVertexAttribiv
aYe:_Enumerator_System_Collections_IEnumerator_get_Current_m1975949486_gshared
Oyh:_PatternCompiler_EmitSub_m193323684
JOc:__ZN2UI11CanvasGroup23VirtualRedirectTransferER18StreamedBinaryReadILb0EE
IHd:_Int64_System_IConvertible_ToByte_m375085029
Ovc:__ZN8JSONRead8TransferIbEEvRT_PKc17TransferMetaFlagsb
e_f:_TimeSpan_ToString_m1128692466
wHh:_AesManaged_CreateEncryptor_m2294080233
mEh:_Event_GetHashCode_m3559153592
uma:__ZN9ShaderLab9SubShaderD2Ev
Hvi:_GC_promote_black_lists
IBd:_Convert_ToChar_m3757390865
Cwc:__Z29Transfer_Blittable_ArrayFieldI8JSONRead8Vector4fEvRT_R9ArrayInfoRK23StaticTransferFieldInfo
Sn:FUNCTION_TABLE_vf
vVd:_Binder_GetDerivedLevel_m3216810447
qo:FUNCTION_TABLE_vd
S8:__ZN13RuntimeStaticI37UnityShaderCompilerExtPluginConfigureLb0EE16StaticInitializeEPv
lVf:_StringBuilder_AppendFormat_m2403596038
Yhd:_DSASignatureDeformatter_SetHashAlgorithm_m3186995552
F5g:_ReadOnlyCollection_1_System_Collections_Generic_ICollectionU3CTU3E_Clear_m2772202961_gshared
Rtc:__ZN9JSONWrite8TransferI13dynamic_arrayI4AABBLj4EEEEvRT_PKc17TransferMetaFlags
SE:__ZNK8Animator17HasBoundPlayablesEv
e6d:_ResourceSet_ReadResources_m3663669011
OXf:_SynchronizationContext_SetSynchronizationContext_m1249070039
HTg:_List_1_AddEnumerable_m1267044261_gshared
SEc:_tt_cmap13_char_index
G2h:__ZN6il2cpp2vm7Runtime9SetConfigEPKc
Dqc:__ZN5Unity9rapidjson12PrettyWriterI16TempBufferWriterNS0_4UTF8IcEES4_13JSONAllocatorE10StartArrayEv
ta:invoke_iiifiii
$Qi:_RectTransform_INTERNAL_get_pivot_m2970933031
khh:_UnityAction_1_Invoke_m927447181_gshared
Ihi:__ZN6il2cpp2vm9Exception11FromNameMsgEPK11Il2CppImagePKcS6_S6_
cn:FUNCTION_TABLE_fiiifii
Vea:__Z14GetTimeManagerv
kGi:_Color32_op_Implicit_m213813866
BQi:_RectOffset_set_top_m713260669
AYc:__ZN19TransportJavaScript7CleanupEv
NPa:__Z12GUIDToStringRK9UnityGUIDPc
Tba:__ZN15FileSystemEntry4LockE12FileLockModeP12FileAccessor
qQj:_emscripten_glDrawArrays__wrapper
qHd:_Int32_Equals_m2976157357
Vxg:__Z110RuntimeInvoker_Int32_t2950945753_Int32_t2950945753_Int32_t2950945753_Int32U26_t1369213839_Int32U26_t1369213839PFvvEPK10MethodInfoPvPS4_
hM:__ZN11AudioSource22UnmuteActiveVideoSinksEv
oth:_TlsException__ctor_m3717683709
tti:__ZN4utf88internal20is_overlong_sequenceIiEEbjT_
sRa:__Z9SetLocalR15TransformAccessRKN4math7_float4Ey
dSb:__Z30SetupBakedOcclusionForGeometrybRK26SharedLightmapSettingsDataRK15LightmapIndicesR17ShaderPassContext
Lgc:__Z41Register_UnityEngine_Cursor_get_lockStatev
BRb:__Z14SetupLightmapsRK8Vector4fS1_R17ShaderPassContext
Q8h:__ZN14dense_hash_mapI10KeyWrapperIPK14Il2CppAssemblyEPK22Il2CppMonoAssemblyNameN6il2cpp5utils11PointerHashIS2_EENS4_14EqualsComparerINSt3__28equal_toIS3_EEEENSD_9allocatorINSD_4pairIKS4_S7_EEEEE13set_empty_keyERSJ_
Z_a:__ZL20InitializeGUIShadersv
myf:_Guid_CompareTo_m243656946
A1b:__Z20DestroyObjectDelayedP6Objectf
AW:__ZN20DynamicHeapAllocatorI17LowLevelAllocatorED0Ev
h5b:__ZN11TimeManagerC2E10MemLabelId18ObjectCreationMode
ZOb:__ZN9DepthPassD2Ev
CH:__ZN11AudioFilter6GetDSPEv
Jzf:_RSACryptoServiceProvider_OnKeyGenerated_m863837376
Zqe:_Scrollbar_OnDrag_m4289602768
Gaa:__ZN19RuntimeSceneManager14CanUnloadSceneEP10UnityScene
$Ob:__Z22ExtractRenderNodeQueueRK11CullResults15ExtractionFlagsR15RenderNodeQueue
HG:__ZN24AudioScriptBufferManagerC2Ev
bLc:__ZNSt3__26vectorIh13stl_allocatorIhL18MemLabelIdentifier1ELi16EEE8__appendEj
WNe:_InternalEnumerator_1_System_Collections_IEnumerator_get_Current_m3854084659_AdjustorThunk
qie:_OnValidateInput_Invoke_m1009124904
hEe:_U3CGetEnumeratorU3Ec__Iterator0_System_Collections_IEnumerator_get_Current_m283764921_gshared
dLc:__ZN20TextRenderingPrivate8FontImpl16ResetPackingDataEv
pvf:_CultureInfo_get_IcuName_m2258611679
Brc:__Z18Transfer_BlittableI9JSONWriteLb0EfEvRK29SerializationCommandArgumentsR31RuntimeSerializationCommandInfo
Wwa:__Z21GetAsyncUploadManagerv
Jj:_emscripten_glDetachShader
rRi:_Vector2_op_Subtraction_m73004381
Kwa:__ZN17GenericDynamicVBO20ReleaseChunkInternalERK21DynamicVBOChunkHandlejj
oNc:__ZL27CleanupModule_TextRenderingv
ODj:_fmodl
NCe:_SymmetricTransform_OFB_m3842617151
YHb:__ZN19RuntimeSceneManager11CreateSceneEv
PFi:_Color__ctor_m286683560
vyh:_PatternCompiler_Emit_m1540115729
CDc:_ps_get_standard_strings
cSb:__Z27SetupBakedOcclusionForLightbRK15SharedLightDataR17ShaderPassContext
jBi:__ZN6il2cpp2os5Mutex6UnlockEv
ZSf:_EncoderFallbackException__ctor_m1051987327
xye:_BigInteger_ToString_m3278248272
upf:_Decimal_System_IConvertible_ToBoolean_m1123794670
EFg:__Z98RuntimeInvoker_Int32_t2950945753_RaycastResult_t3360306849_RaycastResult_t3360306849_RuntimeObjectPFvvEPK10MethodInfoPvPS4_
Xaa:__Z17CommitBatchDeleteR11BatchDelete
Qne:_Mask__ctor_m1269055150
N9i:__ZL99WaitHandle_t1743403487_CustomAttributesCacheGenerator_WaitHandle_t1743403487____Handle_PropertyInfoP21CustomAttributesCache
F2e:_WebRequest_AddPrefix_m3187775913
vMb:__Z18RenderImageFiltersR10RenderLoopb
ZRc:__Z43CanvasRenderer_Get_Custom_PropMaterialCountP12Il2CppObject
nSb:__ZNSt3__227__insertion_sort_incompleteIR23CompareReflectionProbesP31RuntimeReflectionProbeBlendInfoEEbT0_S5_T_
hQg:_List_1_Remove_m1457733883_gshared
Xwc:__ZN8JSONRead21TransferSTLStyleArrayI13dynamic_arrayI11QuaternionfLj4EEEEvRT_17TransferMetaFlags
aZa:__ZN13PlayableGraph17ConnectionChangedEv
t2d:_MonoEventInfo_GetEventInfo_m873645389
fcf:_MD4Managed_Encode_m386285215
kca:__ZN10InputEventD2Ev
HZc:__ZN22UnityWebRequestManagerD2Ev
aEh:_Event_get_character_m1666742088
tDj:_isalpha
EBd:_Convert_ToChar_m1442101407
Dkf:_SslClientStream_OnLocalPrivateKeySelection_m1934775249
F4b:__ZZL31RegisterRectTransformPropertiesR22GenericPropertyBindingEN28Wrapper_RectTransformPivoty113SetFloatValueEPvf
sof:_DateTimeOffset_get_Offset_m2040541042_AdjustorThunk
n0h:__ZN6il2cpp2vmL17IsSocketAsyncCallEP14Il2CppDelegate
pzd:_Slot_t3975888750_marshal_pinvoke_back
Eti:__ZN6il2cpp2vm6String6NewLenEPKcj
_4:__Z25GetBuiltinTexEnvParamNamei
TFb:__ZN17PersistentManager9AddStreamEv
_k:_time
f7c:_ContentSizeFitter_set_verticalFit_m1831566876
fCf:_TripleDESCryptoServiceProvider_CreateDecryptor_m740960117
RBg:__Z122RuntimeInvoker_Void_t1185182177_Color_t2555686324_Single_t1397266774_SByte_t1669577662_SByte_t1669577662_SByte_t1669577662PFvvEPK10MethodInfoPvPS4_
_Ki:_Material_EnableKeyword_m329692301
kAc:_cf2_stack_free
bBf:_SHA512Managed_HashCore_m2377807474
qId:_Int64_Parse_m3309897583
Wvf:_CompareInfo_IndexOf_m667936183
rv:__ZN7mecanim9animation19EvaluateFloatValuesEPKNS0_18ClipMuscleConstantEPKNS_18ValueArrayConstantEPKNS0_12ClipBindingsEPKNS0_10ClipOutputEPNS0_18AnimationNodeStateEfbb
dD:__ZN8Animator31ClearInternalControllerPlayableEv
WHa:__ZN26SinglePassStereoSupportExt18AfterSetViewMatrixEv
yEi:_Bounds__ctor_m1937678907_AdjustorThunk
wSi:_SetupCoroutine_InvokeMember_m2661944898
Kdg:_HashSet_1__ctor_m620629637_gshared
g3e:_X509EnhancedKeyUsageExtension_ToString_m350388564
C4h:__ZN15dense_hashtableINSt3__24pairIK10KeyWrapperINS1_IPK9FieldInfoP11Il2CppClassEEEjEES9_17ReflectionMapHashIS8_EN14dense_hash_mapIS9_jSD_NS9_14EqualsComparerINS0_8equal_toIS8_EEEENS0_9allocatorISB_EEE9SelectKeyESI_SK_E4findERSA_
gwd:_SimpleEnumerator_MoveNext_m3113120129
XHb:__ZN13LoadOperationC2E10MemLabelId
sie:_InputField_SendOnValueChanged_m2560301445
JXb:__ZN13RenderTexture19SetAutoGenerateMipsEb
qya:__Z20GetTextureFormatInfo13TextureFormat
l0e:_TypeConverterAttribute_Equals_m1580461255
jdf:_RSAManaged_ToXmlString_m2369501989
cy:__ZN26AnimatorControllerPlayable8GetFloatEiRf
Flf:_DateTime_System_IConvertible_ToSingle_m2193708681_AdjustorThunk
T8e:_Interval_get_Size_m4163671410_AdjustorThunk
$Oc:__ZN2UI14CanvasRenderer13AwakeFromLoadE17AwakeFromLoadMode
mXi:__ZL64String_t_CustomAttributesCacheGenerator_String_Split_m3580120853P21CustomAttributesCache
Dzi:__ZN6il2cpp5utils10MemoryPool6MallocEj
$F:__ZN11SoundHandle8InstanceD2Ev
Q5d:_ResourceEnumerator_Reset_m3754276504
xfa:__ZN31CanvasBatchIntermediateRenderer13StaticDestroyEPv
k$:__ZNSt3__23mapIiP15MonoScriptCacheNS_4lessIiEE13stl_allocatorINS_4pairIKiS2_EEL18MemLabelIdentifier78ELi16EEEixERS7_
hTa:__Z26scripting_method_get_class18ScriptingMethodPtr
bOj:_emscripten_glBindProgramARB__wrapper
Igc:__Z41Register_UnityEngine_CullingGroup_Disposev
Syh:_PatternCompiler_EmitRepeat_m697083858
R2a:__ZN7Cubemap23VirtualRedirectTransferER19StreamedBinaryWriteILb0EE
R2h:__ZN6il2cpp2vm7Runtime47RaiseExecutionEngineExceptionIfMethodIsNotFoundEPK10MethodInfoPK19Il2CppGenericMethod
yOa:__ZN25MultiBlocksMemoryFileData5WriteEyyPKv
t5d:_ResourceReader_Read7BitEncodedInt_m3568166465
u8c:_DefaultControls_CreateInputField_m1003102365
SQh:_CanvasGroup_set_alpha_m4032573
rod:_Array_get_LongLength_m978104875
_Ba:__ZL17ProgramUniform2fvPK7ApiGLESjiihPKv
XOj:b83
ZKc:__ZN20TextRenderingPrivate8FontImpl21HasCharacterInTextureEjijfPj
sUi:_Transform_SetAsFirstSibling_m253439912
gmf:_DateTime_System_IConvertible_ToUInt16_m4182197229_AdjustorThunk
M8e:_Interval_get_IsDiscontiguous_m3016063288
Zrh:_SslStreamBase_get_CheckCertRevocationStatus_m2739906607
PEj:_htonl
_ta:__Z20GetBufferManagerGLESv
WOj:b82
lBf:_SHA512Managed_Sigma1_m922902398
eCb:__ZN18StreamedBinaryReadILb0EE21TransferSTLStyleArrayI31ArrayOfManagedObjectsTransfererEEvRT_17TransferMetaFlags
Cua:__ZNSt3__26__treeI22DeviceStencilStateGLES14MemoryCompLessI18DeviceStencilStateENS_9allocatorIS1_EEE12__find_equalIS1_EERPNS_16__tree_node_baseIPvEESD_RKT_
Muc:__Z18Transfer_BlittableI8JSONReadLb0EtEvRK29SerializationCommandArgumentsR31RuntimeSerializationCommandInfo
FZ:__Z16GenerateTypeTreeRK6ObjectR8TypeTree24TransferInstructionFlags
Mwf:_CultureInfo_CreateCulture_m1493441763
ZBf:_TripleDES_IsWeakKey_m2147489852
Qy:__ZN34AnimationStateMachineMixerPlayable13EndTransitionEv
mti:__ZNSt3__212basic_stringIDsNS_11char_traitsIDsEENS_9allocatorIDsEEE9__grow_byEjjjjjj
kI:__ZN12AudioManager21FixMasterGroupRoutingEv
z9a:__ZNK19ShaderPropertySheet11HasPropertyERKN9ShaderLab16FastPropertyNameE
ZIj:dynCall_viffffii
bC:__ZN15AllocatorTraitsIN8Animator11AnimatorJobELb0EE13CopyConstructEPS1_RKS1_10MemLabelId
CEg:__Z81RuntimeInvoker_Boolean_t97287965_NavigationU26_t1807167253_Navigation_t3049316579PFvvEPK10MethodInfoPvPS4_
hQj:_emscripten_glUniform1fv__wrapper
qkb:__ZN2UI13RectTransform19SetAnchoredPositionERK8Vector2f
qcd:_GridLayoutGroup_SetLayoutHorizontal_m2838109254
x8c:_Dropdown_RefreshShownValue_m2806045241
vob:__Z18Transfer_BlittableI14SafeBinaryReadLb1E4AABBEvRK29SerializationCommandArgumentsR31RuntimeSerializationCommandInfo
ppi:__ZN6il2cpp6icalls8mscorlib6System4Enum12get_hashcodeEP12Il2CppObject
Fyi:_GC_set_no_dls
A6c:_ColorBlock_set_normalColor_m254595671_AdjustorThunk
$Ci:__ZN6il2cpp8metadata26Il2CppGenericMethodCompare6EqualsEPK19Il2CppGenericMethodS4_
ZMe:_InternalEnumerator_1_get_Current_m1007906068_gshared
JVh:__ZN15dense_hashtableINSt3__24pairIK10KeyWrapperIPK11Il2CppClassEPKcEES6_N6il2cpp5utils11PointerHashIS3_EEN14dense_hash_mapIS6_S9_SE_NS6_14EqualsComparerINS0_8equal_toIS5_EEEENS0_9allocatorISA_EEE9SelectKeyESJ_SL_E15set_deleted_keyERKSA_
iwd:_SimpleEnumerator_Reset_m1520014659
PG:__ZN9AudioClip7WWWOpenEPKciPjPPvS4_
mob:__Z18Transfer_BlittableI14SafeBinaryReadLb0E8Vector2fEvRK29SerializationCommandArgumentsR31RuntimeSerializationCommandInfo
Sgf:_Context_set_ProtocolNegotiated_m2904861662
Vki:__ZN15dense_hashtableINSt3__24pairIK10KeyWrapperINS1_IPKcS4_EEEiEES6_24NamespaceAndNamePairHashN14dense_hash_mapIS6_iS9_NS6_14EqualsComparerI26NamespaceAndNamePairEqualsEENS0_9allocatorIS8_EEE9SelectKeyESD_SF_E12resize_deltaEjj
Afe:_RemotingServices_GetRemoteObject_m2117098022
hRh:_CanvasRenderer_SetTexture_m1600559835
PXc:__ZN13dynamic_arrayIiLj4EE6insertEPiPKiS3_
L1g:_Collection_1_System_Collections_IList_IndexOf_m4256072926_gshared
gog:__Z132RuntimeInvoker_Boolean_t97287965_RuntimeObject_Int32_t2950945753_Int32_t2950945753_RuntimeObject_Int32_t2950945753_Int32_t2950945753PFvvEPK10MethodInfoPvPS4_
xic:__Z53Register_UnityEngine_Input_INTERNAL_get_mousePositionv
Tta:__ZN7ApiGLES12DrawElementsE16GfxPrimitiveTypePKvjjjj
cCe:_EncryptedPrivateKeyInfo_get_Salt_m3453455261
nnf:_DateTime__ParseNumber_m1240316250
nJe:_InternalEnumerator_1_get_Current_m3839250771_gshared
mlc:__Z66Register_UnityEngine_Transform_INTERNAL_CALL_InverseTransformPointv
owf:_CultureInfo_get_TextInfo_m2342840448
fd:_SDL_GetTicks
y6h:__ZN15dense_hashtableINSt3__24pairIK10KeyWrapperINS1_IPK11Il2CppImageP11Il2CppClassEEEjEES9_17ReflectionMapHashIS8_EN14dense_hash_mapIS9_jSD_NS9_14EqualsComparerINS0_8equal_toIS8_EEEENS0_9allocatorISB_EEE9SelectKeyESI_SK_E6insertERKSB_
NVb:__Z21CreateShadowCullerJobP30CreateUmbraShadowCullerJobData
Z8g:_ReadOnlyCollection_1_System_Collections_Generic_ICollectionU3CTU3E_Remove_m4072504734_gshared
SBa:__ZL18ProgramUniform2uivPK7ApiGLESjiihPKv
i5c:_U3COnFinishSubmitU3Ec__Iterator0_MoveNext_m2729496168
JPj:_glUniform4iv__wrapper
NSb:__Z33GenerateShadowCasterPartsSortDataRK16ShadowCasterDatajRK15RenderNodeQueueRKNSt3__26vectorI20ShadowCasterPartData13stl_allocatorIS7_L18MemLabelIdentifier2ELi16EEEERK10Matrix4x4fRjP20ShadowCasterSortData
eLb:__ZZ23InitPlayerLoopCallbacksvEN51PostLateUpdateTriggerEndOfFrameCallbacksRegistrator7ForwardEv
JZf:_TimeSpan_Compare_m753151303
trb:__Z29Transfer_Blittable_ArrayFieldI14SafeBinaryRead9BoundsIntEvRT_R9ArrayInfoRK23StaticTransferFieldInfo
rzc:_cf2_computeDarkening
VRh:_AnimationLayerMixerPlayable__ctor_m860721801_AdjustorThunk
L3d:_MonoPropertyInfo_get_property_info_m1599555644
vhd:_DESTransform_CipherFunct_m3527261721
bwi:_GC_expand_hp_inner
Mmi:__ZNK15dense_hashtableI10KeyWrapperIP18Il2CppGenericClassES3_N6il2cpp8metadata22Il2CppGenericClassHashEN14dense_hash_setIS3_S6_NS3_14EqualsComparerINS5_25Il2CppGenericClassCompareEEENSt3__29allocatorIS3_EEE8IdentityESA_SD_E12test_deletedEj
Mlc:__Z25Screen_Get_Custom_PropDpiv
Nzh:_Parser_ParseSpecial_m1961501104
iti:__ZN4utf812find_invalidIPKcEET_S3_S3_
ske:_InputField_OnEndDrag_m4127187089
wbh:_ReadOnlyCollection_1_System_Collections_IList_RemoveAt_m2555465054_gshared
vvi:_GC_err_printf
Mrf:_StackFrame__ctor_m343464319
yT:__ZN11UnityEngine15CloudWebService20WebRequestRestClient7PrepareEv
V2d:_MonoField_CheckGeneric_m453069507
MKc:__ZN20TextRenderingPrivate19NativeTextGenerator23FixLineHorizontalOffsetEiii
owd:_SynchronizedArrayListWrapper_get_IsFixedSize_m3396437476
she:_ObjectReader_ReadArrayOfString_m3550800559
SQd:_MonoCustomAttrs_GetCustomAttributesInternal_m648304078
aA:__ZN7mecanim9animation19DestroyAnimationSetEPNS0_12AnimationSetERNS_6memory9AllocatorE
JKj:_emscripten_glDepthRange__wrapper
j0:__ZN14SerializedFile7ReleaseEv
wmb:__ZN16MemoryFileSystem4OpenER13FileEntryData14FilePermission16FileAutoBehavior
Rvf:_CompareInfo_GetSortKey_m1915852346
bIc:_ft_var_load_avar
mfa:__ZN13RuntimeStaticI13RendererSceneLb0EE13StaticDestroyEPv
lQe:_DefaultComparer_Compare_m1297750557_gshared
CW:__ZN20DynamicHeapAllocatorI17LowLevelAllocatorE10ReallocateEPvji
Aub:__Z18Transfer_BlittableI24GenerateTypeTreeTransferLb1E12PropertyNameEvRK29SerializationCommandArgumentsR31RuntimeSerializationCommandInfo
ZHh:_Toggle_OnEnable_m1421694809
jdb:__ZN14SafeBinaryRead21TransferSTLStyleArrayI10vector_mapIPKN5Unity4TypeE7Hash128NSt3__24lessIS5_EENS7_9allocatorINS7_4pairIS5_S6_EEEEEEEvRT_17TransferMetaFlags
OG:__ZN9AudioClip18GetQueuedAudioDataEPPvj
bNc:__ZN20TextRenderingPrivate21TextMeshGeneratorImpl14GarbageCollectEv
pbc:__ZNK9Texture2D17CheckHasPixelDataEv
nwb:__Z18Transfer_BlittableI19StreamedBinaryWriteILb0EELb0E9BoundsIntEvRK29SerializationCommandArgumentsR31RuntimeSerializationCommandInfo
IOb:__Z18SetShadowsKeywordsR17ShaderPassContext9LightType10ShadowType16ShadowProjectionbb
ubd:_Graphic_GetPixelAdjustedRect_m3729397999
pai:__ZN14dense_hash_mapI10KeyWrapperINSt3__24pairIPK12PropertyInfoP11Il2CppClassEEEj17ReflectionMapHashIS8_ENS9_14EqualsComparerINS1_8equal_toIS8_EEEENS1_9allocatorINS2_IKS9_jEEEEEC2EjRKSB_RKSF_
v7b:__ZN17CollisionMeshDataC2Ev
G_e:_Dictionary_2_ToTValue_m692436965_gshared
g7d:_Marshal_Copy_m1222846562
s4a:__ZN16LightmapSettings23VirtualRedirectTransferER19StreamedBinaryWriteILb0EE
hLb:__ZZ23InitPlayerLoopCallbacksvEN47PostLateUpdateMemoryFrameMaintenanceRegistrator7ForwardEv
Vta:__ZN7ApiGLES20SetVertexArrayAttribEjj12VertexFormathjPKv
vo:FUNCTION_TABLE_viiififii
Owi:_GC_push_next_marked
Thb:__ZN18IDCollectorFunctor18GenerateInstanceIDEi17TransferMetaFlags
GPh:_TextGenerationSettings_Equals_m3618607189_AdjustorThunk
K$e:_NameObjectCollectionBase_BaseAdd_m3437748750
a$f:_Type_internal_from_handle_m3156085815
m7g:_ReadOnlyCollection_1_System_Collections_Generic_ICollectionU3CTU3E_Add_m69722965_gshared
yD:__ZN8Animator8TransferI19StreamedBinaryWriteILb0EEEEvRT_
G1:__ZNSt3__27__sort4IRNS_6__lessI14ObjectLoadDataS2_EEPS2_EEjT0_S6_S6_S6_T_
pNb:__ZNK25CameraStackRenderingState16GetCurrentCameraEv
Ure:_ScrollRect_get_rectTransform_m2442061719
t9b:__Z22PlayableValidityChecksRK9HPlayableb
Peb:__ZN15ResourceManagerD2Ev
xgc:__Z41Register_UnityEngine_Camera_GetAllCamerasv
qIi:_InvokableCall__ctor_m2158562079
fAh:_Assertion__ctor_m2128950829
YWc:__ZN28PerformanceReportingSettings8TransferI14SafeBinaryReadEEvRT_
kjb:__ZN15CacheWriterBase18GetAddressOfMemoryEv
tkd:_Buffer_BlockCopy_m2884209081
Uuc:__Z18Transfer_BlittableI8JSONReadLb1E5RectTIiEEvRK29SerializationCommandArgumentsR31RuntimeSerializationCommandInfo
ehi:__ZN6il2cpp2vm22EmbeddedResourceRecordC2ERKS1_
CIb:__ZL20DrawVBOChunkWithPassP6ShaderPN9ShaderLab4PassER17ShaderPassContextR10DynamicVBORK21DynamicVBOChunkHandle
$Zg:_Collection_1__ctor_m825528237_gshared
M2a:__ZN9Texture2D13AwakeFromLoadE17AwakeFromLoadMode
VLf:_SetPropertyUtility_SetStruct_TisColorBlock_t2139031574_m1748367426_gshared
TMi:_PlayerConnection_get_instance_m1750121257
Joi:__ZN6il2cpp2vm3RCW14QueryInterfaceILb0EEEP14Il2CppIUnknownP15Il2CppComObjectRK10Il2CppGuid
Awh:_X509Store_get_Certificates_m56224934
Yza:__ZN6prcoreL17RemapGenericFloatI15TexFormatRFloat18TexFormatARGBFloatEEvPKNS_9InnerInfoE
Krg:__Z85RuntimeInvoker_Void_t1185182177_Int64_t3736567304_Int32_t2950945753_Int64_t3736567304PFvvEPK10MethodInfoPvPS4_
lef:_CipherSuite__ctor_m2440635082
Ozf:_RSAPKCS1KeyExchangeFormatter_SetRSAKey_m1477802943
Ryh:_PatternCompiler_EmitJump_m3915926156
HDf:_EvidenceEnumerator_get_Current_m1264365535
VXc:__ZN11UnityEngine15PlatformWrapper20GetPlayerPrefsUInt64ERKN4core12basic_stringIcNS1_20StringStorageDefaultIcEEEEy
f7d:_Marshal_copy_from_unmanaged_m2834266824
kJj:dynCall_iiiifii
rSb:__ZN20ReflectionProbeCacheC2ER13BatchRendererR15RenderLoopStats
XPi:_Rect_set_xMax_m1720695099_AdjustorThunk
wug:__Z59RuntimeInvoker_Int32_t2950945753_DateTimeOffset_t3229287507PFvvEPK10MethodInfoPvPS4_
ulb:__ZNK12HandlerChain6ExistsERK13FileEntryData
Wuf:_Calendar__ctor_m106290643
bTb:__Z30FindDirectAttenuationFromProbeP18ForwardLightsBlockbiRK10RenderNodeRK23FindForwardLightsParamsf
Ibc:__ZNSt3__26vectorIj13stl_allocatorIjL18MemLabelIdentifier1ELi16EEE6assignIPKjEENS_9enable_ifIXaasr21__is_forward_iteratorIT_EE5valuesr16is_constructibleIjNS_15iterator_traitsIS9_E9referenceEEE5valueEvE4typeES9_S9_
vcb:__ZN12InputManager23VirtualRedirectTransferER24GenerateTypeTreeTransfer
zkb:__ZN9Transform23VirtualRedirectTransferER24GenerateTypeTreeTransfer
inc:__ZN12GUIClipState10BeginOnGUIER10InputEvent
Dna:__ZNSt3__26vectorIN9ShaderLab20SerializedSubProgram12UAVParameterENS_9allocatorIS3_EEE21__push_back_slow_pathIKS3_EEvRT_
$vg:__Z87RuntimeInvoker_RuntimeObject_Byte_t1134296376_RuntimeObject_RuntimeObject_RuntimeObjectPFvvEPK10MethodInfoPvPS4_
Vff:_HandshakeMessage_Process_m810828609
wGc:_UNITY_tt_size_ready_bytecode
wJc:__ZN13TextRendering4FontD2Ev
KOi:_Quaternion_Inverse_m1311579081
dMc:_UNITY_FT_Stream_Open
cfh:__ZN28GenericInterfaceFuncInvoker1Ib20UIVertex_t4057497605E6InvokeEPK10MethodInfoP12Il2CppObjectS0_
Cvb:__Z29Transfer_Blittable_ArrayFieldI24GenerateTypeTreeTransfer9BoundsIntEvRT_R9ArrayInfoRK23StaticTransferFieldInfo
acd:_GraphicRegistry__cctor_m1805310505
DEi:_Bounds_Equals_m3920299735
PWa:__ZN8keywords18KeywordSetToStringERK16ShaderKeywordSetRN4core12basic_stringIcNS3_20StringStorageDefaultIcEEEE
a_d:_GenericTypeParameterBuilder_GetGenericArguments_m2988765390
uCc:_otv_MATH_validate
Uqg:__Z77RuntimeInvoker_Void_t1185182177_Int64_t3736567304_ResourceInfoU26_t1611441338PFvvEPK10MethodInfoPvPS4_
oF:__ZN4FMOD3DSP12setParameterEif
oGb:__ZN13MemoryManager16StaticInitializeEv
qwf:_CultureInfo_Equals_m1360976324
lf:___cxa_free_exception
hnj:__ZL69PersistentCall_t3407714124_CustomAttributesCacheGenerator_m_CallStateP21CustomAttributesCache
sJ:__ZN4FMOD22FakeModChannelCallbackEPv
R_c:_BaseInput_get_compositionString_m1887614380
rf:_emscripten_glValidateProgram
zVa:__ZN4Mesh10CreateMeshEv
Ujd:_RijndaelManagedTransform__ctor_m1033522223
Mmf:_DateTime_CompareTo_m3889078633
Uzc:_cf2_stack_clear
GFd:_NumberFormatter_set_CurrentCulture_m1358228087
KXb:__ZN7Texture13SetAnisoLevelEi
MR:__ZNSt3__26__treeINS_12__value_typeIN4core12basic_stringIcNS2_20StringStorageDefaultIcEEEEjEENS_19__map_value_compareIS6_S7_NS_4lessIS6_EELb1EEE13stl_allocatorIS7_L18MemLabelIdentifier88ELi16EEE7destroyEPNS_11__tree_nodeIS7_PvEE
M6:__ZN19EndOfFrameCallbacks7EnqueueEP18EndOfFrameCallbackb
rKi:_Input_set_compositionCursorPos_m1909373301
ULc:_raccess_guess_vfat
Jsg:__Z78RuntimeInvoker_IntPtr_t_SByte_t1669577662_RuntimeObject_BooleanU26_t4125257963PFvvEPK10MethodInfoPvPS4_
fTc:__Z44Canvas_CUSTOM_GetETC1SupportedCanvasMaterialv
Fqf:_Decimal_decimalSetExponent_m3707787243
o9:__ZN33InstancedMeshIntermediateRenderer13StaticDestroyEPv
Vji:__ZN14dense_hash_mapI10KeyWrapperIP14Il2CppIUnknownEjN6il2cpp5utils11PointerHashIS1_EENS3_14EqualsComparerINSt3__28equal_toIS2_EEEENS9_9allocatorINS9_4pairIKS3_jEEEEE13set_empty_keyERSF_
Kva:__ZN15dense_hashtableINSt3__24pairIK9TextureIDiEES2_14GfxGenericHashIS2_EN14GfxDoubleCacheIS2_iS6_NS0_8equal_toIS2_EEN31GfxDoubleCacheConcurrencyPolicy11LocklessGetE42GfxDoubleCacheDefaultEmptyDeletedGeneratorIS2_EE9SelectKeyES9_13stl_allocatorIS4_L18MemLabelIdentifier24ELi16EEE12resize_deltaEjj
WTa:__Z21DestroyShadowMapCacheP14ShadowMapCache
yx:__ZN7mecanim9animation25CreateControllerWorkspaceEPKNS0_18ControllerConstantERNS_6memory9AllocatorE
hqh:_Array_InternalArray__get_Item_TisLabelFixup_t858502054_m3276643490_gshared
P9h:__ZN15dense_hashtableINSt3__24pairIK10KeyWrapperIPK10Il2CppTypeEjEES6_N6il2cpp8metadata14Il2CppTypeHashEN14dense_hash_mapIS6_jSB_NS6_14EqualsComparerINSA_26Il2CppTypeEqualityComparerEEENS0_9allocatorIS8_EEE9SelectKeyESF_SH_E14squash_deletedEv
Oii:__ZN6il2cpp2vm13LivenessState5ResetEv
crc:__ZN9JSONWrite8TransferI11KeyframeTplIfEEEvRT_PKc17TransferMetaFlags
Xzd:_SortedList_GetImpl_m3689246167
Q6g:_ReadOnlyCollection_1_System_Collections_Generic_IListU3CTU3E_set_Item_m3209059215_gshared
Vwa:__ZN24BuiltinShaderParamValuesC2Ev
Muh:_PKCS12_Decode_m163534693
rrc:__ZL41CreateJSONTransferFunctionScriptingTraitsv
iha:__ZN6Shader23VirtualRedirectTransferER14SafeBinaryRead
Nyc:_cff_glyph_load
jWi:_WaitForSecondsRealtime_get_keepWaiting_m846832224
qEb:__Z23GetLateBehaviourManagerv
Hpg:__Z33RuntimeInvoker_Single_t1397266774PFvvEPK10MethodInfoPvPS4_
Bqb:__ZN14SafeBinaryRead21TransferSTLStyleArrayINSt3__26vectorI8Gradient13stl_allocatorIS3_L18MemLabelIdentifier1ELi16EEEEEEvRT_17TransferMetaFlags
VX:__ZN10MemoryPool10DeallocateEPv
wnc:__ZN8GUIState8SetEventERK10InputEvent
jAg:__Z80RuntimeInvoker_Void_t1185182177_ScriptableRenderContext_t274343796_RuntimeObjectPFvvEPK10MethodInfoPvPS4_
QIj:dynCall_vif
RIj:dynCall_vid
fDd:_Convert_ToSByte_m4075629912
SIj:dynCall_vii
ABe:_KeyPairPersistence_FromXml_m746585742
KIf:_Decoder__ctor_m4046021500
VBb:__Z18Transfer_BlittableI18StreamedBinaryReadILb0EELb0EdEvRK29SerializationCommandArgumentsR31RuntimeSerializationCommandInfo
j5c:_ColorBlock_get_fadeDuration_m121071467
g1h:__ZN6il2cpp6icalls8mscorlib6System8MonoType18GetFields_internalEP20Il2CppReflectionTypeiS5_
r2:__ZN5Unity9Component16CheckConsistencyEv
C3d:_MonoMethod_get_ContainsGenericParameters_m3860345224
R4:__ZN19ShaderPropertySheet37CreateTextureAuxPropertyUninitializedEN9ShaderLab16FastPropertyNameES1_PKc
Rwb:__ZL26Transfer_SimpleNativeClassI19StreamedBinaryWriteILb0EE10RectOffsetLb1EEvRK29SerializationCommandArgumentsR31RuntimeSerializationCommandInfo
JSj:b128
i5h:__ZN15dense_hashtableINSt3__24pairIK10KeyWrapperIPK10Il2CppTypeEjEES6_N6il2cpp8metadata14Il2CppTypeHashEN14dense_hash_mapIS6_jSB_NS6_14EqualsComparerINSA_26Il2CppTypeEqualityComparerEEENS0_9allocatorIS8_EEE9SelectKeyESF_SH_E3endEv
isa:__ZN13GfxDeviceGLES17SetGpuProgramNameEP10GpuProgramPKc
LT:__ZNK11UnityEngine15CloudWebService25WebRequestDownloadHandler11GetProgressEv
qWa:__Z43IsVertexFormatCompatibleWithDynamicBatchingRK14VertexDataInfo
eQf:_Array_InternalArray__ICollection_Add_TisMonoResource_t4103430009_m2699164149_gshared
X_h:__ZN6il2cpp2vm13MetadataCache28GetMethodDefinitionFromIndexEi
Xri:__ZN6il2cpp2os20FileErrnoToErrorCodeEi
X$a:__ZN14SafeBinaryRead19TransferSTLStyleMapINSt3__23mapI39DeprecatedFastPropertyNameSerialization10ColorRGBAfNS1_4lessIS3_EENS1_9allocatorINS1_4pairIKS3_S4_EEEEEEEEvRT_17TransferMetaFlags
hpf:_Decimal_ThrowAtPos_m1170269346
eij:__ZL98GameObject_t1113636619_CustomAttributesCacheGenerator_GameObject_SendMessage_m3720186693____value1P21CustomAttributesCache
ah:_atexit
Ete:_Selectable_set_image_m3625164794
rNe:_InternalEnumerator_1_get_Current_m1232221964_gshared
Gah:_ReadOnlyCollection_1_System_Collections_Generic_IListU3CTU3E_Insert_m1818924748_gshared
q8h:__ZN6il2cpp2vmL31GetObjectForMissingDefaultValueEj
OSf:_DecoderReplacementFallbackBuffer_GetNextChar_m2858228391
E4c:_AspectRatioFitter__ctor_m2468506840
mUc:__ZN11UnityEngine15PlatformWrapper30GetVRPlayAreaBoundaryDimensionEv
Lvh:_X509Certificate_get_Hash_m410033711
_ja:__ZN9ShaderLab14SerializedPassC2ERKS0_
Arc:__Z35Transfer_Blittable_FixedBufferFieldI9JSONWritehEvRK29SerializationCommandArgumentsR31RuntimeSerializationCommandInfo
l:STACKTOP
_Bc:_cff_get_name_index
J4a:__ZN21EnlightenSceneMapping16BuildRemapTablesEv
tac:__ZN17TransformInternal27UpdateDeepChildCountUpwardsER18TransformHierarchyii
bFf:_Single_System_IConvertible_ToBoolean_m1716619219_AdjustorThunk
Q0c:_ExecuteEvents_Execute_m3613826831
m8c:_Image_set_type_m2038193736
A:tempBigIntD
gXb:__ZNK25CameraStackRenderingState25CalculateCameraTargetTypeEv
V$d:_PropertyBuilder_GetSetMethod_m128670376
y:tempBigIntR
x:tempBigIntS
w:tempBigIntP
rn:FUNCTION_TABLE_viffi
XMd:_MemoryStream_SetLength_m974389318
K1:__ZN6Object18RegisterInstanceIDEPS_
fub:__Z18Transfer_BlittableI24GenerateTypeTreeTransferLb1EsEvRK29SerializationCommandArgumentsR31RuntimeSerializationCommandInfo
foi:__ZN15dense_hashtableINSt3__24pairIK10KeyWrapperIP12Il2CppObjectEN6il2cpp2gc9CachedCCWEEES5_NS7_5utils11PointerHashIS3_EEN14dense_hash_mapIS5_S9_SD_NS5_14EqualsComparerINS0_8equal_toIS4_EEEENS0_9allocatorISA_EEE9SelectKeyESI_SK_E11set_deletedER30dense_hashtable_const_iteratorISA_S5_SD_SM_SI_SK_E
opa:__ZNK9GfxDevice18GetWorldViewMatrixEv
ZCg:__Z70RuntimeInvoker_Single_t1397266774_Single_t1397266774_Int32_t2950945753PFvvEPK10MethodInfoPvPS4_
xCf:_X509Certificate_GetPublicKey_m4184729161
CDd:_Convert_ToUInt16_m3902921832
CUd:_Assembly_GetTypes_m1724781913
K1i:__ZL54TypeBuilder_t1073948154_CustomAttributesCacheGeneratorP21CustomAttributesCache
tui:__ZN6il2cpp6icalls8mscorlib6System7Convert17Base64ToByteArrayEPDsib
Vub:__ZL12InvokeMethodI24GenerateTypeTreeTransferEvRK29SerializationCommandArgumentsR31RuntimeSerializationCommandInfo
eig:_List_1_AddEnumerable_m376418521_gshared
ewg:__Z79RuntimeInvoker_Void_t1185182177_Byte_t1134296376_Byte_t1134296376_RuntimeObjectPFvvEPK10MethodInfoPvPS4_
bYh:__ZNSt3__218__insertion_sort_3IRN6il2cpp5utils11collections13ArrayValueMapIPK10Il2CppType17Il2CppInteropData26InteropDataToTypeConverterNS1_8metadata14Il2CppTypeLessENSA_26Il2CppTypeEqualityComparerEE12SortComparerEPS8_EEvT0_SH_T_
spa:__ZNK9GfxDevice25GetDeviceProjectionMatrixEv
ma:invoke_iidiii
lub:__Z18Transfer_BlittableI24GenerateTypeTreeTransferLb1EtEvRK29SerializationCommandArgumentsR31RuntimeSerializationCommandInfo
LP:__ZN12AudioManager33GetCurrentAmbisonicDefinitionNameE31UnityAudioEffectDefinitionFlags
Idc:__ZN11UTF16StringC2EPKc10MemLabelId
Vcc:__ZN10systeminfo24GetRuntimePlatformStringEv
LKd:_MonoIO_DeleteFile_m3839141322
OQ:__ZN5physx14PxLightCpuTask15removeReferenceEv
Fpi:__ZN6il2cpp6icalls8mscorlib6System6String22RedirectToCreateStringEv
x1i:__ZL99ILGenerator_t1388622344_CustomAttributesCacheGenerator_ILGenerator_Mono_GetCurrentOffset_m993338688P21CustomAttributesCache
dne:_LayoutRebuilder_ReapplyDrivenProperties_m2581469389
EOi:_PropertyName_op_Implicit_m1633828199
f5:__ZN9ShaderLab6TexEnvC2ERKNS_25SerializedTexturePropertyE
Tke:_InputField_Append_m687033660
pRa:__ZN9Transform32SetLocalScaleWithoutNotificationERKN4math7_float3Ey
h$a:__ZN19ShaderPropertySheet38CopyTextureWithAuxiliaryPropertiesFromERKN9ShaderLab16FastPropertyNameERKS_
KKc:__ZN20TextRenderingPrivate19NativeTextGeneratorD2Ev
Z$h:__ZN6il2cpp2vm19SocketPollingThread14DequeueRequestEv
Dri:__ZL10RevealLinkPv
elf:_DateTime__ctor_m12900168_AdjustorThunk
Egf:_ClientSessionCache_FromContext_m343076119
Gi:___cxa_end_catch
TBf:_ToBase64Transform_TransformBlock_m2497349397
$$e:_NameValueCollection_Add_m2418530856
Fee:_ReturnMessage_get_MethodSignature_m399735125
nTc:__Z43Register_UnityEngine_Canvas_set_scaleFactorv
dxe:_SortKeyBuffer_AppendLevel5_m3963841125
nCh:_PositionAssertion_Compile_m2500980346
Nvd:_ArrayListWrapper_ToArray_m3192696690
VLc:_raccess_guess_linux_cap
fQ:__Z36AudioSource_Get_Custom_PropIsPlayingP12Il2CppObject
fCb:__Z19TransferField_ArrayI18StreamedBinaryReadILb0EE27Converter_UnityEngineObjectEvRK23StaticTransferFieldInfoR31RuntimeSerializationCommandInfoRT0_
lqd:_Attribute_GetCustomAttribute_m4034845276
vqc:__ZNK5Unity9rapidjson12GenericValueINS0_4UTF8IcEE13JSONAllocatorE6AcceptINS0_12PrettyWriterI16TempBufferWriterS3_S3_S4_EEEEbRT_
baa:__Z33InitializeBuiltinShaderParamNamesv
y$f:_Type_GetConstructor_m2219014380
h6c:_CanvasUpdateRegistry_SortLayoutList_m471948466
R2:__ZNK16TypeTreeIterator4TypeEv
hKb:__ZN10FileSystem25MountDataFolderFileSystemERKN4core12basic_stringIcNS0_20StringStorageDefaultIcEEEES6_
vkd:_ArgumentOutOfRangeException__ctor_m282481429
OEh:_GUILayoutUtility_Internal_MoveWindow_m3463958180
pj:_glGetUniformLocation
Lqa:__ZN13GfxDeviceGLES32CreateColorRenderSurfacePlatformEP17RenderSurfaceBase19RenderTextureFormat
vG:__ZN12AudioManager24CreateFMODSoundFromMovieEP9AudioClip
ktj:__ZL63AnalyticsSessionInfo_t2322308579_CustomAttributesCacheGeneratorP21CustomAttributesCache
VZh:__ZN6il2cpp2vm13MetadataCache24GetGenericInstanceMethodEPK10MethodInfoPK20Il2CppGenericContext
lwi:_GC_hblk_fl_from_blocks
K2d:_MonoField_GetParentType_m2478933781
dpf:_Decimal_Parse_m942471224
Z0:__Z24ConvertSeparatorsToUnityPc
I7h:__ZN6il2cpp2gc19AppendOnlyGCHashMapINSt3__24pairIPK9EventInfoP11Il2CppClassEEP21Il2CppReflectionEvent17ReflectionMapHashIS9_ENS2_8equal_toIS9_EEE3AddERKS9_SB_
XXg:_Collection_1_System_Collections_ICollection_CopyTo_m46221116_gshared
Rfi:__ZN6il2cpp2vm6Thread20FreeThreadStaticDataEP12Il2CppThread
oOf:_Array_InternalArray__IndexOf_TisClientCertificateType_t1004704908_m3457772631_gshared
Gjg:__Z28RuntimeInvoker_RuntimeObjectPFvvEPK10MethodInfoPvPS4_
iAc:_cf2_glyphpath_finalize
N7i:__ZL56SecurityAction_t569814076_CustomAttributesCacheGeneratorP21CustomAttributesCache
GNb:__Z20LookRotationToMatrixRK8Vector3fS1_P10Matrix3x3f
pvd:_ArrayListWrapper_set_Capacity_m2373297383
mke:_Text_get_cachedTextGenerator_m2506989875
nJj:dynCall_viififi
Teg:_Enumerator_System_Collections_IEnumerator_Reset_m502339360_AdjustorThunk
t$i:__ZL58DictionaryEntry_t3123975638_CustomAttributesCacheGeneratorP21CustomAttributesCache
TPh:_TextGenerator_GetVerticesInternal_m3222977969
dSg:_List_1_RemoveAt_m4279084788_gshared
KFc:_UNITY_FT_Stream_Free
Efi:__ZN15dense_hashtableINSt3__24pairIK10KeyWrapperINS1_IP11Il2CppClassjEEES4_EES6_N6il2cpp8metadata14ArrayClassHashEN14dense_hash_mapIS6_S4_SB_NS6_14EqualsComparerINSA_17ArrayClassCompareEEENS0_9allocatorIS8_EEE9SelectKeyESF_SH_E12maybe_shrinkEv
Sgd:_CryptoConfig_EncodeLongNumber_m4127306320
TBg:__Z87RuntimeInvoker_Void_t1185182177_Single_t1397266774_Single_t1397266774_SByte_t1669577662PFvvEPK10MethodInfoPvPS4_
Kef:_CipherSuite_createEncryptionCipher_m2533565116
UR:__ZN11UnityEngine15CloudWebService14DataDispatcher25OnDataBlockConsumedStaticEPv
bRg:_List_1_CheckIndex_m3044940639_gshared
nWi:_GenericStack__ctor_m933681517
rAb:__Z29Transfer_Blittable_ArrayFieldI18StreamedBinaryReadILb1EE11QuaternionfEvRT_R9ArrayInfoRK23StaticTransferFieldInfo
nQd:_Math_Max_m482125436
P7d:_ActivatedServiceTypeEntry_ToString_m1591455874
PDf:_SecurityElement_ToXml_m3664345083
qSf:_Array_InternalArray__Insert_TisParameterModifier_t1461694466_m3664994573_gshared
H:Math_pow
fMi:_Mesh_get_tangents_m3279676290
Bia:__Z14resize_trimmedINSt3__26vectorIN9ShaderLab20SerializedSubProgram16SamplerParameterENS0_9allocatorIS4_EEEEEvRT_j
gOi:_PlayableHandle_GetPlayableType_Injected_m686992718
Qte:_Shadow_set_effectColor_m3910676693
fGj:__ZNSt3__212basic_stringIcNS_11char_traitsIcEENS_9allocatorIcEEE6insertEjPKcj
trc:__Z44InitializeTransferFunctionScriptingTraitsForI8JSONReadEvR31TransferFunctionScriptingTraits
XIb:__ZNSt3__27__sort4IRNS_4lessIN22BuiltinResourceManager8ResourceEEEPS3_EEjT0_S7_S7_S7_T_
q$e:_ListDictionary_Add_m3918308031
Wni:__ZNK15dense_hashtableINSt3__24pairIK10KeyWrapperIP12Il2CppObjectEN6il2cpp2gc9CachedCCWEEES5_NS7_5utils11PointerHashIS3_EEN14dense_hash_mapIS5_S9_SD_NS5_14EqualsComparerINS0_8equal_toIS4_EEEENS0_9allocatorISA_EEE9SelectKeyESI_SK_E23find_position_with_hashERS6_j
Vje:_Selectable_OnDisable_m3225138518
rHc:_UNITY_tt_face_get_location
EHh:_AesManaged_CreateEncryptor_m1611897367
rsc:__ZL26Transfer_SimpleNativeClassI9JSONWrite17AnimationCurveTplIfELb0EEvRK29SerializationCommandArgumentsR31RuntimeSerializationCommandInfo
zYb:__ZN10GameObject34AddFirstTransformComponentInternalEP9Transform
Kgc:__Z31Cursor_Get_Custom_PropLockStatev
w8:__ZNSt3__26__treeINS_12__value_typeINS_4pairIPcS3_EENS_3setIS3_15compare_tstringIPKcENS_9allocatorIS3_EEEEEENS_19__map_value_compareIS4_SD_20smaller_tstring_pairIS8_ELb1EEENSA_ISD_EEE7destroyEPNS_11__tree_nodeISD_PvEE
XM:__ZN12AudioManager29GetCurrentAmbisonicDefinitionE31UnityAudioEffectDefinitionFlags
jhc:__Z52Register_UnityEngine_GameObject_GetComponentInParentv
udb:__ZN15SerializeTraitsINSt3__24pairIPKN5Unity4TypeE7Hash128EEE8TransferI14SafeBinaryReadEEvRS7_RT_
Ivi:_GC_number_stack_black_listed
Jqf:_Decimal_ToString_m4018746482_AdjustorThunk
MVb:__Z37GenerateCombinedDynamicVisibleListJobP11CullResults
B4f:_Dictionary_2_ToTKey_m2055624458_gshared
w6a:__ZNK13ScreenManager21GetCursorInsideWindowEv
WVd:_CustomAttributeData_GetCustomAttributes_m1033457578
s7d:_SafeHandle_DangerousAddRef_m614714386
MSb:__Z20IntersectAABBFrustumRK4AABBPK5Planej
Ise:_ScrollRect_OnDrag_m688583138
$7b:__ZN13RenderManager15InitializeClassEv
Uqb:__ZN15SerializeTraitsI12PropertyNameE8TransferI14SafeBinaryReadEEvRS0_RT_
L4g:_ReadOnlyCollection_1_System_Collections_IList_IndexOf_m3120991897_gshared
Uce:_Header__ctor_m1921907550
Kue:_Slider_FindSelectableOnUp_m4062600878
Atd:_Convert_ToSByte_m1350241137
XKi:_Material_SetIntImpl_m724477324
z7:__GLOBAL__sub_I_runtime_baseclasses_2_cpp
Atc:__ZN9JSONWrite8TransferI11ColorRGBA32EEvRT_PKc17TransferMetaFlags
gwc:__Z22TransferField_NonArrayI8JSONRead27Converter_SimpleNativeClassI8GradientEEvRK23StaticTransferFieldInfoR31RuntimeSerializationCommandInfoRT0_
sFb:__ZN10MonoScript13AwakeFromLoadE17AwakeFromLoadMode
J8e:_Interval__ctor_m4022869013
yrd:_Boolean_System_IConvertible_ToUInt16_m3465173538
XPa:__ZN10MemoryFile21CreateFileSystemEntryE10MemLabelId14FilePermissionPvjb
GFa:__ZNK18GfxFramebufferGLES15DiscardContentsER12ObjectHandleI17RenderSurface_TagP17RenderSurfaceBaseE
ubf:_ARC4Managed_KeySetup_m2449315676
R_h:__ZN6il2cpp2vm13MetadataCache27GetEventDefinitionFromIndexEi
UDd:_Convert_ToUInt64_m92315402
Hsc:__Z18Transfer_BlittableI9JSONWriteLb1EdEvRK29SerializationCommandArgumentsR31RuntimeSerializationCommandInfo
qNj:_glGetIntegerv__wrapper
QSf:_EncoderExceptionFallback__ctor_m3745979420
QJe:_InternalEnumerator_1_System_Collections_IEnumerator_get_Current_m435848551_gshared
p3:__ZN10GameObject28FinalizeAddComponentInternalEPN5Unity9ComponentE
$wj:__ZL57Image_t2670269651_CustomAttributesCacheGenerator_m_SpriteP21CustomAttributesCache
M3a:__ZN9Texture2DD2Ev
UOh:_AudioExtensionManager_GetReadyToPlay_m1557263244
pDd:_Convert_ToSingle_m164367433
iqh:_Array_InternalArray__get_Item_TisILTokenInfo_t2325775114_m3110830457_gshared
YBd:_Convert_ToDecimal_m1284410333
Jnf:_DateTime_CheckStyle_m1392838900
bmd:_SmallXmlParser_ReadUntil_m2715581630
y$e:_NameObjectCollectionBase__ctor_m2090733912
A7e:_Group__cctor_m2230627219
IJf:_Array_InternalArray__ICollection_Contains_TisDouble_t594665363_m1696010878_gshared
Jo:FUNCTION_TABLE_viiiffi
fdf:_RSAManaged_EncryptValue_m4149543654
Pq:__ZN13dynamic_arrayIhLj1EE18resize_initializedEjRKh12ResizePolicy
yda:__ZN27IntermediateRendererManagerD2Ev
aib:__ZN17PersistentManager27GetLoadErrorMessageFromPathERKN4core12basic_stringIcNS0_20StringStorageDefaultIcEEEE
Cuh:_NetscapeCertTypeExtension_ToString_m1800688476
cm:_glGenRenderbuffers
sii:__ZN6il2cpp6icalls8mscorlib6System2IO6MonoIO19GetCurrentDirectoryEPi
GRi:_Renderer_get_sortingOrder_m344607889
zTb:__Z21IntersectSegmentPlaneRK8Vector3fS1_RK5PlanePS_
Yrg:__Z81RuntimeInvoker_Void_t1185182177_Int64_t3736567304_RuntimeObject_Int32_t2950945753PFvvEPK10MethodInfoPvPS4_
lBj:__ZL50Outline_t2536100125_CustomAttributesCacheGeneratorP21CustomAttributesCache
$Ad:_Convert_ToBoolean_m4098720762
rDh:_Uri_get_IsFile_m2450018824
Oba:__ZN14CachingManager7DisposeEv
NM:__ZN12AudioManager31GetCurrentSpatializerDefinitionEv
Y_e:_HybridDictionary_Add_m912320053
ybb:__ZN12MeshRenderer16UpdateCachedMeshEv
OGh:_KeyBuilder_IV_m3340234014
Aqb:__Z19TransferField_ArrayI14SafeBinaryRead27Converter_SimpleNativeClassI8GradientEEvRK23StaticTransferFieldInfoR31RuntimeSerializationCommandInfoRT0_
r7f:_DefaultComparer_Equals_m1163494476_gshared
BKf:_Array_InternalArray__ICollection_Remove_TisDictionaryEntry_t3123975638_m3699186409_gshared
DTd:_Object_Equals_m1397037629
Xy:__ZNK27StateMachineBehaviourPlayer25FireStateMachineBehaviourEiiN7mecanim12statemachine19StateMachineMessageE
cEi:_AsyncOperation_t1445031843_marshal_pinvoke_back
_7:__GLOBAL__sub_I_runtime_utilities_4_cpp
yPi:_Rect_get_center_m138276653
cYb:__ZN6Camera15SetOrthographicEb
RBc:_UNITY_FT_Stream_GetUShort
zpa:__ZN13GfxDeviceGLES14DisableScissorEv
Svg:__Z240RuntimeInvoker_RuntimeObject_Int16_t2552820387_RuntimeObject_Int32_t2950945753_Int32_t2950945753_Int32_t2950945753_SByte_t1669577662_SByte_t1669577662_SByte_t1669577662_SByte_t1669577662_Int16_t2552820387_SByte_t1669577662_SByte_t1669577662PFvvEPK10MethodInfoPvPS4_
KEi:_Bounds_get_size_m1178783246_AdjustorThunk
oIc:_tt_get_var_blend
dpg:__Z64RuntimeInvoker_Double_t594665363_RuntimeObject_Int32_t2950945753PFvvEPK10MethodInfoPvPS4_
mHe:_InternalEnumerator_1_System_Collections_IEnumerator_get_Current_m2141782011_AdjustorThunk
gGe:_InternalEnumerator_1_System_Collections_IEnumerator_get_Current_m1295084274_AdjustorThunk
fjf:_RecordProtocol_BeginSendRecord_m615249746
Cc:_glVertexAttrib4f
Ehg:_Enumerator_System_Collections_IEnumerator_get_Current_m209407522_AdjustorThunk
KHi:_Display_get_systemHeight_m730809466
Pig:_List_1_System_Collections_IList_Insert_m4074493513_gshared
XJc:__ZNSt3__26vectorINS_4pairINS1_IttEEfEENS_9allocatorIS3_EEE8__appendEj
nDh:_Uri_GetOpaqueWiseSchemeDelimiter_m1909471550
kxi:_GC_set_hdr_marks
SVa:__Z17SetupObjectMatrixRK10Matrix4x4fi
p5f:_Dictionary_2_OnDeserialization_m1254782141_gshared
z8:__ZN13RuntimeStaticINSt3__23mapINS0_4pairIPcS3_EEPFbPvR14SafeBinaryReadE20smaller_tstring_pairIPKcENS0_9allocatorINS2_IKS4_S9_EEEEEELb0EE13StaticDestroyES5_
sLd:_FileStream_FlushBufferIfDirty_m4249802951
LQe:_DefaultComparer_Compare_m1916473435_gshared
dDd:_Convert_ToSByte_m2653811524
BLc:_open_face
J6b:__ZZL31RegisterOtherRendererPropertiesR22GenericPropertyBindingEN30Wrapper_RendererReceiveShadows13SetFloatValueEPvf
GRc:__Z17RegisterModule_UIv
tA:__ZN8Animator24SortJobsBasedOnHierarchyERK13dynamic_arrayINS_11AnimatorJobELj8EERS0_IS2_Lj4EE
XQd:_MonoCustomAttrs_GetCustomAttributes_m1347331976
BMi:_Mesh_Clear_m2630385472
xpg:__Z46RuntimeInvoker_RuntimeObject_Int16_t2552820387PFvvEPK10MethodInfoPvPS4_
qqa:__ZN9GfxDevice24CreateRenderDepthSurfaceE9TextureIDiiii16TextureDimension17DepthBufferFormat18SurfaceCreateFlags
Dbe:_SynchronizationAttribute_set_Locked_m2760363037
ZEd:_Int16_Equals_m82811458
Pcf:_PrivateKeyInfo_Decode_m986145117
AQi:_RectOffset_get_top_m2855347295
nG:__ZN4FMOD5Sound11setUserDataEPv
Eha:__ZN14SafeBinaryRead21TransferSTLStyleArrayINSt3__26vectorIN9ShaderLab19SerializedSubShaderENS1_9allocatorIS4_EEEEEEvRT_17TransferMetaFlags
c1c:_ExecuteEvents_Execute_m533210008
wog:__Z137RuntimeInvoker_Void_t1185182177_Int32_t2950945753_RuntimeObject_RuntimeObject_RuntimeObject_RuntimeObject_RuntimeObject_SByte_t1669577662PFvvEPK10MethodInfoPvPS4_
Iyf:_Guid_op_Equality_m4289903222
Rw:__ZN27AnimationLayerMixerPlayable13SetInputCountEi
sPa:__ZNK25SingleBlockMemoryFileData4SizeEv
dB:__ZN9BlobWrite8TransferIN7mecanim12statemachine18StateMachineMemoryEEEvRT_PKc17TransferMetaFlags
Dni:__ZNK15dense_hashtableINSt3__24pairIK10KeyWrapperIP12Il2CppObjectEN6il2cpp2gc9CachedCCWEEES5_NS7_5utils11PointerHashIS3_EEN14dense_hash_mapIS5_S9_SD_NS5_14EqualsComparerINS0_8equal_toIS4_EEEENS0_9allocatorISA_EEE9SelectKeyESI_SK_E3endEv
hmf:_DateTime_System_IConvertible_ToUInt32_m3781235049
vlg:__Z92RuntimeInvoker_Int32_t2950945753_RuntimeObject_RuntimeObject_SByte_t1669577662_RuntimeObjectPFvvEPK10MethodInfoPvPS4_
aId:_Int64_System_IConvertible_ToType_m3223988955
GUb:__ZN14qsort_internal5QSortIP16RenderObjectDatai25RenderPrePassObjectSorterEEvT_S4_T0_T1_
vBf:_SymmetricAlgorithm_Dispose_m1120980942
Fba:__ZL19StaticCleanupPlayerPv
YQd:_MonoCustomAttrs_RetrieveAttributeUsage_m2717094301
fKd:_DirectoryInfo_Initialize_m1389772934
B9b:__ZN13PlayableGraph4StopEv
tDi:_AnimationCurve_Init_m425927913
iL:__ZN12AudioManager37RebindAudioSourcesAndSubMixersToMixerEP10AudioMixer
UJa:__ZN9Behaviour10DeactivateE19DeactivateOperation
Kme:_LayoutGroup_DelayedSetDirty_m2562435574
l2a:__ZN13StreamingInfo8TransferI14SafeBinaryReadEEvRT_
fia:__ZN15dense_hashtableINSt3__24pairIKiN4core17string_with_labelILi1EEEEEi18SInt32HashFunctionN14dense_hash_mapIiS5_S7_NS0_8equal_toIiEE13stl_allocatorIS6_L18MemLabelIdentifier1ELi16EEE9SelectKeyESA_SD_E15insert_noresizeERKS6_
kri:__ZN6il2cpp2vmL22RaiseOverflowExceptionEv
Pp:__Z23CalculateGlobalRotation23TransformAccessReadOnly
Kma:__ZNK9ShaderLab7Program11IsSupportedEPK6Shader
N$:__ZNK4core8hash_mapIPKcPK4RTTIN11TypeManager23ConstCharPtrHashFunctorENS6_19ConstCharPtrEqualToEE6lookupERKS2_
n0d:_TypeBuilder_GetMethodImpl_m3583143647
pAj:__ZL54LayoutGroup_t2436138090_CustomAttributesCacheGeneratorP21CustomAttributesCache
pFj:_strcat
G6b:__Z43InitializeRendererAnimationBindingInterfacev
Waa:__ZL26DestroyGameObjectRecursiveR10GameObjectR11BatchDelete
Bxi:_GC_allochblk_nth
a$c:_BaseInput_get_touchSupported_m2634027966
Ose:_ScrollRect_get_vScrollingNeeded_m1717136831
dHh:_SymmetricTransform_FinalEncrypt_m748885414
U5b:__Z7HaloTexP9Texture2DPhiiii
ZJj:dynCall_i
lrb:__ZN14SafeBinaryRead21TransferSTLStyleArrayI13dynamic_arrayIxLj8EEEEvRT_17TransferMetaFlags
lJj:dynCall_f
n$e:_ListDictionary_GetEnumerator_m3395631195
Mub:__Z35Transfer_Blittable_FixedBufferFieldI24GenerateTypeTreeTransferjEvRK29SerializationCommandArgumentsR31RuntimeSerializationCommandInfo
BBe:_KeyPairPersistence_Save_m3111435398
FIj:dynCall_v
RDa:__ZN7ApiGLES14TextureSamplerEjjRK24GfxTextureSamplingParams17TextureColorSpace
Ozd:_SortedList_System_Collections_IEnumerable_GetEnumerator_m2738760439
hgi:__ZN6il2cpp2vm6Thread8SetStateEP12Il2CppThreadNS0_11ThreadStateE
wSa:__ZN6Camera23VirtualRedirectTransferER14SafeBinaryRead
TBi:__ZNSt3__26vectorINS_12basic_stringIDsNS_11char_traitsIDsEENS_9allocatorIDsEEEENS4_IS6_EEE8__appendEj
RVc:__ZN11UnityEngine7Connect13ConnectConfig11ConfigValueD2Ev
OEa:__ZNSt3__26__treeINS_12__value_typeIjP14DataBufferGLESEENS_19__map_value_compareIjS4_NS_4lessIjEELb1EEENS_9allocatorIS4_EEE7destroyEPNS_11__tree_nodeIS4_PvEE
lbf:_ASN1Convert_ToInt32_m2228176117
$Di:_AssetBundleRequest_t699759206_marshal_pinvoke_back
O9b:__ZN13PlayableGraph15SetPrepareStageE13DirectorStage
xb:invoke_viiiiiiii
AEd:_Int16_System_IConvertible_ToDateTime_m3080274979_AdjustorThunk
TEa:__ZN18GfxFramebufferGLES24UpdateDefaultFramebufferEP17RenderSurfaceBaseS1_N2gl6HandleILNS2_10ObjectTypeE9EEE
cvg:__Z74RuntimeInvoker_RuntimeObject_RuntimeObject_Double_t594665363_RuntimeObjectPFvvEPK10MethodInfoPvPS4_
urh:_SslHandshakeHash__ctor_m4169387017
uSh:_Animator_ResetTrigger_m2321267720
web:__ZN18StreamedBinaryReadILb0EE21TransferSTLStyleArrayI13dynamic_arrayIiLj4EEEEvRT_17TransferMetaFlags
q4a:__ZN16LightmapSettings5ResetEv
TMa:__ZN12FileAccessor4ReadEyPvPy
llg:__Z67RuntimeInvoker_Void_t1185182177_Int16_t2552820387_Int32_t2950945753PFvvEPK10MethodInfoPvPS4_
Woc:__Z42Register_UnityEngine_Event_get_commandNamev
z1g:_Collection_1_IsValidItem_m714924194_gshared
wqc:__ZN5Unity9rapidjson12PrettyWriterI16TempBufferWriterNS0_4UTF8IcEES4_13JSONAllocatorE12PrettyPrefixENS0_4TypeE
BVf:_UnicodeEncoding_GetString_m332467280
cfc:__ZN8TypeTreeC2E10MemLabelId
F1:__ZNK15FileSystemEntry6ExistsEv
Ybb:__ZNK9Transform21GetLocalToWorldMatrixER10Matrix4x4f
_Ti:_Transform_INTERNAL_get_rotation_m2413441996
b4c:_TouchInputModule_IsModuleSupported_m384818291
Mnf:_DateTime_ToString_m884486936
bcf:_MD4Managed_HashCore_m3384203071
qH:__ZN13AudioListener23VirtualRedirectTransferER19StreamedBinaryWriteILb0EE
Nff:_ClientRecordProtocol_createClientHandshakeMessage_m3325677558
hra:__ZN13GfxDeviceGLES11CopyTextureE9TextureIDS0_
aAd:_SortedList_get_Capacity_m919184864
BMj:_emscripten_glViewport__wrapper
WT:__ZN11UnityEngine15CloudWebService23WebRequestUploadHandler13GetUploadDataERj
mGi:_Color32_ToString_m403383053_AdjustorThunk
Tyf:_RIPEMD160Managed_GG_m3020389474
AQh:_Canvas_get_sortingOrder_m1860900812
e3c:__Z30il2cpp_codegen_raise_exceptionP11Exception_tP10MethodInfo
u9d:_ConfigHandler_ReadChannel_m781299361
EPi:_Rect_get_max_m350137314
$Bj:_Hacker_AskForPasword_m3240326715
Rwg:__Z99RuntimeInvoker_Void_t1185182177_Int32_t2950945753_Int32_t2950945753_SByte_t1669577662_RuntimeObjectPFvvEPK10MethodInfoPvPS4_
Jmf:_DateTime_Compare_m2855073242
M9d:_InternalRemotingServices_GetCachedSoapAttribute_m1042302982
kS:__ZN11UnityEngine15CloudWebService17SessionEventQueue15RestoreFromFileER12FileAccessorPvy
eXd:_ConstructorBuilder_GetILGenerator_m1421260830
Bhi:__ZN6il2cpp2vm9Exception25RaiseOutOfMemoryExceptionEv
Ndb:__ZN14PlayerSettingsD2Ev
voe:_RectMask2D_RemoveClippable_m773604960
zWi:__ZL51Attribute_t861562559_CustomAttributesCacheGeneratorP21CustomAttributesCache
kQd:_Math_Ceiling_m625148210
pwi:_GC_reclaim_all
rea:__ZN13PlayableGraph14DestroyOutputsEv
VWg:_Enumerator_System_Collections_IEnumerator_get_Current_m3895111131_gshared
kf:___syscall122
aCd:_Convert_ToDecimal_m2858622624
STd:_OperatingSystem__ctor_m1545635730
iQg:_List_1_RemoveAll_m2406195485_gshared
qnb:__ZNK17InstancingBatcher25FillInstanceBufferWithJobIN10Instancing11DrawAPIArgsEEEvR8JobFenceR13dynamic_arrayIPvLj4EEjjRKT_
JO:__ZN9AudioClip16EnableLegacyModeEv
dbe:_Context_DoCallBack_m749197451
eRh:_CanvasRenderer_set_materialCount_m4286588063
ygc:__Z52Register_UnityEngine_Camera_INTERNAL_CALL_RaycastTryv
YEj:_mkdir
KIh:_VerticalLayoutGroup_SetLayoutHorizontal_m84550911
Y0e:_HttpWebRequest_get_ServicePoint_m3916606901
dAi:__GLOBAL__sub_I_MemoryMappedFile_cpp
_gg:_Enumerator_MoveNext_m29052175_AdjustorThunk
gSi:_SendMouseEvents_SetMouseMoved_m2822596724
Fec:__ZN18ScriptingArguments13CopyFromOtherERKS_
uDe:_PKCS12_ReadSafeBag_m1585166574
yIc:_ps_hints_close
n8b:__Z16CreateRenderLoopR6Camera
CEb:__ZN32SerializationCommandQueueBuilder3AddERK20SerializationCommand
WW:_tlsf_create
d9g:_ReadOnlyCollection_1_System_Collections_IEnumerable_GetEnumerator_m2505713430_gshared
_eb:__ZN14SafeBinaryRead21TransferSTLStyleArrayINSt3__26vectorIN15ResourceManager10DependencyE13stl_allocatorIS4_L18MemLabelIdentifier52ELi16EEEEEEvRT_17TransferMetaFlags
VDb:__ZN13MonoBehaviour23VirtualRedirectTransferER18StreamedBinaryReadILb0EE
Eja:__ZN9ShaderLab20SerializedSubProgramC2ERKS0_
YKd:_FileLoadException__ctor_m3879680456
Qph:_Array_InternalArray__get_Item_TisKeyValuePair_2_t71524366_m252172060_gshared
ZGj:__ZNK10__cxxabiv121__vmi_class_type_info27has_unambiguous_public_baseEPNS_19__dynamic_cast_infoEPvi
ESd:_MulticastDelegate_CombineImpl_m2857239134
D3f:_Version_op_Inequality_m1696193441
i7d:_Marshal_ReadByte_m1960935664
x5a:__ZN15QualitySettings23VirtualRedirectTransferER19StreamedBinaryWriteILb0EE
OQb:__Z20RenderFullScreenQuadR9GfxDeviceRK6Camera17ShaderChannelMaskRK5RectTIfEf21MonoOrStereoscopicEye
Fvd:_ArrayListWrapper_CopyTo_m3756520478
R5d:_ResourceInfo_t2872965302_marshal_pinvoke
T6b:__ZN8Material8GetFloatEN9ShaderLab16FastPropertyNameE
enc:__Z11GetGUIStatev
kg:_glGetActiveUniform
AOf:_Array_InternalArray__IndexOf_TisSlot_t3975888750_m4250446283_gshared
rg:_emscripten_glGetObjectParameterivARB
DBh:_CharacterClass_AddCharacter_m2370152363
b7:__ZN15SerializeTraitsI10ColorRGBAfE8TransferI14SafeBinaryReadEEvRS0_RT_
s4g:_Collection_1_IsValidItem_m2333176545_gshared
Cba:__ZN22BuiltinResourceManager13StaticDestroyEPv
Oaa:__ZN10GameObject17GetComponentIndexEPN5Unity9ComponentE
b7a:__ZN14SafeBinaryRead21TransferSTLStyleArrayI13dynamic_arrayI7SubMeshLj4EEEEvRT_17TransferMetaFlags
zlh:_Array_InternalArray__set_Item_TisILTokenInfo_t2325775114_m309595583_gshared
DMc:__ZNK13TextRendering4Font11GetMaterialEv
ZJ:__ZN29AudioEffectInternalDefinition9CreateDSPEPN4FMOD6SystemEPvPfP23UnityAudioAmbisonicDataPP25UnityAudioSpatializerData
eIc:_UNITY_tt_face_vary_cvt
jxe:_SimpleCollator_ClearBuffer_m2975394169
_Dh:_Event_Internal_GetMousePosition_m1101229675
Oth:_TlsStream_ReadInt24_m3096782201
a_b:__ZN35RegisterRuntimeInitializeAndCleanup22ExecuteInitializationsEv
hCf:_TripleDESCryptoServiceProvider_CreateEncryptor_m450924958
ZCh:_UriParser_GetParser_m544052729
Pke:_Text_get_font_m2857203289
uLa:__ZN23PreloadManagerOperation14SetFinalTimingEffff
i:DYNAMICTOP_PTR
M_d:_MethodBuilder_fixup_m1765890582
the:_ObjectReader_ReadSimpleArray_m428957657
xdb:__ZN13BuildSettings8TransferI18StreamedBinaryReadILb0EEEEvRT_
DQd:_MissingFieldException__ctor_m4282575076
fqf:_Decimal_Equals_m2592017260
bae:_ConfigHandler_OnEndParsing_m3764034673
eae:_RemotingConfiguration_RegisterTypes_m2378540395
Slc:__Z38Renderer_Get_Custom_PropSortingLayerIDP12Il2CppObject
yLe:_InternalEnumerator_1_System_Collections_IEnumerator_get_Current_m767948013_gshared
FGi:_DelegatePInvokeWrapper_CSSMeasureFunc_t1554030124
ODi:_UnityAction_Invoke_m893829196
eMa:__ZN14AsyncOperationD0Ev
qva:__Z29TextureIdMapGLES_QueryOrAlloc9TextureID
f7h:__ZN15dense_hashtableINSt3__24pairIK10KeyWrapperINS1_IPK12PropertyInfoP11Il2CppClassEEEjEES9_17ReflectionMapHashIS8_EN14dense_hash_mapIS9_jSD_NS9_14EqualsComparerINS0_8equal_toIS8_EEEENS0_9allocatorISB_EEE9SelectKeyESI_SK_E12resize_deltaEjj
TFi:_Color_GetHashCode_m1829208463
Ydc:__Z25scripting_raise_exception21ScriptingExceptionPtr
vle:_Text_get_cachedTextGeneratorForLayout_m116487342
SSh:__ZL11decimalLog2P19il2cpp_decimal_repr
hfb:__ZN15ResourceManager10Dependency8TransferI14SafeBinaryReadEEvRT_
G$g:_Collection_1_System_Collections_IList_Remove_m3800279569_gshared
Tvi:_GC_extend_size_map
TZd:_GenericTypeParameterBuilder_GetCustomAttributes_m386082976
dve:_Text_FontTextureChanged_m495427969
WFd:_NumberFormatter_RoundDecimal_m2957290908
BK:__ZN4FMOD6System9setDriverEi
xY:__ZNK9Transform11GetRotationEv
HNj:_emscripten_glGetIntegerv__wrapper
IK:__ZN12AudioManager15DidReloadDomainEv
mQf:_Array_InternalArray__ICollection_Add_TisSingle_t1397266774_m1873979703_gshared
VIc:_pshinter_get_globals_funcs
Nub:__Z18Transfer_BlittableI24GenerateTypeTreeTransferLb0EyEvRK29SerializationCommandArgumentsR31RuntimeSerializationCommandInfo
C$a:__ZN8Material14CreateMaterialER6ShaderN6Object9HideFlagsEb
wZf:_TimeSpan_get_Minutes_m4278980001_AdjustorThunk
pEh:_GUI__cctor_m3051457990
e0c:_EventSystem_IsPointerOverGameObject_m1911785875
j5:__Z25GetBuiltinResourceManagerv
ani:__ZN6il2cpp2gc8GCHandle15GetTargetHandleEP12Il2CppObjectii
JGd:_Int32_System_IConvertible_ToByte_m3832391412
Jh:_llvm_trap
haa:__ZNSt3__27__sort5IRNS_6__lessIN12_GLOBAL__N_114ParamNameIndexES3_EEPS3_EEjT0_S7_S7_S7_S7_T_
bwh:_X509Certificate_VerifySignature_m3988463526
SQi:_RectTransform_get_anchoredPosition_m1813443094
owi:_get_index
hEd:_GuidParser_AtEnd_m3409982497
fBe:_KeyBuilder_Key_m876696100
GOe:_InternalEnumerator_1_System_Collections_IEnumerator_get_Current_m2164048921_gshared
h4h:__ZN15dense_hashtableINSt3__24pairIK10KeyWrapperINS1_IPK14Il2CppAssemblyP11Il2CppClassEEEjEES9_17ReflectionMapHashIS8_EN14dense_hash_mapIS9_jSD_NS9_14EqualsComparerINS0_8equal_toIS8_EEEENS0_9allocatorISB_EEE9SelectKeyESI_SK_EC2ERKSN_j
x8h:__ZN6il2cpp2vm10Reflection7IsFieldEP12Il2CppObject
j0h:__ZN6il2cpp2vm21ThreadPoolCompartment12DetachThreadEP12Il2CppThread
Jfd:_SByte_System_IConvertible_ToInt16_m885121451_AdjustorThunk
gpf:_Decimal_stripStyles_m1823381019
Gqa:__ZN13GfxDeviceGLES30SetBackBufferColorDepthSurfaceEP17RenderSurfaceBaseS1_
Vnj:__ZL63TexturePlayableOutput_t648497447_CustomAttributesCacheGeneratorP21CustomAttributesCache
Kpc:__Z52Register_UnityEngine_GUIUtility_get_systemCopyBufferv
xph:_LayoutGroup_SetProperty_TisBoolean_t97287965_m3903959758_gshared
_9b:__ZN16StreamedResource8TransferI18StreamedBinaryReadILb0EEEEvRT_
Eic:__Z49Register_UnityEngine_Input_get_imeCompositionModev
BSi:_Sprite_INTERNAL_get_rect_m1600380876
eia:__ZN15dense_hashtableINSt3__24pairIKiN4core17string_with_labelILi1EEEEEi18SInt32HashFunctionN14dense_hash_mapIiS5_S7_NS0_8equal_toIiEE13stl_allocatorIS6_L18MemLabelIdentifier1ELi16EEE9SelectKeyESA_SD_E12resize_deltaEjj
IFi:_Camera_INTERNAL_CALL_RaycastTry2D_m3172975827
$Wb:__ZNK20OcclusionCullingData22GetStaticRendererCountEv
qxc:__GLOBAL__sub_I_runtime_particlesystem_modules_5_cpp
oRj:_emscripten_glDisableVertexAttribArray__wrapper
GTd:_Object_InternalGetHashCode_m4213713973
JRd:_MonoType_GetAttributeFlagsImpl_m167182975
Adf:_EncryptedData_get_EncryptedContent_m3205649670
Abb:__ZN12MeshRenderer18CalculateLocalAABBER4AABBRKS_RK4Mesh
PV:__ZN21UnityDefaultAllocatorI17LowLevelAllocatorE8AllocateEji
nx:__ZN7mecanim5human14HumanPoseClearERNS0_9HumanPoseERKNS_6bitsetILj83EEE
qPc:__ZL28InitializeUIScriptingClassesv
Nzg:__Z54RuntimeInvoker_Vector2_t2156229523_Vector3_t3722313464PFvvEPK10MethodInfoPvPS4_
JHb:__ZN10UnityScene10ClearRootsEv
O8g:_ReadOnlyCollection_1_System_Collections_IList_set_Item_m2162444692_gshared
plb:__ZN12HandlerChain10AtomicMoveER13FileEntryDataS1_
XGa:__ZN9GfxDevice17HasGPUFencePassedEPv
Xda:__ZZN15DirectorManager15InitializeClassEvEN48PreLateUpdateDirectorDeferredEvaluateRegistrator7ForwardEv
pyc:__ZN20SpeedTreeWindManager6UpdateEf
aqg:__Z68RuntimeInvoker_Int64_t3736567304_IntPtr_t_MonoIOErrorU26_t1548853198PFvvEPK10MethodInfoPvPS4_
SC:__ZN7mecanim9animation20CreateAvatarConstantEPNS_8skeleton8SkeletonEPNS1_13SkeletonPoseTIN4math4trsXEEES8_PNS_5human5HumanES3_iRKS6_RNS_6memory9AllocatorE
Xab:__ZN14CompressedMesh8TransferI19StreamedBinaryWriteILb0EEEEvRT_
dSf:_Array_InternalArray__Insert_TisDouble_t594665363_m675699942_gshared
uSg:_List_1_System_Collections_IList_Add_m3014885234_gshared
Pgh:_UnityAction_1_Invoke_m3535252839_gshared
zte:_Selectable_set_isPointerInside_m701571657
dVa:__ZN24GenerateTypeTreeTransfer8TransferI21PlatformShaderDefinesEEvRT_PKc17TransferMetaFlags
Reb:__ZNK15ResourceManager22GetTypeVirtualInternalEv
Ski:__ZN6il2cpp2vmL36AddNestedTypesToNametoClassHashTableEPK11Il2CppImagePK20Il2CppTypeDefinition
eUg:_List_1_set_Capacity_m2707586410_gshared
XMi:_PlayerConnection_MessageCallbackInternal_m1914517467
mEi:_AttributeHelperEngine__cctor_m1900959362
EJc:__ZN13TextRendering4Font23VirtualRedirectTransferER24GenerateTypeTreeTransfer
$2e:_X509SubjectKeyIdentifierExtension_ToString_m12089275
qCg:__Z106RuntimeInvoker_RuntimeObject_RuntimeObject_Int32_t2950945753_Int16_t2552820387_RuntimeObject_RuntimeObjectPFvvEPK10MethodInfoPvPS4_
S2f:_UnhandledExceptionEventArgs__ctor_m224348470
v0b:__ZL16MouseMoveHandleriPK20EmscriptenMouseEventPv
qOf:_Array_InternalArray__IndexOf_TisByte_t1134296376_m929524687_gshared
oP:__ZN11AudioSource15InitializeClassEv
i1c:_ExecuteEvents_get_dragHandler_m3849431675
pQb:__ZN11HaloManager17RenderGeometryJobEP25DynamicVBOGeometryJobDataj
lNi:_Object_DestroyImmediate_m2288369078
iAe:_BitConverterLE_UShortFromBytes_m1253080092
hE:__ZNSt3__227__insertion_sort_incompleteIRPFbN7mecanim9animation13MuscleIndexIdES3_EPS3_EEbT0_S8_T_
ARj:_emscripten_glBlendEquation__wrapper
Xei:__ZN15dense_hashtableINSt3__24pairIK10KeyWrapperIP11Il2CppClassES4_EES5_N6il2cpp8metadata16SZArrayClassHashEN14dense_hash_mapIS5_S4_SA_NS5_14EqualsComparerINS9_19SZArrayClassCompareEEENS0_9allocatorIS7_EEE9SelectKeyESE_SG_E13set_empty_keyERKS7_
SFj:__ZNSt3__212basic_stringIcNS_11char_traitsIcEENS_9allocatorIcEEE6__initEPKcj
Qj:_emscripten_set_fullscreenchange_callback
Y$d:_PropertyBuilder_IsDefined_m406627924
ubh:_ReadOnlyCollection_1_System_Collections_IList_Insert_m4085855595_gshared
Zyh:_PatternCompiler_NewLink_m3699449496
$U:__ZN11UnityEngine15CloudWebService14DataDispatcher22ResetNetworkRetryIndexEv
Vj:_emscripten_glDrawArrays
YKi:_Material_HasProperty_m2704238996
FKb:__ZZ23InitPlayerLoopCallbacksvEN43EarlyUpdateExecuteMainThreadJobsRegistrator7ForwardEv
CU:__ZN11UnityEngine15CloudWebService19SessionEventManagerC2Ev
Dtd:_Char_System_IConvertible_ToSingle_m2690985411_AdjustorThunk
Hch:_Comparison_1_Invoke_m668117148_gshared
e$e:_DictionaryNodeEnumerator_FailFast_m2494733641
I6:__ZN14GfxDoubleCacheIyP17VertexDeclaration14GfxGenericHashIyENSt3__28equal_toIyEEN31GfxDoubleCacheConcurrencyPolicy11LocklessGetE42GfxDoubleCacheDefaultEmptyDeletedGeneratorIyEE3GetI15VertDeclCreatorEERKS1_RKyT_
h_c:__ZN13RuntimeStaticI14dynamic_bitsetLb0EE16StaticInitializeEPv
Dga:__ZNSt3__222__merge_move_constructIRNS_4lessIN4core12basic_stringIcNS2_20StringStorageDefaultIcEEEEEENS_11__wrap_iterIPS6_EESB_EEvT0_SC_T1_SD_PNS_15iterator_traitsISC_E10value_typeET_
ngc:__Z41Register_UnityEngine_Camera_get_eventMaskv
EP:__ZL19CleanupModule_Audiov
m9e:_IntervalCollection_CopyTo_m2976848759
W5c:_CanvasUpdateRegistry_ObjectValidForUpdate_m2723813849
hDa:__ZN18GlslGpuProgramGLES25LoadFromBinaryShaderCacheERjRKN4core12basic_stringIcNS1_20StringStorageDefaultIcEEEER17ShaderChannelMaskPKc
jQg:_List_1_RemoveAt_m1433290785_gshared
Rrb:__Z29Transfer_Blittable_ArrayFieldI14SafeBinaryReadiEvRT_R9ArrayInfoRK23StaticTransferFieldInfo
$0h:__ZN6il2cpp6icalls8mscorlib6System8MonoType8GetFieldEP20Il2CppReflectionTypeP12Il2CppStringi
GYh:__ZN15dense_hashtableINSt3__24pairIK10KeyWrapperIN6il2cpp5utils13dynamic_arrayIPK10Il2CppTypeLj4EEEEPFvvEEESA_NS3_8metadata19Il2CppSignatureHashEN14dense_hash_mapISA_SD_SG_NSA_14EqualsComparerINSF_22Il2CppSignatureCompareEEENS0_9allocatorISE_EEE9SelectKeyESK_SM_E5clearEv
EAf:_SHA256Managed_ProcessBlock_m2297835517
WNj:_emscripten_glVertexAttrib3fv__wrapper
HGi:_CSSMeasureFunc_Invoke_m3910201085
sxj:__ZL75InputField_t3762917431_CustomAttributesCacheGenerator_m_CharacterValidationP21CustomAttributesCache
obh:_ReadOnlyCollection_1_System_Collections_ICollection_CopyTo_m511916545_gshared
lLf:_Array_InternalArray__ICollection_Remove_TisOrderBlock_t1585977831_m1449044465_gshared
RBj:_DisplayBuffer_OnCommand_m444302511
_Ud:_AssemblyName__ctor_m1753467291
gue:_Slider_set_minValue_m3431883418
idc:__ZN8Material10GetTextureEN9ShaderLab16FastPropertyNameE
FXe:_Enumerator_System_Collections_IEnumerator_get_Current_m1657817602_gshared
Kab:__ZN18StreamedBinaryReadILb0EE21TransferSTLStyleArrayI13dynamic_arrayI10Matrix4x4fLj16EEEEvRT_17TransferMetaFlags
M3b:__ZNK28MonoBehaviourPropertyBinding13GetFloatValueERKN11UnityEngine9Animation10BoundCurveE
eyi:_GC_generic_malloc
s2e:_WebHeaderCollection_get_Keys_m910440889
IGa:__Z19GetVertexFormatSize12VertexFormat
up:__ZN14SafeBinaryRead21TransferSTLStyleArrayI13dynamic_arrayIiLj4EEEEvRT_17TransferMetaFlags
dWi:_Vector4__cctor_m2519631228
UZb:__ZNK18ScreenManagerWebGL13GetShowCursorEv
vvd:_ArrayListWrapper_Clear_m2625302714
SRj:_emscripten_glIsTexture__wrapper
fff:_CipherSuiteCollection_System_Collections_IEnumerable_GetEnumerator_m3240848888
nHj:_llvm_bswap_i32
cdh:_Comparison_1_BeginInvoke_m3417636795_gshared
WDd:_Convert_ToUInt64_m1627266664
iqa:__ZN9GfxDevice25ReleaseAsyncCommandHeaderEPN21GfxDeviceAsyncCommand3ArgE
Pwh:_X509Crl_Parse_m3164013387
Zub:__ZL22Transfer_ManagedObjectI24GenerateTypeTreeTransferLb0EEvRK29SerializationCommandArgumentsR31RuntimeSerializationCommandInfo
WDb:__ZN13MonoBehaviour23VirtualRedirectTransferER17RemapPPtrTransfer
vGa:__ZN21UniformBufferTFMethod20IsBoneCountSupportedEi
eGi:_Color_get_black_m719512684
vcd:_HorizontalLayoutGroup_CalculateLayoutInputHorizontal_m750541069
Nri:__ZN6il2cpp6icalls8mscorlib6System11Environment11get_NewLineEv
utf:_Enum_System_IConvertible_ToDecimal_m3435237785
s5d:_ResourceReader_CreateResourceInfo_m1818330740
ygf:_ClientSessionInfo_Dispose_m3253728296
y$a:__ZN6Shader27MarkShaderStateNotSupportedEPKS_
iNi:_Object_Internal_CloneSingle_m1021157572
YFa:__ZN25TransformFeedbackSkinning8SkinMeshERK18VertexStreamSourceP9GfxBufferP17GPUSkinPoseBufferS4_ii17ShaderChannelMaskb
rki:__ZN15dense_hashtableINSt3__24pairIK10KeyWrapperIP14Il2CppIUnknownEjEES5_N6il2cpp5utils11PointerHashIS3_EEN14dense_hash_mapIS5_jSB_NS5_14EqualsComparerINS0_8equal_toIS4_EEEENS0_9allocatorIS7_EEE9SelectKeyESG_SI_E12resize_deltaEjj
c5d:_ResolveEventArgs__ctor_m1455935166
Z_f:_Type_Equals_m1673304139
VOd:_SynchronizedReader_Read_m1388613247
qxb:__Z22TransferField_NonArrayI19StreamedBinaryWriteILb0EE27Converter_SimpleNativeClassI8GUIStyleEEvRK23StaticTransferFieldInfoR31RuntimeSerializationCommandInfoRT0_
_qe:_Scrollbar_OnPointerDown_m3213715319
Owc:__ZN8JSONRead8TransferIN4math12int3_storageEEEvRT_PKc17TransferMetaFlagsb
ALb:__ZN27IntermediateRendererManager29ClearAllIntermediateRenderersEv
n3c:_StandaloneInputModule__ctor_m2419721820
FRe:_Comparer_1_System_Collections_IComparer_Compare_m2018996185_gshared
Qp:__Z17CalculateGlobalSM23TransformAccessReadOnlyRKN4math7_float4E
xR:__ZN23CloudWebServicesManager23VirtualRedirectTransferER18StreamedBinaryReadILb0EE
wxd:_CollectionBase_System_Collections_IList_Contains_m2994901969
Vl:_emscripten_glLoadIdentity
o_b:__ZNSt3__26vectorINS_4pairIN4core12basic_stringIcNS2_20StringStorageDefaultIcEEEEPK17MessageIdentifierEENS_9allocatorISA_EEE26__swap_out_circular_bufferERNS_14__split_bufferISA_RSC_EEPSA_
yCd:_Convert_ToInt16_m2896657713
t$h:_NativeMethodAttribute_set_HasExplicitThis_m2961870915
zNi:_Vector3_get_zero_m1409827619
vVb:__Z29CullShadowCastersWithoutUmbraR9IndexListRK17CullingParametersPK4AABBjj
joa:__ZN6Shader16GetDefaultOrNullEv
qp:__ZN4AABB8TransferI14SafeBinaryReadEEvRT_
_Jf:_Array_InternalArray__ICollection_Contains_TisX509ChainStatus_t133602714_m795171973_gshared
cji:__ZN6il2cpp2vm8Liveness8FromRootEP12Il2CppObjectPv
Jbb:__ZN12MeshRenderer23VirtualRedirectTransferER19StreamedBinaryWriteILb0EE
c5a:__ZN18StreamedBinaryReadILb0EE21TransferSTLStyleArrayI13dynamic_arrayI12LightmapDataLj4EEEEvRT_17TransferMetaFlags
QNa:__ZNK17ArchiveFileSystem9EnumerateEPKcP19dynamic_block_arrayI13FileEntryInfoLj32EEbPPv19FileEnumerationFlag
k0b:__Z11MD5ToStringPh
l2h:__ZN23InterfaceActionInvoker4IixxbE6InvokeEjP11Il2CppClassP12Il2CppObjectixxb
pic:__Z38Input_Get_Custom_PropCompositionStringv
ANi:_Vector3_Dot_m606404487
pve:_Text_get_alignment_m1496827807
aDe:_ContentInfo_get_ASN1_m1776225219
HS:__ZN9JSONWrite8TransferIN4core12basic_stringIcNS1_20StringStorageDefaultIcEEEEEEvRT_PKc17TransferMetaFlags
rDd:_Convert_ToSingle_m2533452644
$Fj:__ZNSt3__212basic_stringIcNS_11char_traitsIcEENS_9allocatorIcEEE6resizeEjc
Qdb:__ZN14PlayerSettings16CheckConsistencyEv
nO:__ZN11AudioModule30GetOrCreateDSPFromCustomFilterEP17AudioCustomFilter
MTa:__ZN19AtomicPageAllocatorD2Ev
s0c:_EventTrigger_OnPointerEnter_m986348926
Eji:__ZN6il2cpp6icalls8mscorlib6System13GlobalizationL20culture_lcid_locatorEPKvS5_
kCf:_X509Certificate__ctor_m1413707489
a2a:__ZNK12CubemapArray16ExtractImageImplEP14ImageReferenceNS0_8BlitModeEbi
Vic:__Z63Register_UnityEngine_MonoBehaviour_StartCoroutine_Auto_Internalv
iLj:_glTexStorage3D__wrapper
aeb:__ZN10VRSettings8TransferI14SafeBinaryReadEEvRT_
x$f:_Type_IsMarshalByRefImpl_m914778231
nyd:_Hashtable__ctor_m2302711321
ja:invoke_viifiiii
DFe:_InternalEnumerator_1_get_Current_m2100201398_gshared
nCj:_DelegatePInvokeWrapper_OnCommandSentHandler_t613111342
tZc:__ZN20UnityWebRequestProtoI24UnityWebRequestTransport16AtomicRefCounter14RedirectHelper14ResponseHelper15DownloadHandler13UploadHandler12HeaderHelper14AsyncOperationE8FinalizeEv
gTi:_Texture2D_get_whiteTexture_m2176011403
K3:__ZN22PerThreadPageAllocator14AcquireNewPageEj
JK:__ZN24AudioScriptBufferManager15DidReloadDomainEv
tdh:_Func_2_Invoke_m3516477887_gshared
Gmj:__ZL65SelectionBaseAttribute_t3493465804_CustomAttributesCacheGeneratorP21CustomAttributesCache
JHf:_String_ToString_m3872792296
dub:__Z18Transfer_BlittableI24GenerateTypeTreeTransferLb1E9BoundsIntEvRK29SerializationCommandArgumentsR31RuntimeSerializationCommandInfo
RKd:_FileStream_GetSecureFileName_m449783930
CRb:__ZN6Camera13ClearNoSkyboxEb
MPd:_UnexceptionalStreamWriter_Flush_m82278468
pLe:_InternalEnumerator_1_get_Current_m3911557813_gshared
VXh:__ZNK15dense_hashtableI10KeyWrapperIPK17Il2CppGenericInstES4_N6il2cpp8metadata21Il2CppGenericInstHashEN14dense_hash_setIS4_S7_NS4_14EqualsComparerINS6_24Il2CppGenericInstCompareEEENSt3__29allocatorIS4_EEE8IdentityESB_SE_E12test_deletedEj
dSa:__ZN19StreamedBinaryWriteILb0EE21TransferSTLStyleArrayI13dynamic_arrayI17SortingLayerEntryLj4EEEEvRT_17TransferMetaFlags
b$c:_BaseInput_get_touchCount_m1263753282
kbf:_ASN1Convert_FromOid_m3844102704
ree:_RemotingSurrogate_SetObjectData_m2713731796
PSf:_DecoderReplacementFallbackBuffer_Reset_m3943028589
vEa:__ZN18GfxFramebufferGLES10InvalidateEv
vdg:_Enumerator_System_Collections_IEnumerator_get_Current_m282279808_AdjustorThunk
Wle:_LayoutRebuilder_MarkLayoutRootForRebuild_m1241498911
ZWf:_CompressedStack_CreateCopy_m2591279216
Pzf:_RSAPKCS1KeyExchangeFormatter_CreateKeyExchange_m1611814432
u9:__ZN10MemoryPoolD2Ev
coc:__ZNSt3__26__treeINS_12__value_typeIN4core12basic_stringIcNS2_20StringStorageDefaultIcEEEEN5IMGUI12NamedControlEEENS_19__map_value_compareIS6_S9_NS_4lessIS6_EELb1EEENS_9allocatorIS9_EEE7destroyEPNS_11__tree_nodeIS9_PvEE
V2e:_AsnEncodedData_KeyUsageExtension_m1792651780
gpi:__ZN6il2cpp2os5posix15PosixWaitObjectD2Ev
kNb:__ZNK25CameraStackRenderingState28GetDstTextureForImageFiltersEv
KEj:___mmap
v9b:__ZN9Scripting26RaiseArgumentNullExceptionEPKc
_mf:_DateTime_CoreParse_m428043272
tSj:b120
gX:__ZL18InternalLogConsolePKcz
EDj:_lseek
VIe:_InternalEnumerator_1_get_Current_m685192625_gshared
GPd:_UnexceptionalStreamReader_Read_m16956299
B5d:_ResourceReader_ReadValueVer1_m183253382
E$:__Z37scripting_method_get_nth_argumenttype18ScriptingMethodPtri
QM:__ZN11AudioSource16UpdatePauseStateEv
Yca:__ZL52StaticUnregisterSceneLoadedCallback_LightmapSettingsPv
vFi:_Camera_get_main_m3643453163
cCi:__ZN6il2cpp5utils25NativeDelegateMethodCache17AddNativeDelegateEPFvvEPK10MethodInfo
vne:_LayoutRebuilder_U3CRebuildU3Em__5_m1288787547
NQb:__ZN27DeviceViewProjMatricesStateD2Ev
oSi:_SendMouseEvents__cctor_m2378365934
_5g:_ReadOnlyCollection_1_System_Collections_IList_set_Item_m3582274843_gshared
lLi:_Mathf_Pow_m856735666
Gfa:__ZL39CreateRegisteredMessageIdentifiersArrayPv
Qtb:__Z18Transfer_BlittableI24GenerateTypeTreeTransferLb0E8Vector3fEvRK29SerializationCommandArgumentsR31RuntimeSerializationCommandInfo
Uwe:_SimpleCollator_FilterExtender_m72900315
AJc:__ZNK13TextRendering4Font22GetTypeVirtualInternalEv
PCe:_SymmetricTransform_CheckInput_m1829858759
Afb:__ZN19StreamedBinaryWriteILb0EE21TransferSTLStyleArrayINSt3__26vectorIN15ResourceManager10DependencyE13stl_allocatorIS5_L18MemLabelIdentifier52ELi16EEEEEEvRT_17TransferMetaFlags
Ase:_ScrollRect_EnsureLayoutHasRebuilt_m3415112783
wVd:_Binder_FindMostDerivedMatch_m239579024
mBd:_Convert_ToByte_m3824130483
FGh:_GUIUtility_EndContainerGUIFromException_m530164245
rya:__ZN6prcoreL10inner_flipILj2EEEvPhS1_j
D8a:__ZNK14Texture2DArray16ExtractImageImplEP14ImageReferenceNS0_8BlitModeEbi
cVf:_StringBuilder_Append_m2383614642
btc:__ZN9JSONWrite8TransferIbEEvRT_PKc17TransferMetaFlags
TKa:__ZN12TLSAllocatorI14StackAllocatorED0Ev
Ocb:__ZN11TimeManager16CheckConsistencyEv
iOb:__ZN21GfxDeviceAsyncCommand10ArgScratch15ThreadedCleanupEv
h9b:__Z14DoubleToStringd
rIf:_StringComparer_GetHashCode_m2080455020
jqf:_Decimal_Floor_m1786329488
pNg:_List_1_CheckCollection_m2118769249_gshared
pe:_glTexImage3D
j8c:_DefaultControls_SetDefaultColorTransitionValues_m2033775311
kKd:_Path_IsPathRooted_m3515805419
clh:_Array_InternalArray__set_Item_TisChar_t3634460470_m741842250_gshared
wth:_TlsServerSettings_set_RsaParameters_m853026166
T$a:__ZNSt3__26vectorINS_4pairI11ShaderTagIDS2_EENS_9allocatorIS3_EEE6insertENS_11__wrap_iterIPKS3_EERS8_
Gmf:_DateTime_AddMilliseconds_m3713972790_AdjustorThunk
zjd:_RC2_Create_m2052783340
eyf:_Guid__ctor_m3421080095_AdjustorThunk
eCd:_Convert_ToDouble_m217737046
Xsi:__ZN6il2cpp8metadataL22FormatGenericArgumentsEPK17Il2CppGenericInst
kec:__ZL34GetComponentsImplementationRecurseILb1ELi0ELi1EEbR10GameObjectbRK17CompareParametersRK39GetComponentsImplementation_ReturnValue
Osf:_Double_Equals_m1674752021
Tje:_InputField_OnDisable_m1824300767
_ve:_CodePointIndexer_ToIndex_m1008730487
fji:__ZN6il2cpp2vm14PlatformInvoke30MarshalCSharpStringToCppStringEP12Il2CppString
hAd:_SortedList_Clone_m928094797
yeb:__ZN10VRSettings8TransferI18StreamedBinaryReadILb0EEEEvRT_
ow:__ZN22AnimationMixerPlayable12MixerProcessEP35AnimationPlayableEvaluationConstantP32AnimationPlayableEvaluationInputP33AnimationPlayableEvaluationOutputM17AnimationPlayableFvS1_S3_S5_EPFvS1_S3_S5_ESA_PFvS5_S1_S3_S5_PN7mecanim16ValueArrayWeightEfEPFvS1_S3_S5_SD_fE
wSe:_Enumerator_get_CurrentKey_m2230405065_gshared
_hf:_TlsClientFinished_ProcessAsSsl3_m3094597606
Rvc:__ZN8JSONRead21TransferSTLStyleArrayI13dynamic_arrayIdLj8EEEEvRT_17TransferMetaFlags
Dnh:_Array_Sort_TisRaycastResult_t3360306849_m1719315316_gshared
G0h:__ZN6il2cpp2vm10ThreadPool5QueueEP14Il2CppDelegatePPvS3_P12Il2CppObject
wxb:__Z19TransferField_ArrayI19StreamedBinaryWriteILb0EE27Converter_SimpleNativeClassI8GradientEEvRK23StaticTransferFieldInfoR31RuntimeSerializationCommandInfoRT0_
p1e:_IPv6Address__ctor_m2700673633
$uc:__Z18Transfer_BlittableI8JSONReadLb0E12PropertyNameEvRK29SerializationCommandArgumentsR31RuntimeSerializationCommandInfo
$Oj:_glGetUniformBlockIndex__wrapper
Tod:_Array_CreateInstance_m2696293787
pVf:_UnicodeEncoding__ctor_m1074918879
A7a:__ZN7SubMesh8TransferI18StreamedBinaryReadILb0EEEEvRT_
x$d:_OpCode_Equals_m1376200488_AdjustorThunk
Y6c:_ColorBlock_op_Inequality_m2718216889
cf:_emscripten_glIsEnabled
yzb:__ZN18StreamedBinaryReadILb1EE21TransferSTLStyleArrayI13dynamic_arrayIdLj8EEEEvRT_17TransferMetaFlags
lhc:__Z45Register_UnityEngine_GameObject_get_transformv
IXd:_DerivedType_GetConstructors_m483065502
WZ:__Z29scripting_class_instance_size17ScriptingClassPtr
wwc:__Z29Transfer_Blittable_ArrayFieldI8JSONRead5RectTIiEEvRT_R9ArrayInfoRK23StaticTransferFieldInfo
tKg:__Z68RuntimeInvoker_Boolean_t97287965_SByte_t1669577662_SByte_t1669577662PFvvEPK10MethodInfoPvPS4_
NAg:__Z165RuntimeInvoker_Void_t1185182177_RuntimeObject_Int32_t2950945753_Int32_t2950945753_RuntimeObject_Int32_t2950945753_Single_t1397266774_Single_t1397266774_RuntimeObjectPFvvEPK10MethodInfoPvPS4_
uc:invoke_iiiiiiiii
cV:__ZN11UnityEngine15CloudWebService19SessionEventManager26ProcessEventQueueJobStaticEPv
hLi:_Mathf_Min_m1073399594
WSi:_StackTraceUtility_ExtractStringFromExceptionInternal_m2686726792
sDc:_otv_Coverage_get_last
l5e:_X509Chain_IsChainComplete_m1577524584
Vrc:__Z18Transfer_BlittableI9JSONWriteLb1E9BoundsIntEvRK29SerializationCommandArgumentsR31RuntimeSerializationCommandInfo
Dwe:_MSCompatUnicodeTable_FillCJKCore_m2347268515
WBh:_Group_GetWidth_m3299755715
_qf:_Decimal_op_Implicit_m1920400487
wYa:__ZN10builtintex15GetWhiteTextureEv
hee:_MonoMethodMessage_get_TypeName_m3758247133
_yd:_Enumerator_get_Entry_m2184304359
Qmf:_DateTime_FromBinary_m2489276715
fDi:__ZN6il2cpp6icalls8mscorlib6System10Reflection4Emit11DerivedType21create_unmanaged_typeEP20Il2CppReflectionType
Ucd:_Image_set_fillCenter_m3776786491
ofa:__Z29GetOcclusionPortalManagerListv
_jc:__Z39Register_UnityEngine_Sprite_get_texturev
HSh:__ZL10rescale128PyS_Piiiii
SG:__ZN9AudioClip7WWWSeekEPvjS0_
w_i:__ZL63FixedBufferAttribute_t3759792648_CustomAttributesCacheGeneratorP21CustomAttributesCache
L8:__ZL32StaticInitializeIUnityInterfacesPv
NNb:__Z13CameraProjectRK8Vector3fRK10Matrix4x4fS4_RK5RectTIiERS_b
tgb:__ZN30RuntimeInitializeOnLoadManager15ClassMethodInfo8TransferI19StreamedBinaryWriteILb0EEEEvRT_
eca:__Z22CreateMutexLockedStackv
YIb:__ZNSt3__27__sort5IRNS_4lessIN22BuiltinResourceManager8ResourceEEEPS3_EEjT0_S7_S7_S7_S7_T_
OFd:_NumberFormatter_FormatNumber_m1763569482
wwj:__ZL57FontData_t746620069_CustomAttributesCacheGenerator_m_FontP21CustomAttributesCache
wma:__ZN9ShaderLab11ShaderStateD2Ev
dHc:_Ins_DELTAP
gFb:__Z23TransferScriptingObjectI24GenerateTypeTreeTransferEvRT_18ScriptingObjectPtr17ScriptingClassPtrPK15MonoScriptCache
bzh:_PatternLinkStack_GetOffset_m3697714525
cnc:__ZN12GUIClipState5ApplyER10InputEvent
cxb:__ZL17Transfer_GUIStyleI19StreamedBinaryWriteILb0EELb0EEvRK29SerializationCommandArgumentsR31RuntimeSerializationCommandInfo
GRb:__ZN10TextureRef4InitEP7Textureb
iLd:_MonoIO_GetFileType_m101289143
Txa:__Z19ScheduleJobInternalR8JobFencePFvPvES1_11JobPriority
X$e:_KeysCollection_get_Count_m3943311735
PHe:_InternalEnumerator_1_get_Current_m2832154098_gshared
r3f:_Version__ctor_m1550720073
i$h:__ZNSt3__211__tree_nextIPNS_16__tree_node_baseIPvEEEET_S5_
lmi:__ZN15dense_hashtableI10KeyWrapperIP18Il2CppGenericClassES3_N6il2cpp8metadata22Il2CppGenericClassHashEN14dense_hash_setIS3_S6_NS3_14EqualsComparerINS5_25Il2CppGenericClassCompareEEENSt3__29allocatorIS3_EEE8IdentityESA_SD_E14squash_deletedEv
Yoi:__ZN6il2cpp2vm11MethodStack17GetStackFramesRawEv
SAa:__ZN6prcoreL17RemapGenericFloatI17TexFormatRGBAHalf17TexFormatRGBFloatEEvPKNS_9InnerInfoE
Lmg:__Z52RuntimeInvoker_Double_t594665363_Decimal_t2948259380PFvvEPK10MethodInfoPvPS4_
vMe:_InternalEnumerator_1_get_Current_m784835552_gshared
wmc:__Z35Sprite_Get_Custom_PropPixelsPerUnitP12Il2CppObject
YXh:__ZNSt3__26__sortIRN6il2cpp5utils11collections13ArrayValueMapIPK10Il2CppType17Il2CppInteropData26InteropDataToTypeConverterNS1_8metadata14Il2CppTypeLessENSA_26Il2CppTypeEqualityComparerEE12SortComparerEPS8_EEvT0_SH_T_
kib:__ZN11PreloadDataD2Ev
LYc:__ZN15DownloadHandler14ProcessHeadersERK9HeaderMap
SJc:__ZNSt3__26vectorINS_4pairIifEE13stl_allocatorIS2_L18MemLabelIdentifier35ELi16EEE6assignINS_11__wrap_iterIPS2_EEEENS_9enable_ifIXaasr21__is_forward_iteratorIT_EE5valuesr16is_constructibleIS2_NS_15iterator_traitsISC_E9referenceEEE5valueEvE4typeESC_SC_
Zb:invoke_iifi
std:_Char_System_IConvertible_ToInt16_m975497224_AdjustorThunk
urf:_Delegate_CreateDelegate_m995503480
oQj:_emscripten_glGetObjectParameterivARB__wrapper
E2h:__ZNK6il2cpp5utils10StringViewIcE5RFindEc
UXd:_DerivedType_get_Module_m3032466746
ZWa:__ZN15SharedLightData15UpdateTransformERK9Transform
wxj:__ZL71InputField_t3762917431_CustomAttributesCacheGenerator_m_OnValidateInputP21CustomAttributesCache
$fa:__ZN18AssetBundleManagerD2Ev
Yhc:__Z44Register_UnityEngine_RectOffset_get_verticalv
HBi:__ZN6il2cpp2vm9LastError31InitializeLastErrorThreadStaticEv
moe:_MaskableGraphic_set_maskable_m243551751
wOd:_StreamWriter_Dispose_m2818839127
Yda:__ZZN15DirectorManager15InitializeClassEvEN43PostLateUpdateDirectorLateUpdateRegistrator7ForwardEv
fh:_JS_SystemInfo_GetCurrentCanvasHeight
MEe:_ArrayReadOnlyList_1_IndexOf_m1911574180_gshared
Xne:_Mask_OnEnable_m2186824439
xie:_InputField_SetCaretVisible_m2216480850
A6e:_X509EnhancedKeyUsageExtension_CopyFrom_m3750050754
J$a:__ZNK8Material22GetTypeVirtualInternalEv
lpc:__Z34GUIStyle_Get_Custom_PropFixedWidthP12Il2CppObject
$7g:_ReadOnlyCollection_1_System_Collections_IList_Clear_m1076810235_gshared
mgg:_Enumerator_System_Collections_IEnumerator_get_Current_m3405349194_AdjustorThunk
Cri:__ZN6il2cpp2gc16GarbageCollector11GetWeakLinkEPPv
Jpi:__GLOBAL__sub_I_Console_cpp
IAa:__ZN6prcoreL17RemapGenericFloatI14TexFormatRHalf17TexFormatRGBAHalfEEvPKNS_9InnerInfoE
F9e:_BigInteger_GetBytes_m1259701831
U2h:__ZN6il2cpp2vm7Runtime11InvokeArrayEPK10MethodInfoPvP11Il2CppArrayPP15Il2CppException
aIf:_String_memcpy_m2826223007
Tjd:_RijndaelManaged_CreateDecryptor_m1421727258
OF:__ZN9AudioClip23VirtualRedirectTransferER14SafeBinaryRead
dgg:_Enumerator_MoveNext_m2407049913_gshared
ZUf:_StringBuilder_Replace_m1682610486
MDa:__ZN4gles20EnsureTextureCreatedEP7ApiGLESP17RenderSurfaceGLES
xOb:__ZN15ReplacementPass13PrepareSubsetEjRK10RenderNodeifRK17ShaderReplaceData
tL:__Z32AudioMeasurement_GetTimeConstantff
esi:__ZN6il2cpp8metadata11FieldLayout12LayoutFieldsEjjjRKNSt3__26vectorIPK10Il2CppTypeNS2_9allocatorIS6_EEEERNS1_15FieldLayoutDataE
hmb:__ZNK20LocalFileSystemPosix9EnumerateEPKcP19dynamic_block_arrayI13FileEntryInfoLj32EEbPPv19FileEnumerationFlag
G1d:_MethodInfo_MakeGenericMethod_m1996785325
p$c:_BaseInputModule_DetermineMoveDirection_m770437496
Jae:_Context_get_HasGlobalDynamicSinks_m3672814609
Qxh:_Match__ctor_m2464595873
ZVb:__ZL27PrepareSceneNodesJobCombineP25ScheduleSceneNodesJobData
swh:_X509CertificateEnumerator_Reset_m1825523691
fqb:__Z22TransferField_NonArrayI14SafeBinaryRead27Converter_SimpleNativeClassI8GUIStyleEEvRK23StaticTransferFieldInfoR31RuntimeSerializationCommandInfoRT0_
L9h:__ZN14dense_hash_mapI10KeyWrapperIPK10Il2CppTypeEjN6il2cpp8metadata14Il2CppTypeHashENS4_14EqualsComparerINS6_26Il2CppTypeEqualityComparerEEENSt3__29allocatorINSB_4pairIKS4_jEEEEEC2EjRKS7_RKSA_
Aoa:__ZN13GfxDeviceGLESD2Ev
Kha:__ZNSt3__26vectorIN9ShaderLab26SerializedShaderDependencyENS_9allocatorIS2_EEE6resizeEj
Gph:_Activator_CreateInstance_TisRuntimeObject_m729575857_gshared
Fda:__ZN18AsyncUploadManager13StaticDestroyEPv
dha:__ZN6Shader7SetNameEPKc
hrd:_Convert_ToDouble_m954895424
uZb:__ZN19CustomRenderTexture22HandleBoundaryWrappingERKNS_14UpdateZoneInfoEj
lK:__ZL50UnityAudioEffect_InternalSetFloatParameterCallbackP14FMOD_DSP_STATEif
BPh:_TextGenerationSettings_CompareColors_m3051734236
e$h:__ZN6il2cpp2vm13MetadataCache32GenerateCustomAttributeTypeCacheEi
JFf:_Single_Equals_m438106747
JUf:_StringBuilder__ctor_m2989139009
h6d:_RuntimeResourceSet__ctor_m2765575100
Qhf:_TlsClientCertificate_ProcessAsSsl3_m3265529850
SFd:_NumberFormatter_Multiply10_m1733956269
nr:__ZNK11UnityEngine9Animation30GenericBindingValueArrayUniqueclERKNS0_14GenericBindingES4_
CIf:_ASCIIEncoding_GetChars_m2543669481
Yye:_BigInteger_IsProbablePrime_m567194283
w6f:_Dictionary_2_System_Collections_IDictionary_Remove_m3518952519_gshared
J_d:_MethodBuilder_GetCustomAttributes_m731278908
nHc:_Direct_Move_Y
lHc:_Direct_Move_X
Dtg:__Z51RuntimeInvoker_Single_t1397266774_Double_t594665363PFvvEPK10MethodInfoPvPS4_
Ci:_glClearDepthf
l5b:__ZN19SkinnedMeshRenderer7GetMeshEv
B6:__ZN19RuntimeSceneManager14GetActiveSceneEv
oHj:_memcpy
ZIb:__ZNSt3__218__insertion_sort_3IRNS_4lessIN22BuiltinResourceManager8ResourceEEEPS3_EEvT0_S7_T_
Nhe:_MultiArrayFixupRecord_FixupImpl_m1721674130
a2h:__ZN6il2cpp6icalls8mscorlib6SystemL8IsStaticEPK9EventInfo
dDc:_otv_LookupList_validate
Hhc:__Z29RectOffset_Set_Custom_PropTopP12Il2CppObjecti
odg:_GenericEqualityComparer_1_Equals_m687841776_gshared
$kc:__Z57Register_UnityEngine_Transform_INTERNAL_get_localPositionv
Zme:_U3CDelayedSetDirtyU3Ec__Iterator0_Dispose_m2469848327
lUb:__ZNSt3__27__sort4IR15ReflProbeSorterPP15ReflectionProbeEEjT0_S6_S6_S6_T_
oUa:__ZN16GraphicsSettings10SmartResetEv
Bac:__ZN19StreamedBinaryWriteILb0EE4InitE24TransferInstructionFlags20BuildTargetSelection
dMd:_FileStream_Flush_m948103572
rTh:__ZN15dense_hashtableINSt3__24pairIK10KeyWrapperIPK22Il2CppGenericParameterEP11Il2CppClassEES6_N6il2cpp5utils11PointerHashIS4_EEN14dense_hash_mapIS6_S9_SE_NS6_14EqualsComparerINS0_8equal_toIS5_EEEENS0_9allocatorISA_EEE9SelectKeyESJ_SL_E9copy_fromERKSO_j
fAe:_ASN1Convert_ToInt32_m254930636
Jeb:__ZN26PlayerSettingsSplashScreen16CheckConsistencyEv
GXa:__ZN20SphericalHarmonicsL28TransferI19StreamedBinaryWriteILb0EEEEvRT_
A2f:_UInt64_ToString_m1529093114
b4b:__ZNK28RectTransformPropertyBinding9BindValueER6ObjectRKN11UnityEngine9Animation14GenericBindingERNS3_10BoundCurveE
wd:_emscripten_glLoadMatrixf
aLi:_Material_SetInt_m1783799378
qod:_Array_GetLength_m2178203778
aKi:_Input_GetMouseButtonDown_m2081676745
EEd:_Int16_System_IConvertible_ToDouble_m1661805412_AdjustorThunk
hbb:__ZN4Mesh14UploadMeshDataEb
w5b:__ZN14RenderSettings12CleanupClassEv
Xjc:__Z43DataUtility_CUSTOM_INTERNAL_CALL_GetPaddingP12Il2CppObjectR8Vector4f
XN:__ZN21AudioScriptingClasses26InvokeOnAudioManagerUpdateEP21ScriptingExceptionPtr
Vxa:__ZN18AsyncUploadManager15DoDeCruncherJobEP26FileAssetUploadInstruction
Dra:__ZN9GfxDevice15ImmediateNormalEfff
vUi:_Enumerator__ctor_m1351041375
fvb:__ZN13GUIStyleState8TransferI24GenerateTypeTreeTransferEEvRT_
I0:__ZN20dynamic_block_vectorI14FileIdentifierE22push_back_no_constructEv
NOj:_emscripten_glGetActiveAttrib__wrapper
V8a:__ZN9Texture3D23VirtualRedirectTransferER14SafeBinaryRead
amh:_Array_InternalArray__set_Item_TisVector2_t2156229523_m2671087464_gshared
Nqh:_Array_InternalArray__get_Item_TisVector4_t3319028937_m1117939728_gshared
mja:__ZNSt3__26vectorIN9ShaderLab20SerializedSubProgram16TextureParameterENS_9allocatorIS3_EEE8__appendEj
kwh:_X509CertificateCollection_Contains_m743657353
SPf:_Array_InternalArray__ICollection_Add_TisSlot_t384495010_m3656484468_gshared
X3a:__ZN9Texture2D13UploadTextureEi
XBc:_cff_get_cid_from_glyph_index
vK:__ZN4FMOD6System19setSoftwareChannelsEi
Xsa:__ZN9GfxDevice19SetSinglePassStereoE16SinglePassStereo
NNj:_emscripten_glGenBuffers__wrapper
mHj:_bitshift64Lshr
zCi:__ZN6il2cpp8metadata19Il2CppSignatureHash4HashERKNS_5utils13dynamic_arrayIPK10Il2CppTypeLj4EEE
syd:_Hashtable_System_Collections_IEnumerable_GetEnumerator_m2751657639
Yce:_HeaderHandler_Invoke_m3513051789
Lzj:__ZL77CanvasScaler_t2767979955_CustomAttributesCacheGenerator_m_ReferenceResolutionP21CustomAttributesCache
Kng:__Z144RuntimeInvoker_RuntimeObject_RuntimeObject_Int32_t2950945753_RuntimeObject_RuntimeObject_RuntimeObject_RuntimeObject_RuntimeObject_RuntimeObjectPFvvEPK10MethodInfoPvPS4_
Q_f:_Type_get_IsPointer_m4067542339
hve:_Text_get_supportRichText_m1837499160
Iic:__Z60Register_UnityEngine_Input_INTERNAL_set_compositionCursorPosv
yNi:_Vector3_Magnitude_m3447562852
sEi:_Component__ctor_m1928064382
OIj:dynCall_viiiii
TIj:dynCall_viiiif
_zd:_SortedList_PutImpl_m3408406199
mJc:_Cubic_To
igf:_Context_get_Protocol_m1078422015
tfc:__Z37Register_UnityEngine_Application_Quitv
kgc:__Z44Register_UnityEngine_Camera_get_farClipPlanev
Lq:__Z25InverseTransformDirection23TransformAccessReadOnlyRKN4math7_float3Eb
Pga:__ZN13RuntimeStaticINSt3__28multimapIj25DeferredSkinningOperationNS0_4lessIjEENS0_9allocatorINS0_4pairIKjS2_EEEEEELb0EE13StaticDestroyEPv
mIh:_ToggleGroup_SetAllTogglesOff_m4184050071
Zni:__ZN6il2cpp2gc16GarbageCollector14GetOrCreateCCWEP12Il2CppObjectRK10Il2CppGuid
Oli:__ZN6il2cpp2vm5Image21FromTypeNameParseInfoEPK11Il2CppImageRKNS0_17TypeNameParseInfoEb
fRd:_MonoCustomAttrs_IsDefined_m2996012389
$ta:__ZN17BufferManagerGLES13AcquireBufferEjN14DataBufferGLES11BufferUsageEb
Wof:_Decimal__ctor_m3650533794
toe:_MaskableGraphic_UpdateClipParent_m2605828397
eCf:_TripleDESTransform_GetStrongKey_m292426577
vWd:_AssemblyBuilder_get_Location_m384539722
sXc:__ZN16UnityAdsSettingsD0Ev
wwa:__ZNK7ApiGLES10DebugLabelEN2gl10ObjectTypeEjPKc
GKd:_DirectoryNotFoundException__ctor_m4004339866
YGj:__ZNK10__cxxabiv121__vmi_class_type_info16search_below_dstEPNS_19__dynamic_cast_infoEPKvib
LPh:_TextGenerator__ctor_m1349784994
Sva:__ZN19ConstantBuffersGLES13SetCBConstantEiiPKvi
dpe:_Navigation_Equals_m317484440
N$g:_Collection_1_System_Collections_IList_set_Item_m876512695_gshared
Yjc:__Z38DataUtility_CUSTOM_Internal_GetMinSizeP12Il2CppObjectP13Vector2fIcall
L9b:__ZN8PlayableC2E17ScriptingClassPtr18DirectorPlayerType
DVi:_Vector3_Distance_m886789632
ahe:_ObjectReader_ReadObjectGraph_m1689734232
K_g:_Collection_1_IsSynchronized_m1618360515_gshared
JLi:_Matrix4x4_MultiplyPoint_m1575665487
Wci:_il2cpp_class_has_attribute
VAe:_DSAManaged_get_KeySize_m2738463749
pza:__ZN6prcoreL12RemapGenericI15TexFormatRGB88817TexFormatARGB8888EEvPKNS_9InnerInfoE
$Vi:_Vector4_op_Subtraction_m1632208160
Vu:__ZN7mecanim9animation30ValueFromSkeletonPoseRecursiveERKNS_8skeleton8SkeletonERKNS1_13SkeletonPoseTIN4math4trsXEEEPKNS0_14SkeletonTQSMapEPKiRNS_10ValueArrayEii
g$:__Z27FindOrCreateMonoScriptCache17ScriptingClassPtr22InitScriptingCacheTypeP6Objecti
WAb:__Z18Transfer_BlittableI18StreamedBinaryReadILb0EELb1E8Vector3fEvRK29SerializationCommandArgumentsR31RuntimeSerializationCommandInfo
wQc:__ZN2UI14CanvasRenderer13SyncVertexPtrER8JobFenceNS0_8SyncFlagE
Fwf:_CultureInfo_GetFormat_m732021304
y$:__Z35scripting_method_get_argument_count18ScriptingMethodPtr
QLa:__ZN18AssetBundleManager18SortPreloadObjectsER13dynamic_arrayIiLj4EEb
Qsg:__Z46RuntimeInvoker_RuntimeObject_Double_t594665363PFvvEPK10MethodInfoPvPS4_
_H:__ZN12AudioManager29ShutdownReinitializeAndReloadENS_14FMODOutputTypeE
cTf:_EncoderReplacementFallback__ctor_m2980727890
gvd:_ArrayList_Synchronized_m1327684267
uhc:__Z20Gradient_CUSTOM_InitP12Il2CppObject
x1d:_MethodBase_get_IsPublic_m2180846589
Npc:__Z48Register_UnityEngine_GUIUtility_Internal_ExitGUIv
Y8f:_DefaultComparer_Equals_m2574572657_gshared
oLd:_FileStream_get_CanWrite_m1199612770
bWb:__ZL21CullDynamicObjectsJobP14CullingJobDataj
bnc:__ZNSt3__26vectorI7GUIClipNS_9allocatorIS1_EEE21__push_back_slow_pathIKS1_EEvRT_
E0d:_TypeBuilder_get_IsGenericParameter_m1751799710
f_b:__ZN14ManagerContext17InitializeClassesEv
oLa:__ZN19StreamedBinaryWriteILb0EE21TransferSTLStyleArrayINSt3__26vectorI14ConstantStringNS2_9allocatorIS4_EEEEEEvRT_17TransferMetaFlags
mzb:__ZN18StreamedBinaryReadILb1EE21TransferSTLStyleArrayI31ArrayOfManagedObjectsTransfererEEvRT_17TransferMetaFlags
G1g:_Collection_1_System_Collections_ICollection_CopyTo_m787979241_gshared
Fah:_ReadOnlyCollection_1_System_Collections_Generic_ICollectionU3CTU3E_Clear_m1551418550_gshared
Dz:__ZN8Animator24SetupAnimationClipsCacheEv
GIj:dynCall_viiiiiiiiii
OIc:_t1_hints_open
vUc:__ZN11UnityEngine15PlatformWrapper24GetVRTrackedAreaGeometryER13dynamic_arrayI8Vector3fLj4EE
iSd:_MonoType_get_AssemblyQualifiedName_m2662925380
sgc:__Z60Register_UnityEngine_Camera_INTERNAL_CALL_WorldToScreenPointv
wzf:_RSACryptoServiceProvider__ctor_m2288290917
x9e:_BigInteger_GenerateRandom_m3872771375
BLg:__Z75RuntimeInvoker_RuntimeObject_Single_t1397266774_RuntimeObject_RuntimeObjectPFvvEPK10MethodInfoPvPS4_
pJ:__ZN4FMOD7Channel11getUserDataEPPv
bEc:_UNITY_tt_face_load_gasp
tBe:_KeyPairPersistence_ProtectMachine_m1313131097
uve:_Text_set_fontSize_m3617617524
fMc:_ft_ansi_stream_close
hm:_JS_Sound_SetPitch
WXf:_Thread_FreeLocalSlotValues_m1195763560
FEf:_String_IndexOf_m1977622757
Kdi:_il2cpp_runtime_invoke_convert_args
e4c:_TouchInputModule_Process_m3715678669
Rog:__Z114RuntimeInvoker_Int32_t2950945753_RuntimeObject_Int32_t2950945753_Int32_t2950945753_RuntimeObject_Int32_t2950945753PFvvEPK10MethodInfoPvPS4_
Aud:_ArrayList__cctor_m3052737821
uii:__ZN6il2cpp6icalls8mscorlib6System2IO6MonoIO11GetFileStatEP12Il2CppStringPNS3_8FileStatEPi
qsa:__ZN9GfxDevice33InsertCustomMarkerCallbackAndDataEPFviPvEiS0_j
TXc:__ZN11UnityEngine15PlatformWrapper16GenerateRandomIdEv
zOb:__ZNK9ShaderLab9IntShader6GetTagE11ShaderTagIDb
Uwd:_BitArray_Set_m2486900776
qRc:__ZN2UI14CanvasRenderer11SetMaterialEP8Materiali
eGf:_String__ctor_m229724522
f2i:__ZL54AssemblyName_t270931938_CustomAttributesCacheGeneratorP21CustomAttributesCache
YZa:__ZNK13RenderTexture37IsBoundMultisampledOnSecondaryTextureEv
fwi:_GC_freehblk
jth:_X509ExtensionCollection__ctor_m551870633
q4b:__ZZL31RegisterRectTransformPropertiesR22GenericPropertyBindingEN32Wrapper_RectTransformAnchorMinx013GetFloatValueEPv
R_d:_MethodBuilder_MakeGenericMethod_m2175748754
mzh:_QuickSearch_Search_m3063517397
RTe:_Enumerator_Reset_m2443320674_gshared
ZHc:_ft_var_get_value_pointer
sec:__ZN9Scripting35DestroyObjectFromScriptingImmediateEP6Objectb
NGh:_KeyBuilder_Key_m2503211157
dqd:_AsyncCallback_Invoke_m3156993048
TWb:__ZNK6Camera48AreVRStereoViewMatricesWithinSingleCullToleranceEv
lx:__ZN7mecanim5human25HumanPoseAddAdditiveLayerERNS0_9HumanPoseERKS1_fRKNS_6bitsetILj83EEE
rPj:_glGetRenderbufferParameteriv__wrapper
WCe:_SymmetricTransform_FinalDecrypt_m1677319445
lHd:_Int32_Equals_m3996243976_AdjustorThunk
Tka:__ZN24GenerateTypeTreeTransfer8TransferINSt3__26vectorIN9ShaderLab20SerializedSubProgram12UAVParameterENS1_9allocatorIS5_EEEEEEvRT_PKc17TransferMetaFlags
qc:invoke_iiiiiiiiiiiiiii
fqi:__ZN6il2cpp2os6Thread33UnregisterCurrentThreadForCleanupEv
URj:_emscripten_glIsRenderbuffer__wrapper
rDc:_otv_Coverage_get_first
hEi:_AttributeHelperEngine_GetParentTypeDisallowingMultipleInclusion_m681389990
SOc:__ZN2UI11CanvasGroup8TransferI19StreamedBinaryWriteILb0EEEEvRT_
CKd:_DirectoryInfo__ctor_m1000259829
uVa:__ZNK20IntermediateRenderer8GetLayerEv
wvf:_CultureInfo_ConstructInvariant_m3774343375
C5a:__ZN15QualitySettings8TransferI14SafeBinaryReadEEvRT_
dpd:_Array_ClearInternal_m532048538
Myf:_RIPEMD160Managed_HashCore_m2350629432
$kf:_DateTime__ctor_m12900168
Djh:_IndexedSet_1_Insert_m1432638049_gshared
DSd:_MulticastDelegate_GetInvocationList_m4256593605
Iph:_Array_FindLast_TisRuntimeObject_m1088586648_gshared
boe:_Mask_GetModifiedMaterial_m2692272647
RGi:_CullingGroup_t2096318768_marshal_pinvoke_back
Zli:__ZNSt3__26vectorIN6il2cpp2vm5Image20EmbeddedResourceDataENS_9allocatorIS4_EEE21__push_back_slow_pathIS4_EEvOT_
Z7:__GLOBAL__sub_I_runtime_utilities_0_cpp
l2b:__ZN18BackgroundJobQueue29ScheduleMainThreadJobInternalEPFvPvES0_
hJj:dynCall_viiiiiif
CGh:_GUIUtility_EndGUIFromException_m3524906492
CZ:__ZN14SerializedFile10ReadObjectEx18ObjectCreationModebPPK8TypeTreePbR6Object
sBh:_Expression_GetFixedWidth_m945658
$Sg:_List_1_RemoveAll_m818254423_gshared
ZBh:_Literal_Compile_m2228022079
aJb:__ZN14dynamic_bitset6resizeEjb
hIc:_tt_property_get
EJf:_Array_InternalArray__ICollection_Contains_TisSlot_t3975888750_m58971838_gshared
cT:__ZN11UnityEngine15CloudWebService10RestClientINS0_23WebRequestRestHeaderMapEE7SetDataEPKhj
nB:__ZN7mecanim8skeleton16SkeletonPoseCopyIN4math4trsXES3_EEvPKNS0_13SkeletonPoseTIT_EEPNS4_IT0_EE
IVh:__ZN14dense_hash_mapI10KeyWrapperIPK11Il2CppClassEPKcN6il2cpp5utils11PointerHashIS1_EENS4_14EqualsComparerINSt3__28equal_toIS3_EEEENSC_9allocatorINSC_4pairIKS4_S6_EEEEE15set_deleted_keyERSI_
Voa:__ZN9GfxDevice34SetStencilRefWhenStencilWasSkippedEi
q4e:_X509Certificate2_Reset_m3988214799
GVc:__ZN11UnityEngine7Connect13ConnectConfig20RestoreTimeoutConfigERK13dynamic_arrayIiLj4EEjRS3_
pc:invoke_fi
sAi:__ZN6il2cpp6icalls8mscorlib6System10Reflection4Emit11TypeBuilder20create_runtime_classEP27Il2CppReflectionTypeBuilderS7_
fUi:_Transform_set_localScale_m3053443106
QYa:__ZN8Playable13SetInputCountEi
fX:__ZL21InternalAssertConsolePKcz
nc:invoke_ff
nCe:_RSAManaged_add_KeyGenerated_m3688329863
uUe:_Enumerator_get_CurrentKey_m3735262888_gshared
oid:_HashAlgorithm_TransformFinalBlock_m3005451348
xyf:_Guid_NewGuid_m923091018
yd:_emscripten_glVertexAttrib3f
S6h:__ZN30dense_hashtable_const_iteratorINSt3__24pairIK10KeyWrapperINS1_IPK11Il2CppImageP11Il2CppClassEEEjEES9_17ReflectionMapHashIS8_EN14dense_hash_mapIS9_jSD_NS9_14EqualsComparerINS0_8equal_toIS8_EEEENS0_9allocatorISB_EEE9SelectKeyESI_SK_EppEv
Tui:__ZThn8_N6il2cpp2vm13CachedCCWBaseINS0_13ManagedObjectEE7DestroyEv
Zzf:_RSAPKCS1SignatureDeformatter_SetKey_m614724234
sVf:_UnicodeEncoding_GetByteCount_m3498858619
dLf:_Array_InternalArray__ICollection_Remove_TisX509ChainStatus_t133602714_m3635989134_gshared
Jih:_UnityEvent_1_FindMethod_Impl_m555893253_gshared
AKc:__ZN20TextRenderingPrivate8TextMesh11ApplyToMeshEv
jLj:_emscripten_glDrawRangeElements__wrapper
iTa:__Z28scripting_class_is_valuetype17ScriptingClassPtr
D0b:__ZNSt3__25dequeI10InputEventNS_9allocatorIS1_EEE19__add_back_capacityEv
NFa:__ZN13ComputeShader13SetValueParamERKN9ShaderLab16FastPropertyNameEiPKv
mbb:__ZN14BlendShapeDataD2Ev
TBa:__ZL18ProgramUniform3uivPK7ApiGLESjiihPKv
ekd:_RijndaelTransform_Encrypt128_m1940909042
uRd:_MonoEnumInfo_get_Cache_m752167006
YRc:__Z47CanvasRenderer_Set_Custom_PropHasPopInstructionP12Il2CppObjecth
iMi:_Mesh_get_uv3_m3614955461
DBa:__ZN5Image8SetImageEii13TextureFormatb
P$:__ZN17MessageIdentifier21GetRegisteredMessagesEv
GV:__Z13RegisterClassI23CloudWebServicesManagerEvv
dJe:_InternalEnumerator_1_get_Current_m3900374024_gshared
txh:_DelegatePInvokeWrapper_CostDelegate_t1722821004
Cwd:_SynchronizedArrayListWrapper_CopyTo_m2886332653
__e:_HybridDictionary_Remove_m2295600623
Mki:__GLOBAL__sub_I_Image_cpp
_Af:_SHA512Managed__ctor_m330347986
V0a:__ZNSt3__27__sort5IRPFbRKNS_4pairIN9ShaderLab16FastPropertyNameEfEES6_EPS4_EEjT0_SB_SB_SB_SB_T_
lig:_List_1_CheckMatch_m1934407508_gshared
BDi:_Application_get_isEditor_m857789090
Lye:_Kernel_LeftShift_m3302851050
osi:__ZN14dense_hash_mapI10KeyWrapperIPK19Il2CppGenericMethodEP10MethodInfoN6il2cpp8metadata23Il2CppGenericMethodHashENS4_14EqualsComparerINS8_26Il2CppGenericMethodCompareEEENSt3__29allocatorINSD_4pairIKS4_S6_EEEEE15set_deleted_keyERSG_
xrb:__Z29Transfer_Blittable_ArrayFieldI14SafeBinaryRead4AABBEvRT_R9ArrayInfoRK23StaticTransferFieldInfo
ejf:_RecordProtocol_SendRecord_m515492272
v9d:_ConfigHandler_ReadProvider_m3620509535
qtj:__ZL56g_UnityEngine_UI_Assembly_CustomAttributesCacheGeneratorP21CustomAttributesCache
hUd:_Random__ctor_m4122933043
Xhc:__Z46Register_UnityEngine_RectOffset_get_horizontalv
E1a:__ZN18DelayedCallManager8ClearAllEv
omg:__Z180RuntimeInvoker_RuntimeObject_RuntimeObject_Int32_t2950945753_RuntimeObject_Int32U26_t1369213839_BooleanU26_t4125257963_BooleanU26_t4125257963_Int32U26_t1369213839_SByte_t1669577662PFvvEPK10MethodInfoPvPS4_
_lc:__Z22Mesh_CUSTOM_HasChannelP12Il2CppObject30InternalScriptingShaderChannel
fhi:__ZN6il2cpp2os8AutoLockD2Ev
TQh:_CanvasGroup_get_interactable_m1362547832
RUb:__ZNK25RenderPrePassObjectSorterclERK16RenderObjectDataS2_
$5d:_ResourceSet_Dispose_m1823973062
OPe:_InternalEnumerator_1_System_Collections_IEnumerator_get_Current_m3537550566_AdjustorThunk
xzb:__Z22TransferField_NonArrayI18StreamedBinaryReadILb1EE27Converter_SimpleNativeClassI8GUIStyleEEvRK23StaticTransferFieldInfoR31RuntimeSerializationCommandInfoRT0_
me:_Mix_LoadWAV_RW
Hcf:_EncryptedPrivateKeyInfo__ctor_m25839594
nmj:__ZL81Mesh_t3648964284_CustomAttributesCacheGenerator_Mesh_get_subMeshCount_m3992802841P21CustomAttributesCache
gQ:__Z45AudioSource_Get_Custom_PropSpatializeInternalP12Il2CppObject
ZDa:__Z13IsFloatFormat14GraphicsFormat
Uwj:__ZL84GraphicRaycaster_t2999697109_CustomAttributesCacheGenerator_m_IgnoreReversedGraphicsP21CustomAttributesCache
G_d:_MethodBuilder_Invoke_m3837446660
Zr:__ZNSt3__27__sort4IRNS_6__lessIN11UnityEngine9Animation13CachedBindingES4_EEPS4_EEjT0_S8_S8_S8_T_
J9g:_ReadOnlyCollection_1_System_Collections_IList_Clear_m12445504_gshared
Xmi:__ZN6il2cpp2gcL12alloc_handleEPNS0_10HandleDataEP12Il2CppObjectb
ePj:_emscripten_glGetAttribLocation__wrapper
ZJi:_Input_GetAxisRaw_m2316819917
Exh:_Enumerator_MoveNext_m55255603
ymj:__ZL57SpaceAttribute_t3956583069_CustomAttributesCacheGeneratorP21CustomAttributesCache
E2e:_WebRequest_AddDynamicPrefix_m4246631209
eVb:__Z13InitIndexListR9IndexListj
fQf:_Array_InternalArray__ICollection_Add_TisRefEmitPermissionSet_t484390987_m1720891963_gshared
L0:__ZL16ReadTypeTreeImplILb1EEbR8TypeTreeRK16TypeTreeIteratorRPKhS6_i
p_e:_Dictionary_2_set_Item_m3327106492_gshared
Ee:_glBlendEquationSeparate
rm:_emscripten_glDeleteVertexArrays
Ksa:__ZN13GfxDeviceGLES17SetComputeUniformE12ObjectHandleI18ComputeProgram_TagPvER18ComputeShaderParamjPKv
CQj:b95
hAh:_Parser_IsNameChar_m698176442
sNg:_List_1_RemoveAt_m3459335427_gshared
gRj:_emscripten_glValidateProgram__wrapper
Wbc:__ZN13MeshScripting27PrintErrorCantAccessChannelEPK4Mesh30InternalScriptingShaderChannel
GVi:_Vector3_get_sqrMagnitude_m1474274574_AdjustorThunk
tuh:_GeneralNames_ToString_m489778282
Le:_emscripten_glUniform3fv
mKf:_Array_InternalArray__ICollection_Contains_TisRaycastHit2D_t2279581989_m2733133723_gshared
rBd:_Convert_ToByte_m1442000130
yzf:_RSACryptoServiceProvider_get_KeySize_m2654153358
Thi:__ZN6il2cpp2vm9Exception20GetArgumentExceptionEPKcS3_
oxc:__Z29Transfer_Blittable_ArrayFieldI8JSONReadiEvRT_R9ArrayInfoRK23StaticTransferFieldInfo
Ihg:_Enumerator_MoveNext_m625797905_AdjustorThunk
Lmh:_Array_Resize_TisCustomAttributeTypedArgument_t2723150157_m3021884250_gshared
qPj:_glDrawArrays__wrapper
GO:__ZN9AudioClip27IsFormatSupportedByPlatformERKN4core12basic_stringIcNS0_20StringStorageDefaultIcEEEE
r2a:__ZN29SerializeTraitsForStringTypesIN4core12basic_stringIcNS0_20StringStorageDefaultIcEEEEE8TransferI24GenerateTypeTreeTransferEEvRS4_RT_
Eka:__ZN9ShaderLab26SerializedShaderDependency8TransferI24GenerateTypeTreeTransferEEvRT_
Jgh:_InvokableCall_3_Invoke_m3141788616_gshared
Tyh:_PatternCompiler_EmitUntil_m3644194775
rEc:_UNITY_FT_Match_Size
Vv:__ZN7mecanim20CreateValueArrayMaskEPKNS_18ValueArrayConstantERNS_6memory9AllocatorE
CBe:_KeyPairPersistence_ToXml_m812591779
RRd:_MonoType_GetFields_internal_m776921855
wUc:__ZN11UnityEngine7Connect14AppUpdateEventC2Ev
x5d:_ResourceReader_Dispose_m3597121875
USa:__ZN12ImageFilters17RemoveImageFilterERK11ImageFilter
pnd:_Hashtable_CalcPrime_m550773117
LRi:_RenderTexture_get_width_m2160921386
SFe:_InternalEnumerator_1_get_Current_m3073360606_AdjustorThunk
rsa:__ZN9GfxDevice31InsertCustomBlitCallbackAndDataEPFviPvER33UnityRenderingExtCustomBlitParams
fKb:__Z32AddPathRemapsForBuiltinResourcesRKN4core12basic_stringIcNS_20StringStorageDefaultIcEEEE
cYa:__ZN14RenderSettings23VirtualRedirectTransferER24GenerateTypeTreeTransfer
Psb:__ZL26Transfer_SimpleNativeClassI17RemapPPtrTransfer17AnimationCurveTplIfELb0EEvRK29SerializationCommandArgumentsR31RuntimeSerializationCommandInfo
Vie:_InputField_set_caretWidth_m707310868
tm:_glDeleteTransformFeedbacks
Pdh:_U3CCreateWhereIteratorU3Ec__Iterator1D_1_MoveNext_m612748497_gshared
qf:_JS_WebRequest_Send
gvi:__ZN6il2cpp2os4Time31GetTicks100NanosecondsMonotonicEv
dri:__ZNSt3__26__treeINS_12basic_stringIcNS_11char_traitsIcEENS_9allocatorIcEEEENS_4lessIS6_EENS4_IS6_EEE16__construct_nodeIJRKS6_EEENS_10unique_ptrINS_11__tree_nodeIS6_PvEENS_22__tree_node_destructorINS4_ISH_EEEEEEDpOT_
BKd:_MonoIO_GetFileSystemEntries_m37351365
iDd:_Convert_ToSByte_m516918950
PNj:_emscripten_glGenRenderbuffers__wrapper
KMi:_MonoBehaviour_print_m330341231
fRi:_ReapplyDrivenProperties_Invoke_m1151937880
dkd:_RijndaelTransform_ECB_m670662322
Lme:_LayoutGroup_OnDisable_m3483954898
g$h:__ZN6il2cpp2vm13MetadataCache21GetFieldInfoFromIndexEj
hrj:__ZL62EventType_t3528516131_CustomAttributesCacheGenerator_mouseDragP21CustomAttributesCache
LQ:__ZN5physx14PxLightCpuTaskD2Ev
nq:__ZNSt3__26vectorIN4core12basic_stringIcNS1_20StringStorageDefaultIcEEEENS_9allocatorIS5_EEE6assignINS_11__wrap_iterIPS5_EEEENS_9enable_ifIXaasr21__is_forward_iteratorIT_EE5valuesr16is_constructibleIS5_NS_15iterator_traitsISE_E9referenceEEE5valueEvE4typeESE_SE_
ARi:_Vector2_get_zero_m540426400
lci:_il2cpp_init
jrg:__Z105RuntimeInvoker_RuntimeObject_RuntimeObject_StreamingContext_t3711869237_ISurrogateSelectorU26_t3801502798PFvvEPK10MethodInfoPvPS4_
iOc:__ZNSt3__26__treeIPN2UI14CanvasRendererENS_4lessIS3_EENS_9allocatorIS3_EEE7destroyEPNS_11__tree_nodeIS3_PvEE
ara:__ZN13GfxDeviceGLES22UploadTextureSubData2DE9TextureIDPKhiiiiii14GraphicsFormat
RQe:_DefaultComparer_Compare_m3648806637_gshared
Plc:__Z35Register_UnityEngine_Screen_get_dpiv
Gvc:__ZN8JSONRead8TransferIxEEvRT_PKc17TransferMetaFlagsb
ayc:__ZN13SpeedTreeWind7AdvanceEbd
qHe:_InternalEnumerator_1_get_Current_m923139215_AdjustorThunk
HYh:__ZN15dense_hashtableINSt3__24pairIK10KeyWrapperIN6il2cpp5utils13dynamic_arrayIPK10Il2CppTypeLj4EEEEPFvvEEESA_NS3_8metadata19Il2CppSignatureHashEN14dense_hash_mapISA_SD_SG_NSA_14EqualsComparerINSF_22Il2CppSignatureCompareEEENS0_9allocatorISE_EEE9SelectKeyESK_SM_E12expand_arrayEjN21dense_hash_map_traits17integral_constantIbLb0EEE
VNf:_Array_FindLastIndex_TisRuntimeObject_m2929523835_gshared
qdc:__ZN9Transform16SetLocalPositionERK8Vector3f
$0b:__ZN10BootConfig4Data12InitFromFileEPPKcjS2_
TAb:__Z15Transfer_StringI18StreamedBinaryReadILb0EELb0EEvRK29SerializationCommandArgumentsR31RuntimeSerializationCommandInfo
zLc:_ft_open_face_internal
$Dc:_UNITY_tt_face_free_name
Mje:_InputField_set_selectionAnchorPosition_m68980541
CCa:__ZN14DataBufferGLES3MapEjjj
DEd:_Int16_System_IConvertible_ToDouble_m1661805412
lQj:_emscripten_glGetShaderiv__wrapper
g3b:__Z13RegisterClassI9TransformEvv
zCh:_Repetition_Compile_m988726715
zY:__ZNK6Camera33CalculateFarPlaneWorldSpaceLengthEv
e$c:_BaseInput_GetButtonDown_m3789908809
xSg:_List_1_System_Collections_IList_Insert_m2401407093_gshared
dYd:_EnumBuilder_get_BaseType_m1707640163
Q6h:__ZNK15dense_hashtableINSt3__24pairIK10KeyWrapperINS1_IPK11Il2CppImageP11Il2CppClassEEEjEES9_17ReflectionMapHashIS8_EN14dense_hash_mapIS9_jSD_NS9_14EqualsComparerINS0_8equal_toIS8_EEEENS0_9allocatorISB_EEE9SelectKeyESI_SK_E5beginEv
CRj:b98
Ozc:_cf2_stack_setReal
rI:__ZN4FMOD3DSP8getInputEiPPS0_PPNS_13DSPConnectionE
iN:__ZN11SoundHandle8Instance13CreateChannelERS_b
jTd:_NumberFormatter_NumberToString_m2529982306
lH:__ZN13AudioListenerD2Ev
KMc:_UNITY_FT_Done_Library
fBi:__ZN6il2cpp2os5MutexC2Eb
kvh:_PKCS12__cctor_m3271060407
iSe:_Comparer_1__cctor_m2282308543_gshared
NQc:__ZN2UI13CanvasManager17EmitDataForCameraEP6Camera
Cbf:_ARC4Managed_CheckInput_m1562172012
Bgg:_Enumerator_MoveNext_m4018122760_gshared
V7:___cxx_global_var_init_66
Wsh:_TlsStream_ReadBytes_m2334803179
Fjc:__Z44Register_UnityEngine_Material_GetTextureImplv
qbh:_ReadOnlyCollection_1_System_Collections_IList_Add_m2445024939_gshared
jHi:_Debug_Log_m4051431634
o5a:__ZN19StreamedBinaryWriteILb0EE21TransferSTLStyleArrayI13dynamic_arrayI31EnlightenSystemAtlasInformationLj8EEEEvRT_17TransferMetaFlags
KLd:_FileStream_EndRead_m3904255625
BGb:__ZL8MainLoopv
qac:__ZN17TransformInternal25CopyTransformSubhierarchyER18TransformHierarchyjS1_yyjb
tce:_CallContextRemotingData_Clone_m14303327
vSc:__Z47Register_UnityEngine_CanvasRenderer_SetMaterialv
WAe:_DSAManaged_get_PublicOnly_m3575594967
kNc:__Z26CleanupTextRenderingModulev
tH:__ZN13AudioListener23VirtualRedirectTransferER24GenerateTypeTreeTransfer
slb:__ZNK12HandlerChain9EnumerateEPKcP19dynamic_block_arrayI13FileEntryInfoLj32EEbPPv19FileEnumerationFlag
Rbb:__ZThn32_N12MeshRendererD1Ev
EZa:__ZN13RenderTexture23VirtualRedirectTransferER19StreamedBinaryWriteILb0EE
Wti:__ZN6il2cpp2vm13ComObjectBase17GetMarshalSizeMaxERK10Il2CppGuidPvjS5_jPj
vFj:_truncate
wla:__ZN9ShaderLab27SerializedShaderVectorValue8TransferI18StreamedBinaryReadILb0EEEEvRT_
tX:__ZN8Renderer21RendererBecameVisibleEv
SEj:___stpncpy
E9:__ZN10MemoryPool16StaticInitializeEPv
Pfa:__ZN11TypeManager21CleanupGlobalInstanceEv
duf:_Enum_ToString_m2240012010
N:Math_atan
xa:invoke_iifii
UG:__ZNK10SampleClip11GetResourceEv
x2d:_MonoEvent_get_Name_m3774595291
hpa:__ZN9GfxDevice15GetStereoMatrixE21MonoOrStereoscopicEye24BuiltinShaderMatrixParamR10Matrix4x4f
IOa:__ZN4core12basic_stringIcNS_20StringStorageDefaultIcEEE6resizeEj
Zoc:__Z43Register_UnityEngine_Event_set_displayIndexv
sxc:__GLOBAL__sub_I_CmEventProfiler_cpp
Wxg:__Z128RuntimeInvoker_RuntimeObject_RuntimeObject_SByte_t1669577662_SByte_t1669577662_SByte_t1669577662_SByte_t1669577662_RuntimeObjectPFvvEPK10MethodInfoPvPS4_
CVf:_UnicodeEncoding_GetMaxByteCount_m3053620432
$be:_ArgInfo__ctor_m1950205784
aeh:_Nullable_1_Equals_m4046255732_AdjustorThunk
yQa:__ZN17GlobalGameManager23VirtualRedirectTransferER24GenerateTypeTreeTransfer
HWc:__ZN19UnityConnectServiceD0Ev
THh:_ToggleGroup_ValidateToggleIsInGroup_m3201190739
L2h:__ZN6il2cpp2vm7Runtime17GetDelegateInvokeEP11Il2CppClass
FMi:_MonoBehaviour_StartCoroutine_Auto_Internal_m2421197418
cyc:___cxx_global_var_init_128
P3d:_MonoProperty_get_PropertyType_m4138957578
kUa:__ZNSt3__26vectorIfNS_9allocatorIfEEE8__appendEjRKf
hVc:__ZN11UnityEngine15PlatformWrapper21GetCopyTextureSupportEv
mmf:_DateTime_get_Month_m1566006993_AdjustorThunk
jJf:_Array_get_swapper_TisRaycastResult_t3360306849_m1267000905_gshared
dkf:_SslClientStream__ctor_m3478574780
mO:__ZN11AudioModule27IsFormatSupportedByPlatformEPKc
kLc:_UNITY_FT_Render_Glyph
xXd:_DerivedType_GetFields_m3190137327
h0c:_EventSystem_OnDisable_m3820258344
gxc:__Z19TransferField_ArrayI8JSONRead16Converter_StringEvRK23StaticTransferFieldInfoR31RuntimeSerializationCommandInfoRT0_
bjd:_MACTripleDES_Setup_m560957914
s7b:__ZZN10MeshFilter15InitializeClassEvEN31FunctorImpl_108kDidAddComponent4CallEPviR11MessageData
eZh:__ZN15dense_hashtableINSt3__24pairIK10KeyWrapperIPK19Il2CppGenericMethodEPK26Il2CppGenericMethodIndicesEES6_N6il2cpp8metadata23Il2CppGenericMethodHashEN14dense_hash_mapIS6_SA_SE_NS6_14EqualsComparerINSD_26Il2CppGenericMethodCompareEEENS0_9allocatorISB_EEE9SelectKeyESI_SK_E6insertERKSB_
ZUb:__Z19SetupShadowCullDataRK27ScriptableCullingParametersRK17ShaderReplaceDataPK22SceneCullingParametersf16ShadowProjectionR14ShadowCullData
OKa:__ZNK25ThreadsafeLinearAllocator22GetAllocatedMemorySizeEv
Qyc:_cff_size_request
W_a:__ZN15DirectorManager14ConnectionPool12SwitchBucketEP14ConnectionList
xOc:__ZN2UI11CompareFuncEPNS_6CanvasES1_
hJ:__ZN4FMOD7Channel11set3DSpreadEf
BBi:__ZN6il2cpp2os6Memory14AlignedReAllocEPvjj
w_e:_Dictionary_2_Resize_m1156965638_gshared
o2a:__ZN24GenerateTypeTreeTransfer16TransferTypelessEPjPKc17TransferMetaFlags
gPf:_Array_InternalArray__IndexOf_TisPlayableBinding_t354260709_m3544096311_gshared
jBf:_SHA512Managed_processLength_m2162821715
UBa:__ZL18ProgramUniform4uivPK7ApiGLESjiihPKv
cPi:_Vector3_get_normalized_m2454957984
EXf:_Mutex_CreateMutex_internal_m3763633491
T2h:__ZN6il2cpp2vm7Runtime15InvokeWithThrowEPK10MethodInfoPvPS5_
Qm:FUNCTION_TABLE_viiiiiiiiiiiiiii
ybc:__ZNK4Mesh19CanAccessFromScriptEv
c2:__Z15GetGraphicsCapsv
wEa:__ZN7ApiGLES15BindVertexArrayEN2gl6HandleILNS0_10ObjectTypeE3EEE
N4f:_Dictionary_2_System_Collections_IDictionary_Remove_m316877720_gshared
Fv:__ZN17AnimationPlayable17GetAnimationClipsER13dynamic_arrayIP13AnimationClipLj4EE
oSb:__Z20IntersectionAABBAABBRK10MinMaxAABBS1_PS_
z4b:__ZZL31RegisterRectTransformPropertiesR22GenericPropertyBindingEN32Wrapper_RectTransformSizeDeltax013SetFloatValueEPvf
hsh:_SslStreamBase_get_SecurityProtocol_m596101988
Tbi:__ZNSt3__212basic_stringIcNS_11char_traitsIcEENS_9allocatorIcEEE6__initIPKcEENS_9enable_ifIXsr21__is_forward_iteratorIT_EE5valueEvE4typeESA_SA_
vna:__ZN9ShaderLab20SerializedSubProgram14AddMatrixParamEPKcii15ShaderParamTypei
jvg:__Z121RuntimeInvoker_Void_t1185182177_Int32_t2950945753_Int32_t2950945753_Int32_t2950945753_Int32_t2950945753_Int32_t2950945753PFvvEPK10MethodInfoPvPS4_
fIc:_ft_var_load_item_variation_store
qkd:_DeriveBytes_set_Salt_m441577179
djh:_UnityEvent_3_FindMethod_Impl_m1640458315_gshared
g1i:__ZL61ConstructorBuilder_t2813524108_CustomAttributesCacheGeneratorP21CustomAttributesCache
bob:__Z18Transfer_BlittableI14SafeBinaryReadLb1EhEvRK29SerializationCommandArgumentsR31RuntimeSerializationCommandInfo
_Kh:__ZL25UnresolvedVirtualCall_122P12Il2CppObjectififiPK10MethodInfo
wve:_Text_get_verticalOverflow_m2420459396
yga:__ZNSt3__224__buffered_inplace_mergeIRNS_4lessIN4core12basic_stringIcNS2_20StringStorageDefaultIcEEEEEENS_11__wrap_iterIPS6_EEEEvT0_SC_SC_T_NS_15iterator_traitsISC_E15difference_typeESG_PNSF_10value_typeE
cc:invoke_viifff
Kaa:__Z22DestroyObjectHighLevelP6Objectb
ehd:_KeySizes__ctor_m3113946058
BPb:__Z26BeginRenderQueueExtractionR15RenderNodeQueuePK16RendererCullDataRK13CullingOutputPK12LODDataArray15ExtractionFlagsP18JobBatchDispatcher
TKc:__ZNK13TextRendering4Font10GetTextureEv
oj:_emscripten_glVertexAttrib3fv
_be:_LifetimeServices__cctor_m2128864873
L0f:_UInt16_TryParse_m3193697465
khi:__ZN6il2cpp6icalls8mscorlib6System9Threading6Thread16SetName_internalEP12Il2CppThreadP12Il2CppString
sj:_glBeginTransformFeedback
Qqf:_Decimal_op_Division_m2407964042
Cje:_InputField_get_asteriskChar_m965956856
sXa:__ZN18JobBatchDispatcherC2E11JobPriorityi
jid:_HashAlgorithm_Create_m644612360
JNi:_Playable_get_Null_m3556999077
mye:_BigInteger_TestBit_m1507066813
Wmc:__ZN8GUIStyle14GetBuiltinFontEv
Tra:__ZN9GfxDevice13EndFrameStatsEv
$5b:__Z7Empty2DP9Texture2DPhiiii
Blh:_Array_InternalArray__set_Item_TisRefEmitPermissionSet_t484390987_m3786305619_gshared
HBj:_DisplayBuffer_GetAllDisplayLines_m956916978
mgi:__ZN6il2cpp6icalls8mscorlib6System7Runtime15InteropServices7Marshal19copy_from_unmanagedEiiP11Il2CppArrayi
kH:__ZL34StaticDestroyAudioCustomFilterRootPv
LEe:_ArrayReadOnlyList_1_GetEnumerator_m3931906247_gshared
UFa:__ZN19ComputeShaderKernelD2Ev
K1b:__ZN10systeminfo21GetTemporaryCachePathEv
E6b:__ZZN8Renderer15InitializeClassEvEN28FunctorImpl_138kLayerChanged4CallEPviR11MessageData
fvi:__ZN6il2cpp2os4Time29GetTicksMillisecondsMonotonicEv
pcd:_GridLayoutGroup_CalculateLayoutInputVertical_m357562599
_Wf:_CompressedStack_Capture_m3327262890
YUf:_StringBuilder_Replace_m1968561789
uub:__Z18Transfer_BlittableI24GenerateTypeTreeTransferLb1E10Matrix4x4fEvRK29SerializationCommandArgumentsR31RuntimeSerializationCommandInfo
v3c:_StandaloneInputModule_get_repeatDelay_m1143359059
NWf:_UTF8Encoding_GetMaxByteCount_m420651053
qpj:__ZL73AnimationMotionXToDeltaPlayable_t272231551_CustomAttributesCacheGeneratorP21CustomAttributesCache
Dtc:__ZN9JSONWrite8TransferI10Matrix4x4fEEvRT_PKc17TransferMetaFlags
yAc:_cf2_hintmap_map
pGc:_tt_size_select
BNg:_List_1_get_Item_m1651423686_gshared
pUa:__ZNK16GraphicsSettings22GetTypeVirtualInternalEv
O_f:_Type_get_IsExplicitLayout_m1182254884
hrb:__ZN15SerializeTraitsI5RectTIfEE8TransferI14SafeBinaryReadEEvRS1_RT_
fLa:__ZNK14SerializedFile15GetTypeIfExistsEx
rkc:__Z41Register_UnityEngine_Texture_get_wrapModev
$Lc:_UNITY_FT_Raccess_Get_DataOffsets
E9b:__ZN14PlayableOutputC2EjP13PlayableGraph
IX:__ZThn32_NK8Renderer11GetMaterialEi
_7c:_FloatTween_AddOnChangedCallback_m2814315272
pvi:__ZN6il2cpp6icalls8mscorlib6System7Runtime15InteropServices8GCHandle15GetTargetHandleEP12Il2CppObjectii
zFi:_CameraCallback_Invoke_m3308824940
Icb:__ZN9InputAxis8TransferI18StreamedBinaryReadILb0EEEEvRT_
xW:__ZN13MemoryManager12GetAllocatorE10MemLabelId
G9e:_BigInteger_ToString_m3260066955
Moa:__ZN9GfxDevice29GetMinimumNodesPerGraphicsJobEv
Nlj:__ZL63RuntimePlatform_t4159857903_CustomAttributesCacheGenerator_NaClP21CustomAttributesCache
Fab:__ZN17BlendShapeChannel8TransferI24GenerateTypeTreeTransferEEvRT_
Wte:_Slider__ctor_m873361617
wuh:_KeyUsageExtension_Encode_m2561267096
R6d:_GCHandle__ctor_m2690474163_AdjustorThunk
Uea:__ZN15DirectorManager17OnSampleFixedTimeEv
rWb:__ZNK13RendererScene21GetDynamicObjectCountEv
Wsf:_Double_Parse_m1135962389
kth:_X509Extension__ctor_m710637961
anf:_CultureInfo_get_CurrentCulture_m1632690660
QBe:_PKCS1_OS2IP_m65970018
Ck:_Mix_HaltMusic
I7g:_ReadOnlyCollection_1_System_Collections_IList_set_Item_m70952451_gshared
bgb:__ZNSt3__26vectorIN30RuntimeInitializeOnLoadManager9ClassInfoE13stl_allocatorIS2_L18MemLabelIdentifier13ELi16EEE8__appendEj
avb:__ZN24GenerateTypeTreeTransfer32TransferSTLStyleArrayWithElementI23ManagedObjectTransfererEEvRT_17TransferMetaFlags
Wri:__ZN6il2cpp6icalls8mscorlib6System11Environment12get_PlatformEv
W0e:_HttpWebRequest__cctor_m1467954389
jff:_CipherSuiteCollection_System_Collections_IList_Remove_m2463347416
q5g:_ReadOnlyCollection_1_System_Collections_IList_RemoveAt_m1980090087_gshared
xKi:_DefaultValueAttribute_GetHashCode_m3368187153
NBi:__ZN6il2cpp6icalls8mscorlib6System7Runtime8Remoting16RemotingServices16GetVirtualMethodEP20Il2CppReflectionTypeP22Il2CppReflectionMethod
Rfc:__Z42Register_UnityEngine_Behaviour_get_enabledv
Rrh:_SslStreamBase_EndNegotiateHandshake_m1124299797
Arh:_SslStreamBase__ctor_m3009266308
Vai:__ZN6il2cpp2vm14TypeNameParser23ParseNestedTypeOptionalERi
yZf:_TimeSpan_get_Seconds_m1883479191_AdjustorThunk
lBi:__ZN6il2cpp2os13FastMutexImplC2Ev
w6d:_RuntimeHelpers_InitializeArray_m4077124945
_fb:__ZN30RuntimeInitializeOnLoadManager9ClassInfo8TransferI14SafeBinaryReadEEvRT_
O9e:_BigInteger_op_Equality_m1194739960
iWf:_UTF7Encoding_GetCharCount_m2792854727
LSb:__ZL13RenderCastersiRK8Vector3fS1_RK13ShadowJobDataR17ShaderPassContextRKNSt3__26vectorI16ShadowCasterData13stl_allocatorIS9_L18MemLabelIdentifier2ELi16EEEERKNS8_I20ShadowCasterPartDataSA_ISG_LSB_2ELi16EEEERK15RenderNodeQueuebPKj
nl:_emscripten_glGetShaderInfoLog
vve:_Text_get_horizontalOverflow_m4155575610
xhe:_ObjectReader_RecordFixup_m4125245357
vEc:_UNITY_ft_glyphslot_set_bitmap
Cl:_glUniform1i
ike:_InputField_Validate_m4147207871
P1b:__ZN6prcoreL11inner_clearILj3EEEvPhjjj
gvf:_CCGregorianCalendar_dmy_from_fixed_m494173177
CQg:_List_1_System_Collections_IList_IndexOf_m3211997095_gshared
s5:__Z29FindReflectionProbeFromAnchorP9TransformRK4AABBRS1_RsS5_
Isd:_Byte_System_IConvertible_ToUInt64_m371883985_AdjustorThunk
NGc:_Read_CVT_Stretched
A1h:__ZN6il2cpp6icalls8mscorlib6System18CollectTypeMethodsINS_5utils10functional10TrueFilterEEEvP11Il2CppClassPKS7_jRKT_RNSt3__26vectorIPK10MethodInfoNSE_9allocatorISI_EEEERA65535_b
KGb:__Z14SetPlayerPause11PlayerPauseb
rxd:_CollectionBase_System_Collections_ICollection_CopyTo_m2850099809
T6g:_ReadOnlyCollection_1_System_Collections_IEnumerable_GetEnumerator_m3042843502_gshared
J3c:_StandaloneInputModule_ActivateModule_m2232892298
Z6d:_GCHandle_Free_m1457699368_AdjustorThunk
eYf:_Thread_get_CurrentUICulture_m1397429997
oBc:_cff_done_blend
Ebd:_Graphic_RegisterDirtyLayoutCallback_m1235519898
s_:__Z30scripting_stack_trace_info_for21ScriptingExceptionPtrR14StackTraceInfo
lVi:_Vector2_op_Inequality_m3858779880
gKj:_glCompressedTexSubImage3D__wrapper
PYa:__ZN18ShadowMapJobHeaderD0Ev
Ote:_Selectable_Select_m1465131241
p7h:__ZN15dense_hashtableINSt3__24pairIK10KeyWrapperINS1_IPK12PropertyInfoP11Il2CppClassEEEjEES9_17ReflectionMapHashIS8_EN14dense_hash_mapIS9_jSD_NS9_14EqualsComparerINS0_8equal_toIS8_EEEENS0_9allocatorISB_EEE9SelectKeyESI_SK_EC2ERKSN_j
BI:__ZN15AudioReverbZone7CleanupEv
woa:__ZN10BufferGLESD0Ev
qGb:__Z20scripting_gc_disablev
qqd:_Attribute_IsDefined_m1430686743
i9e:_IntervalCollection_Optimize_m161975983
T6c:__Z9NullCheckPv
s3f:_Version__ctor_m417728625
Cfa:__ZN16memory_pool_implILi68EE15AutoPoolWrapper10InitializeEPv
wBd:_Convert_ToByte_m3567528984
Vfh:_InvokableCall_1_Invoke_m3497872319_gshared
TEb:__ZN9Scripting35ErrorMessageForUnsupportedEnumFieldE17ScriptingFieldPtr
gwe:_Level2MapComparer__cctor_m1866197409
FAb:__Z29Transfer_Blittable_ArrayFieldI18StreamedBinaryReadILb1EEfEvRT_R9ArrayInfoRK23StaticTransferFieldInfo
ojf:_RecordProtocol_ReadRecordBuffer_m180543381
FSe:_Enumerator_get_CurrentKey_m2230405065_AdjustorThunk
Mwd:_BitArray__ctor_m2765908219
oIf:_StringComparer_get_InvariantCultureIgnoreCase_m2404489191
mPh:_Font_get_material_m1471867149
jvi:__ZN6il2cpp6icalls8mscorlib6System7Runtime16CompilerServices14RuntimeHelpers15InitializeArrayEP11Il2CppArrayi
Qae:_Context_Freeze_m2594571993
ZXc:__ZZN18UnityConnectClient23RegisterGlobalCallbacksEvEN46EarlyUpdateUnityConnectClientUpdateRegistrator7ForwardEv
j7c:_ContentSizeFitter_HandleSelfFittingAlongAxis_m3992075504
aRf:_Array_InternalArray__ICollection_CopyTo_TisInt32_t2950945753_m3102754797_gshared
UOi:_Quaternion_ToString_m2203056442
gXd:_ModuleBuilder_GetTokenGenerator_m4177350090
Oab:__ZN10Matrix4x4f8TransferI18StreamedBinaryReadILb0EEEEvRT_
kYf:_Thread_Start_m2860771284
BVg:_List_1_AddEnumerable_m2295992518_gshared
AM:__ZN4FMOD7Channel19getReverbPropertiesEP29FMOD_REVERB_CHANNELPROPERTIES
DVb:__ZL23NormalizeRobustInternalRK8Vector3fRfS2_f
fyc:__GLOBAL__sub_I_modules_terrain_public_2_cpp
dje:_InputField_get_selectionColor_m2548343601
uPf:_Array_LastIndexOf_TisRuntimeObject_m2701366436_gshared
q1h:__ZN6il2cpp6icalls8mscorlib6System8MonoType13GetInterfacesEP20Il2CppReflectionType
MT:__ZN11UnityEngine15CloudWebService25WebRequestDownloadHandler7OnAbortEv
lMb:__ZN6Camera12CustomRenderER11CullResultsR17ShaderPassContextPK21CameraRenderingParamsNS_10RenderFlagEPNS_21PerformRenderFunctionEPFvvE
H3e:_PublicKey_GetUnsignedBigInteger_m3873409673
dqi:__ZN6il2cpp2os6Thread22SetNativeThreadCleanupEPFvPvE
Scg:_GenericEqualityComparer_1_Equals_m2669134646_gshared
qfc:__Z35Application_Get_Custom_PropPlatformv
Aci:_il2cpp_class_from_system_type
ifd:_RuntimeMethodHandle__ctor_m2867240657
tDb:__ZN4core8hash_mapINS_12basic_stringIcNS_20StringStorageDefaultIcEEEEiNS_4hashIS4_EENSt3__28equal_toIS4_EEE6insertERKNS7_4pairIKS4_iEE
bn:FUNCTION_TABLE_vdd
$tb:__Z18Transfer_BlittableI24GenerateTypeTreeTransferLb1E10ColorRGBAfEvRK29SerializationCommandArgumentsR31RuntimeSerializationCommandInfo
pAa:__ZN6prcoreL17RemapGenericFloatI18TexFormatRGBAFloat16TexFormatRGFloatEEvPKNS_9InnerInfoE
R0h:__ZN6il2cpp6icalls8mscorlib6System8MonoType8get_NameEP20Il2CppReflectionType
zxe:_SimpleCollator_LastIndexOf_m2130553617
yqb:__ZNSt3__26vectorI10RectOffset13stl_allocatorIS1_L18MemLabelIdentifier1ELi16EEE8__appendEj
Tt:__ZN21AnimationClipPlayable22PrepareAnimationEventsEfR13dynamic_arrayI22AnimationClipEventInfoLj4EE
FQe:_DefaultComparer_Compare_m1920986590_gshared
h_f:_TimeSpan_op_Equality_m1999885032
jsh:_SslStreamBase_get_ServerCertificates_m2154373069
vli:__ZN6il2cpp2vmL29AddTypeToNametoClassHashTableEPK11Il2CppImagei
Ro:FUNCTION_TABLE_ff
To:FUNCTION_TABLE_fi
_Fd:_NumberFormatter_ZeroTrimEnd_m3065471008
Fhh:_UnityAction_2_Invoke_m2304474703_gshared
ald:_X509Certificate_get_DSA_m1760272844
dYf:_Thread_get_CurrentCulture_m349116646
YXf:_Thread_Thread_internal_m4184414727
rd:_emscripten_glGetAttribLocation
QKb:__ZZ23InitPlayerLoopCallbacksvEN39PostLateUpdateResetInputAxisRegistrator7ForwardEv
mL:__ZN4FMOD12ChannelGroup14getParentGroupEPPS0_
vd:_emscripten_set_blur_callback
kZg:_Collection_1_IsValidItem_m1475436662_gshared
eya:__ZNK14ImageReference9ClipImageEiiii
u7b:__ZN4MeshC2E10MemLabelId18ObjectCreationMode
uTb:__ZN10Matrix4x4f30SetPositionAndOrthoNormalBasisERK8Vector3fS2_S2_S2_
qKa:__ZN5RectTIfE8TransferI24GenerateTypeTreeTransferEEvRT_
Q6c:_ColorBlock_Equals_m518833916
qpi:__ZN6il2cpp6icalls8mscorlib6System4Enum8ToObjectEP20Il2CppReflectionTypeP12Il2CppObject
xmh:_Array_qsort_TisUIVertex_t4057497605_m4120916435_gshared
BNb:__ZN12FlareManager6UpdateEv
mji:__ZN6il2cpp6icalls8mscorlib6System4Type29GetGenericTypeDefinition_implEP20Il2CppReflectionType
Edb:__ZN27GenericSlowGarbageCollector16ProcessReferenceEi
a5f:_Dictionary_2_get_Item_m1749337561_gshared
KGi:__ZN21InterfaceFuncInvoker5I19CSSSize_t3377836552ififiE6InvokeEjP11Il2CppClassP12Il2CppObjectififi
V9d:_LifetimeServices_set_SponsorshipTimeout_m2538334028
unh:_Array_Sort_TisCustomAttributeTypedArgument_t2723150157_m3248988944_gshared
lEj:_fopen
$ma:__ZN20GpuProgramParameters15AddTextureParamEPKciib16TextureDimensionP16PropertyNamesSet
AMc:__ZN20TextRenderingPrivate8FontImplD2Ev
zV:__ZN19CloudServiceHandler8SaveFileERKN4core12basic_stringIcNS0_20StringStorageDefaultIcEEEEPKvj
Shi:__ZN6il2cpp2vm9Exception5RaiseEib
Pvi:_GC_init
aSd:_MonoType_IsPointerImpl_m3340652279
JMj:_glFramebufferTexture2D__wrapper
BCi:__ZN6il2cpp6icalls8mscorlib6System7Runtime8Remoting7Proxies9RealProxy27InternalGetTransparentProxyEP12Il2CppObjectP12Il2CppString
Mqi:__ZN6il2cpp2vm6Method10IsInflatedEPK10MethodInfo
mvi:__ZNK6il2cpp8metadata14Il2CppTypeLessclEPK10Il2CppTypeS4_
jwi:_GC_remove_header
WVa:__ZL17InstanceBufferJobIN10Instancing14RenderLoopArgsEEvP21InstanceBufferJobDataIT_E
Sfb:__ZNSt3__26vectorIi13stl_allocatorIiL18MemLabelIdentifier13ELi16EEE8__appendEj
Ipe:_ReflectionMethodsCache__ctor_m3826472948
Kee:_ReturnMessage_get_OutArgs_m1641976511
Kbe:_SynchronizationAttribute_IsContextOK_m324067792
Ioi:__ZN6il2cpp2vm6Object6IsInstEP12Il2CppObjectP11Il2CppClass
lxb:__Z19TransferField_ArrayI19StreamedBinaryWriteILb0EE27Converter_UnityEngineObjectEvRK23StaticTransferFieldInfoR31RuntimeSerializationCommandInfoRT0_
q2h:_RemoteSettings_CallOnUpdate_m2821567430
JXe:_Enumerator_Dispose_m3503748991_gshared
Wua:__Z16GetMSAALevelDesc9MSAALevel
vuf:_Environment_GetMachineConfigPath_m43519138
CKe:_InternalEnumerator_1_System_Collections_IEnumerator_get_Current_m4203917072_gshared
cqf:_Decimal_decimal2Int64_m2102545213
AMb:__ZN8Renderer27EnsureTransformInfoUpToDateEv
sRj:_emscripten_glFrontFace__wrapper
e4f:_Dictionary_2_System_Collections_ICollection_CopyTo_m534867526_gshared
La:invoke_fiffi
F0:__ZN14SerializedFile14SerializedType8ReadTypeILb1EEEbibRPKhS3_Pi
Cgh:_InvokableCall_1_Invoke_m1160628299_gshared
t$c:_ExecuteEvents_get_pointerEnterHandler_m1185301724
Prh:_InternalAsyncResult__ctor_m2194591319
WYa:__ZN8Playable7SetTimeEd
laa:__ZN13RuntimeStaticI12GraphicsCapsLb0EE16StaticInitializeEPv
c9a:__ZN9Texture3D17UploadToGfxDeviceEv
Quc:__Z18Transfer_BlittableI8JSONReadLb1E8Vector4fEvRK29SerializationCommandArgumentsR31RuntimeSerializationCommandInfo
BFc:_tt_cmap2_validate
EBc:_cff_cmap_unicode_done
S7d:_ActivationServices_CreateProxyFromAttributes_m3864561181
YCf:_SecurityPermission_Cast_m2392017566
gGb:__ZN9Scripting20SendScriptingMessageER10GameObjectPKc18ScriptingObjectPtr
Vyg:__Z67RuntimeInvoker_Void_t1185182177_Scene_t2348375561_Int32_t2950945753PFvvEPK10MethodInfoPvPS4_
GGb:__Z26IsSplashScreenFadeCompletev
s1c:__ZN23InterfaceActionInvoker1IP21Transform_t3600365921E6InvokeEjP11Il2CppClassP12Il2CppObjectS1_
qgc:__Z42Register_UnityEngine_Camera_get_clearFlagsv
aJi:_UnityEventBase_RebuildPersistentCallsIfNeeded_m216788690
s1h:__ZNSt3__26__treeIP11Il2CppClassNS_4lessIS2_EENS_9allocatorIS2_EEED2Ev
Jue:_Slider_FindSelectableOnRight_m3576909722
JZb:__ZN13RenderManager27UpdatePreviousFrameMatricesEv
wyb:__Z35Transfer_Blittable_FixedBufferFieldI18StreamedBinaryReadILb1EExEvRK29SerializationCommandArgumentsR31RuntimeSerializationCommandInfo
Mph:_Array_InternalArray__get_Item_TisByte_t1134296376_m3566214066_gshared
wba:__Z22SetManagerPtrInContextiP6Object
Beb:__ZN14PlayerSettings8TransferI19StreamedBinaryWriteILb0EEEEvRT_
Auc:__Z18Transfer_BlittableI8JSONReadLb0E10ColorRGBAfEvRK29SerializationCommandArgumentsR31RuntimeSerializationCommandInfo
Cvf:_NumberFormatInfo_set_NumberNegativePattern_m1999304795
uTg:_List_1_System_Collections_IList_Insert_m2238786360_gshared
rZd:_GenericTypeParameterBuilder_IsSubclassOf_m2266644074
ZYh:__ZN15dense_hashtableINSt3__24pairIK10KeyWrapperIN6il2cpp5utils13dynamic_arrayIPK10Il2CppTypeLj4EEEEPFvvEEESA_NS3_8metadata19Il2CppSignatureHashEN14dense_hash_mapISA_SD_SG_NSA_14EqualsComparerINSF_22Il2CppSignatureCompareEEENS0_9allocatorISE_EEE9SelectKeyESK_SM_E14squash_deletedEv
$vf:_CompareInfo_ToString_m2684143229
Oda:__ZN15DirectorManagerD2Ev
iue:_Slider_get_maxValue_m414465787
f6h:__ZN15dense_hashtableINSt3__24pairIK10KeyWrapperINS1_IPK10MethodInfoP11Il2CppClassEEEjEES9_17ReflectionMapHashIS8_EN14dense_hash_mapIS9_jSD_NS9_14EqualsComparerINS0_8equal_toIS8_EEEENS0_9allocatorISB_EEE9SelectKeyESI_SK_E9copy_fromERKSN_j
O5e:_X509CertificateEnumerator_System_Collections_IEnumerator_get_Current_m4218613192
MUc:__ZN11UnityEngine15PlatformWrapper12GetInfoFlagsEv
Dqe:_Scrollbar_set_direction_m473480640
KVf:_UTF32Encoding__ctor_m1635603592
SCh:_Uri_IsPredefinedScheme_m1188665625
$Xc:__ZN18UnityConnectClient13StaticDestroyEv
yji:__ZN6il2cpp6icalls8mscorlib6System13Globalization11CultureInfo45construct_internal_locale_from_current_localeEP17Il2CppCultureInfo
JRf:_Array_InternalArray__ICollection_CopyTo_TisUIVertex_t4057497605_m487823430_gshared
d2e:_ServicePointManager_get_CheckCertificateRevocationList_m1645465614
i2h:_SessionStateChanged_Invoke_m1365949269
kGa:__ZN15TextureTFMethod16BindForRenderingEj
gsj:__ZL49Canvas_t3310196443_CustomAttributesCacheGeneratorP21CustomAttributesCache
Vee:_SoapMethodAttribute_SetReflectionObject_m503748123
tyf:_Guid_Equals_m3683678873_AdjustorThunk
wli:__ZN15dense_hashtableINSt3__24pairIK10KeyWrapperINS1_IPKcS4_EEEiEES6_24NamespaceAndNamePairHashN14dense_hash_mapIS6_iS9_NS6_14EqualsComparerI26NamespaceAndNamePairEqualsEENS0_9allocatorIS8_EEE9SelectKeyESD_SF_E4findERS7_
pKc:__ZN20TextRenderingPrivate8FontImpl13CharacterInfo8TransferI19StreamedBinaryWriteILb0EEEEvRT_
J$h:__ZN6il2cpp2os19SocketHandleWrapper7ReleaseEv
NDi:_BeforeRenderHelper_Invoke_m50072094
ode:_MethodCall_get_MethodBase_m550047245
pdb:__ZNSt3__27__sort4IRNS_6__lessINS_4pairIPKN5Unity4TypeE7Hash128EES8_EEPS8_EEjT0_SC_SC_SC_T_
Tbc:__Z33AllocExtractMeshIndicesFromScriptRK4Meshib
ooa:__ZNK11NamedObject22GetTypeVirtualInternalEv
ICh:_Uri_EscapeString_m2061933484
ILe:_InternalEnumerator_1_System_Collections_IEnumerator_get_Current_m1096730143_gshared
bCd:_Convert_ToDecimal_m3815908452
_Fi:_Color_op_Equality_m1112359053
QFi:_Color__ctor_m286683560_AdjustorThunk
iMd:_DelegatePInvokeWrapper_ReadDelegate_t714865915
Hxd:_CollectionBase_Clear_m1509125218
Aoc:__ZN11IMGUIModule21QueryGUIDisplayTargetE17ScriptingClassPtr
$Xh:__ZNSt3__27__sort4IRN6il2cpp5utils11collections13ArrayValueMapIPK10Il2CppType17Il2CppInteropData26InteropDataToTypeConverterNS1_8metadata14Il2CppTypeLessENSA_26Il2CppTypeEqualityComparerEE12SortComparerEPS8_EEjT0_SH_SH_SH_T_
NHj:dynCall_vidi
jOd:_StreamReader_ReadToEnd_m371831293
rLi:_Mathf_RoundToInt_m1874334613
cRd:_MonoCustomAttrs_GetCustomAttributes_m1775925192
yhc:__Z42NoAllocHelpers_CUSTOM_ExtractArrayFromListP12Il2CppObject
hLj:_glVertexAttribPointer__wrapper
Hid:_HMAC_Create_m2148924157
yHj:___udivdi3
Euf:_Exception__ctor_m1406832249
$fg:_Enumerator_System_Collections_IEnumerator_get_Current_m2339378585_gshared
Ddc:__ZN11PlayerPrefs9SetStringERKN4core12basic_stringIcNS0_20StringStorageDefaultIcEEEES6_
czi:__ZN6il2cpp6icalls8mscorlib6System8Delegate18SetMulticastInvokeEP14Il2CppDelegate
nSe:_Enumerator_VerifyCurrent_m2197239943_gshared
xua:__ZN4gles16CreateBlendStateER15DeviceStateGLESRK13GfxBlendState
cI:__ZN9AudioClip6ReloadEv
y7b:__ZN8Material12CleanupClassEv
zEj:_fseek
syc:__ZN16memory_pool_implILi40EE15AutoPoolWrapper10InitializeEPv
Ulf:_DateTimeFormatInfo_GetEraName_m3151483707
MDe:_PKCS12_AddCertificate_m3618696508
EM:__ZN20SoundChannelInstance11set3DSpreadEf
Rdg:_HashSet_1_Init_m2976925848_gshared
er:__ZNSt3__26__sortIRN11UnityEngine9Animation11BindingSortEPNS_4pairINS2_14GenericBindingEPNS2_10BoundIndexEEEEEvT0_SB_T_
MDd:_Convert_ToUInt32_m2215525276
reb:__ZN24GenerateTypeTreeTransfer32TransferSTLStyleArrayWithElementI16SplashScreenLogoEEvRT_17TransferMetaFlags
F4h:__ZN15dense_hashtableINSt3__24pairIK10KeyWrapperINS1_IPK9FieldInfoP11Il2CppClassEEEjEES9_17ReflectionMapHashIS8_EN14dense_hash_mapIS9_jSD_NS9_14EqualsComparerINS0_8equal_toIS8_EEEENS0_9allocatorISB_EEE9SelectKeyESI_SK_E6insertERKSB_
$Je:_InternalEnumerator_1_get_Current_m2680116177_gshared
Vca:__Z37InitializeIntermediateRendererManagerPv
Xii:__ZN6il2cpp2vm13LivenessState16AddProcessObjectEP12Il2CppObjectPS1_
fHf:_String_IndexOfOrdinal_m962178384
Iid:_HMACMD5__ctor_m3129799368
GYd:_TypeBuilder_GetEvent_m2166527753
Abd:_Graphic_CrossFadeColor_m678806803
jaa:__ZN23DefaultMeshVertexFormatC2E17ShaderChannelMask
Ryb:__ZL26Transfer_SimpleNativeClassI18StreamedBinaryReadILb1EE8GradientLb1EEvRK29SerializationCommandArgumentsR31RuntimeSerializationCommandInfo
xsg:__Z102RuntimeInvoker_Int32_t2950945753_RuntimeObject_Int32_t2950945753_CharU26_t1697032762_SByte_t1669577662PFvvEPK10MethodInfoPvPS4_
rSd:_MonoType_get_Namespace_m2015358851
Ejh:_IndexedSet_1_RemoveAt_m3002732320_gshared
fzd:_HashKeys_CopyTo_m4219627824
oOh:_AudioExtensionManager_WriteExtensionProperties_m1988587615
Eie:_InputField_GetLineStartPosition_m2947412579
zua:__ZN7ApiGLES10InvalidateERK14GfxContextGLES
Kqd:_Convert_ToType_m2406080310
Y9g:_ReadOnlyCollection_1_IndexOf_m2659941036_gshared
q9g:_ReadOnlyCollection_1_System_Collections_IList_set_Item_m3570269385_gshared
t8c:_DefaultControls_CreateToggle_m1236643913
nAe:_BitConverterLE_ToSingle_m1153793442
iBi:__ZN6il2cpp2os5Mutex7TryLockEjb
vEd:_Int16_System_IConvertible_ToByte_m3161982419
V4:__Z20IsVectorBuiltinParamPKcPi
ioi:__ZN6il2cpp2vm5Field8GetFlagsEP9FieldInfo
rjd:_MD5CryptoServiceProvider_HashFinal_m2625727830
qmh:_Array_qsort_TisRaycastResult_t3360306849_m3861320071_gshared
AFf:_Single_System_IConvertible_ToUInt32_m289030200
Qgi:__ZN6il2cpp6icalls8mscorlib6System10ReflectionL16LoadResourceFileEP24Il2CppReflectionAssembly
usf:_Double_System_IConvertible_ToDouble_m3692611612
h0:__Z13IsFileCreatedRKN4core12basic_stringIcNS_20StringStorageDefaultIcEEEE
Hve:_Text_OnPopulateMesh_m1525268284
tLd:_FileStream_FlushBuffer_m914568182
C4a:__ZN16LightmapSettings18TransferDeprecatedI14SafeBinaryReadEEvRT_
hVf:_StringBuilder_AppendFormat_m921870684
eoi:__ZN15dense_hashtableINSt3__24pairIK10KeyWrapperIP12Il2CppObjectEN6il2cpp2gc9CachedCCWEEES5_NS7_5utils11PointerHashIS3_EEN14dense_hash_mapIS5_S9_SD_NS5_14EqualsComparerINS0_8equal_toIS4_EEEENS0_9allocatorISA_EEE9SelectKeyESI_SK_E5eraseE30dense_hashtable_const_iteratorISA_S5_SD_SM_SI_SK_E
iyd:_Hashtable__ctor_m1684344284
ry:__ZThn152_NK26AnimatorControllerPlayable41GetStateMachineBehaviourVectorDescriptionEv
Rmd:_Activator_CheckAbstractType_m2015247896
Izf:_RSACryptoServiceProvider_ImportParameters_m614616705
K7:__GLOBAL__sub_I_runtime_camera_renderloops_1_cpp
zrh:_SslHandshakeHash_CreateSignature_m1634235041
$Ue:_ShimEnumerator_get_Current_m3504536618_gshared
iUa:__ZN12FlareManager9AddCameraER6Camera
hZc:__ZN15UnityWebRequestD0Ev
tne:_LayoutRebuilder_U3CRebuildU3Em__3_m523803689
vN:__ZN11AudioSource8TransferI14SafeBinaryReadEEvRT_
dLd:_FileNotFoundException__ctor_m2477162036
h9f:_EqualityComparer_1__cctor_m149356781_gshared
Dpf:_Decimal_System_IConvertible_ToDouble_m3125524987
ov:__ZN7mecanim9animation23TransformDeltasFromClipEiiiRKNS0_18ClipMuscleConstantERKNS0_12ClipBindingsERKNS_14ValueArrayMaskERN4math4trsXESC_SC_
EBb:__Z18Transfer_BlittableI18StreamedBinaryReadILb0EELb0E12PropertyNameEvRK29SerializationCommandArgumentsR31RuntimeSerializationCommandInfo
EHj:___divdi3
ima:__ZN9ShaderLab9IntShader26CreateFromSerializedShaderERKNS_16SerializedShaderERNSt3__26vectorI4PPtrI6ShaderENS4_9allocatorIS8_EEEEbPS7_
Uxh:_Match_get_Empty_m2060287462
pnb:__ZN19ShaderPropertySheet16SetComputeBufferEN9ShaderLab16FastPropertyNameE15ComputeBufferIDNS_8SetFlagsE
bNi:_U3CInvokeMessageIdSubscribersU3Ec__AnonStorey0_U3CU3Em__0_m444206473
n5f:_Dictionary_2_ContainsValue_m256968015_gshared
ysi:__ZNK15dense_hashtableINSt3__24pairIK10KeyWrapperIPK19Il2CppGenericMethodEP10MethodInfoEES6_N6il2cpp8metadata23Il2CppGenericMethodHashEN14dense_hash_mapIS6_S9_SD_NS6_14EqualsComparerINSC_26Il2CppGenericMethodCompareEEENS0_9allocatorISA_EEE9SelectKeyESH_SJ_E5beginEv
DEe:_ArrayReadOnlyList_1_get_Item_m1974867852_gshared
vdd:_Image_AddQuad_m969836764
uwe:_MSCompatUnicodeTable_IsIgnorableNonSpacing_m47098938
Z2g:_Collection_1_IsSynchronized_m2655903966_gshared
$Gd:_Int32_System_IConvertible_ToSingle_m896140682_AdjustorThunk
sv:__ZN7mecanim21CreateFloatValueArrayEPKNS_18ValueArrayConstantERNS_6memory9AllocatorE
JWb:__ZL12CullGroupJobP20CullingGroupsJobDataj
Hwi:_GC_remove_dangling_disappearing_links
nU:__ZN11UnityEngine15CloudWebService14RestDownloader9IsAbortedEv
Ay:__ZN7mecanim12statemachine28DestroyStateMachineWorkspaceEPNS0_21StateMachineWorkspaceERNS_6memory9AllocatorE
qpc:__Z30GUIStyle_CUSTOM_SetDefaultFontP12Il2CppObject
ZSe:_Enumerator_System_Collections_IDictionaryEnumerator_get_Key_m3435754782_AdjustorThunk
io:FUNCTION_TABLE_f
Wo:FUNCTION_TABLE_i
TAh:_AnchorInfo_get_Position_m1133366486
hOd:_StreamReader_FindNextEOL_m2574298119
Tfa:__ZN11TypeManager12RegisterTypeERK20TypeRegistrationDesc
Bn:FUNCTION_TABLE_v
tab:__ZNSt3__26vectorI17BlendShapeChannelNS_9allocatorIS1_EEE8__appendEj
Ep:__ZN18StreamedBinaryReadILb0EE21TransferSTLStyleArrayI13dynamic_arrayI8Vector3fLj4EEEEvRT_17TransferMetaFlags
WKb:__ZZ23InitPlayerLoopCallbacksvEN43PostLateUpdateUpdateAllRenderersRegistrator7ForwardEv
rhb:__ZN21LightProbeProxyVolume13GetRenderDataER27LightProbeProxyVolumeSample
qae:_Context_get_ContextProperties_m3283598326
a$g:_Collection_1_System_Collections_IList_set_Item_m4249768453_gshared
uCj:_Keyboard_PlayRandomSound_m629210842
Xcb:__ZN11TimeManager8TransferI24GenerateTypeTreeTransferEEvRT_
hrc:__ZN8JSONRead8TransferItEEvRT_PKc17TransferMetaFlagsb
Rr:__ZNK11UnityEngine9Animation28GenericAnimationBindingCache10BindCustomERKNS0_14GenericBindingER9TransformRNS0_10BoundCurveE
rbi:__ZN6il2cpp2vm17TypeNameParseInfoC2ERKS1_
DWc:__ZN18UnityConnectClient17InitConnectClientEv
$Cj:_memcmp
nEd:_GuidParser_ParseHexPrefix_m3148550086
wVc:__ZN11UnityEngine7Connect18ConnectSessionInfo8TransferER9JSONWrite
sQ:__Z74Register_UnityEngine_AudioListener_INTERNAL_CALL_ReadExtensionPropertyNamev
Wlh:_Array_InternalArray__set_Item_TisHitInfo_t3229609740_m1576844560_gshared
lcb:__ZN9Scripting32GetCachedPtrFromScriptingWrapperE18ScriptingObjectPtr
ukf:_SslClientStream_OnBeginNegotiateHandshake_m3734240069
kQc:__ZN2UI29ScheduleUIJobsForInstructionsERNS_7BatchesEjPKNS_13UIInstructionEfjjPNS_13CanvasJobDataE
$K:__ZN5audio5mixer22CreateAudioMixerMemoryERKNS0_18AudioMixerConstantEPN4FMOD6SystemERN7mecanim6memory9AllocatorEib
JEb:__ZL65EmitSerializationCommandsForLinearCollectionOfManagedObjectsFieldRK31TransferFunctionScriptingTraitsRK23TransferArrayField_InfoR20SerializationCommandR32SerializationCommandQueueBuilderRP20AllowNameConversions
yph:_LayoutGroup_SetProperty_TisInt32_t2950945753_m3911895589_gshared
eV:__ZN11UnityEngine15CloudWebService19SessionEventManager31SetupNextActiveSessionContainerEv
amg:__Z121RuntimeInvoker_Void_t1185182177_Int32_t2950945753_Int32_t2950945753_Int32_t2950945753_SByte_t1669577662_SByte_t1669577662PFvvEPK10MethodInfoPvPS4_
LJj:dynCall_iiif
Etg:__Z52RuntimeInvoker_Single_t1397266774_Single_t1397266774PFvvEPK10MethodInfoPvPS4_
s4b:__ZZL31RegisterRectTransformPropertiesR22GenericPropertyBindingEN32Wrapper_RectTransformAnchorMiny113GetFloatValueEPv
Xvd:_FixedSizeArrayListWrapper_InsertRange_m1706982628
O2f:_UIntPtr_ToString_m984583492_AdjustorThunk
yIb:__ZL20ShaderWarmupFuncImplP6ShaderiPN9ShaderLab4PassERK16ShaderKeywordSetP10DynamicVBOPvR17ShaderPassContext
wJb:__ZN13GfxDeviceGLESC2E10MemLabelId
FPh:_TextGenerationSettings_Equals_m3618607189
RXh:__ZN15dense_hashtableI10KeyWrapperIPK17Il2CppGenericInstES4_N6il2cpp8metadata21Il2CppGenericInstHashEN14dense_hash_setIS4_S7_NS4_14EqualsComparerINS6_24Il2CppGenericInstCompareEEENSt3__29allocatorIS4_EEE8IdentityESB_SE_E6insertERKS4_
W3h:__ZN15dense_hashtableINSt3__24pairIK10KeyWrapperINS1_IPK14Il2CppAssemblyP11Il2CppClassEEEjEES9_17ReflectionMapHashIS8_EN14dense_hash_mapIS9_jSD_NS9_14EqualsComparerINS0_8equal_toIS8_EEEENS0_9allocatorISB_EEE9SelectKeyESI_SK_E3endEv
kXf:_NativeEventCalls_ResetEvent_internal_m885886540
tRd:_MonoEnumInfo_get_enum_info_m1661176095
tEh:_GUIUtility_CheckOnGUI_m3924092168
zva:__ZN14DataBufferGLES12RecordUpdateEv
JGe:_InternalEnumerator_1_get_Current_m1481634550_gshared
uLc:__ZN20TextRenderingPrivate15DynamicFontData28GetFaceForFontRefFromOSFontsERKNS_7FontRefE
whf:_Context_ClearKeyInfo_m1155154290
gPi:_Ray_GetPoint_m1852405345
Noi:__ZN6il2cpp2vm12GenericClass12SetupMethodsEP11Il2CppClass
kmb:__ZNK20LocalFileSystemPosix18GetApplicationPathEv
eVg:_List_1_set_Item_m658432263_gshared
GEb:__ZN9Scripting30IsSystemCollectionsGenericListE17ScriptingClassPtr
$1:__ZN21ScalableBufferManager20GetHeightScaleFactorEv
c6f:_Dictionary_2_Add_m1279427033_gshared
FQc:__ZN2UI23InitializeCanvasManagerEv
DQa:__ZN10GameObject16CheckConsistencyEv
I2c:_PointerInputModule_GetMousePointerEventData_m4273240034
u5b:__ZN14RenderSettings15InitializeClassEv
G4c:_AspectRatioFitter_set_aspectMode_m4140288987
phc:__Z46Register_UnityEngine_GameObject_get_activeSelfv
Dya:__ZL35stbir__resample_horizontal_upsampleP11stbir__infoPf
uLg:__Z82RuntimeInvoker_RuntimeObject_RaycastResult_t3360306849_RuntimeObject_RuntimeObjectPFvvEPK10MethodInfoPvPS4_
SWg:_Enumerator__ctor_m3419056812_AdjustorThunk
kMe:_InternalEnumerator_1_System_Collections_IEnumerator_get_Current_m1299775605_gshared
_tb:__Z18Transfer_BlittableI24GenerateTypeTreeTransferLb0E10ColorRGBAfEvRK29SerializationCommandArgumentsR31RuntimeSerializationCommandInfo
A7f:_DefaultComparer_Equals_m1713730345_gshared
cIj:dynCall_iifii
kPc:__ZN2UI16GetCanvasManagerEv
Ybc:__ZN15GUIEventManager8PopEventER10InputEvent
Ehc:__Z31RectOffset_Get_Custom_PropRightP12Il2CppObject
KNc:__Z54Register_UnityEngine_TextGenerator_GetVerticesInternalv
Hjd:__Z3BoxP11Il2CppClassPv
lKi:_Input_get_touchSupported_m1480684970
scd:_GridLayoutGroup_SetLayoutVertical_m2106427802
EMi:_MonoBehaviour_StartCoroutine_m3411253000
pGa:__ZN21UniformBufferTFMethodD2Ev
KLe:_InternalEnumerator_1_System_Collections_IEnumerator_get_Current_m1096730143_AdjustorThunk
cec:__ZL34GetComponentsImplementationRecurseILb1ELi1ELi2EEbR10GameObjectbRK17CompareParametersRK39GetComponentsImplementation_ReturnValue
iza:__ZN6prcoreL12RemapGenericI15TexFormatRGB56515TexFormatRGB888EEvPKNS_9InnerInfoE
zzi:__ZN6il2cpp5utils10MemoryPool9AddRegionEj
Z3e:_X509Certificate2__ctor_m3336405942
pbd:_Graphic_get_workerMesh_m997382591
qmc:__Z38PlayableHandle_CUSTOM_IsValid_InjectedP9HPlayable
kod:_Array_System_Collections_IList_RemoveAt_m41405158
r6c:_CanvasUpdateRegistry_IsRebuildingLayout_m3530790142
NRc:__Z41CanvasGroup_Get_Custom_PropBlocksRaycastsP12Il2CppObject
vui:__ZN6il2cpp2os11Environment17GetProcessorCountEv
Lha:__ZNSt3__26vectorIN9ShaderLab26SerializedShaderDependencyENS_9allocatorIS2_EEE8__appendEj
Zaa:__ZN32TransformHierarchyChangeDispatch26DispatchSelfAndAllChildrenE15TransformAccessNS_12InterestTypeE
yQ:__Z46Register_UnityEngine_AudioSource_get_isPlayingv
tUc:__ZN11UnityEngine15PlatformWrapper21GetVRDeviceMirrorModeEv
g0c:_EventSystem_OnEnable_m3237278246
gca:__ZN13RuntimeStaticI22VirtualJoystickManagerLb0EE13StaticDestroyEPv
Y7e:_Interpreter_Balance_m1978770534
zH:__ZN13AudioListener12ApplyFiltersEv
mVg:_List_1_System_Collections_IList_Contains_m353431064_gshared
dPh:_AudioConfigurationChangeHandler_BeginInvoke_m4104069447
eBi:__ZN6il2cpp8metadata27Il2CppGenericContextCompare7CompareEPK20Il2CppGenericContextS4_
NIj:dynCall_viiii
Xvf:_CompareInfo_IsPrefix_m796715920
RTh:__ZNK15dense_hashtableINSt3__24pairIK10KeyWrapperIPK22Il2CppGenericParameterEP11Il2CppClassEES6_N6il2cpp5utils11PointerHashIS4_EEN14dense_hash_mapIS6_S9_SE_NS6_14EqualsComparerINS0_8equal_toIS5_EEEENS0_9allocatorISA_EEE9SelectKeyESJ_SL_E23find_position_with_hashERS7_j
Jaf:_PrimalityTest_Invoke_m2948246884
OMb:__Z11CopyTextureP7TextureiiS0_ii
ZEe:_ArrayReadOnlyList_1_Contains_m2459654648_gshared
Atj:__ZL65EventTrigger_t1076084509_CustomAttributesCacheGenerator_delegatesP21CustomAttributesCache
vbi:__ZNSt3__214__split_bufferIN6il2cpp2vm17TypeNameParseInfoERNS_9allocatorIS3_EEED2Ev
pUg:_List_1_System_Collections_IList_Contains_m3717811284_gshared
s2d:_MonoEvent_get_Attributes_m3048829315
hvb:__Z22TransferField_NonArrayI24GenerateTypeTreeTransfer27Converter_SimpleNativeClassI8GUIStyleEEvRK23StaticTransferFieldInfoR31RuntimeSerializationCommandInfoRT0_
Xea:__ZN15DirectorManager14ConnectionPool16GrowEmptyBucketsEv
oxd:_CaseInsensitiveHashCodeProvider_AreEqual_m3534448780
UY:__ZN17PersistentManager32CopyToAwakeFromLoadQueueInternalER18AwakeFromLoadQueue
e8b:__ZN10GameObject15InitializeClassEv
wvg:__Z104RuntimeInvoker_Boolean_t97287965_Int32_t2950945753_Int64U5BU5DU26_t194432655_StringU5BU5DU26_t2154486980PFvvEPK10MethodInfoPvPS4_
zug:__Z106RuntimeInvoker_RuntimeObject_Int16_t2552820387_RuntimeObject_BooleanU26_t4125257963_BooleanU26_t4125257963PFvvEPK10MethodInfoPvPS4_
uMb:__ZNK6Camera16SetActiveVRUsageEv
xqe:_Scrollbar_set_handleRect_m1170237786
evc:__ZL26Transfer_SimpleNativeClassI8JSONRead8GradientLb1EEvRK29SerializationCommandArgumentsR31RuntimeSerializationCommandInfo
CDj:_open
Zwh:_X509CrlEntry_get_SerialNumber_m3627212772
rgi:__ZN6il2cpp6icalls8mscorlib6System5Array5CloneEP11Il2CppArray
QZb:__Z30GetPlayerShouldRunInBackgroundv
ZQc:__Z13RegisterClassIN2UI6CanvasEEvv
ALi:_Mathf__cctor_m1175545152
z2d:_MonoEvent_IsDefined_m10931749
c0e:_NameValueCollection_AsSingleString_m3776180906
cza:__ZN6prcoreL12RemapGenericI11TexFormatI815TexFormatRGB565EEvPKNS_9InnerInfoE
WGd:_Int32_System_IConvertible_ToInt64_m3520470966
Gua:__ZNK13TranslateGLES17FramebufferTargetEN2gl17FramebufferTargetE
rri:__ZL11on_gc_event11GCEventType
EMe:_InternalEnumerator_1_System_Collections_IEnumerator_get_Current_m1612699335_gshared
ogf:_TlsServerHello__ctor_m3887266572
DGi:_Coroutine_ReleaseCoroutine_m809189848
XMj:b62
IMj:b61
KLj:b60
mOj:b67
lOj:b66
aNj:b65
oOj:b69
nOj:b68
Dxh:_Enumerator_get_Current_m359737019
BTa:__ZNSt3__26__treeINS_12__value_typeIi17ShadowCachingDataEENS_19__map_value_compareIiS3_NS_4lessIiEELb1EEE13stl_allocatorIS3_L18MemLabelIdentifier66ELi16EEE7destroyEPNS_11__tree_nodeIS3_PvEE
Dqd:_BitConverter_ToInt64_m349022421
ncc:__Z9SetIIMGUIP6IIMGUI
AQg:_List_1_System_Collections_IList_Add_m1142950911_gshared
hFc:_tt_cmap10_get_info
gHb:__Z28SetupPixelCorrectCoordinatesi
iac:__ZNSt3__218__insertion_sort_3IRN10vector_mapIiiNS_4lessIiEE13stl_allocatorINS_4pairIiiEEL18MemLabelIdentifier1ELi16EEE13value_compareEPS6_EEvT0_SD_T_
$ua:__Z5SplitRKN4core12basic_stringIcNS_20StringStorageDefaultIcEEEEcRNSt3__26vectorIS3_NS6_9allocatorIS3_EEEEi
VBe:_PKCS1_Sign_v15_m2719206817
uHh:_AesTransform__ctor_m3143546745
SKf:_Array_InternalArray__ICollection_Remove_TisRuntimeObject_m2110193223_gshared
krj:__ZL64EventType_t3528516131_CustomAttributesCacheGenerator_scrollWheelP21CustomAttributesCache
nMi:_Mesh_SetTangents_m1615111656
J9b:__ZN13PlayableGraph16DestroyRecursiveEP8Playable
Phi:__ZN6il2cpp2vm9Exception20GetArgumentExceptionERKNS_5utils10StringViewIDsEES6_
eWg:_Enumerator_System_Collections_IEnumerator_Reset_m1487823313_AdjustorThunk
Gde:_MethodCallDictionary__cctor_m2213329406
KH:__ZN12AudioManagerD0Ev
Xie:_InputField_set_textComponent_m2547304131
Tb:invoke_viiififii
Zwe:_SortKeyBuffer_Initialize_m3786111493
Tva:__ZN10Matrix3x3faSERK10Matrix4x4f
iBj:__ZL58IVertexModifier_t3404627876_CustomAttributesCacheGeneratorP21CustomAttributesCache
Gdb:__ZNK22GenericPropertyBinding13SetFloatValueERKN11UnityEngine9Animation10BoundCurveEf
vTf:_Encoding__cctor_m1936558127
pSg:_List_1__ctor_m163821521_gshared
jjd:_MD5_Create_m3289886172
IOi:_QualitySettings_set_vSyncCount_m3131636076
BCf:_X509Certificate_get_Subject_m2638144878
RLc:_raccess_guess_darwin_ufs_export
fEi:_AsyncOperation_Finalize_m1841265672
pKb:__ZN11TypeManager18InitializeAllTypesEv
yie:_InputField_MarkGeometryAsDirty_m817808086
Sme:_LayoutGroup_get_isRootLayoutGroup_m1082645254
FF:__ZN9AudioClipD0Ev
Fci:_il2cpp_class_from_name
JVb:__ZN13dynamic_arrayI11ActiveLightLj4EE26emplace_back_uninitializedEv
Cpe:_RectMask2D_OnDisable_m809267607
MXe:_Enumerator_MoveNext_m2602845255_AdjustorThunk
IWg:_Queue_1__ctor_m1971992302_gshared
fx:__ZN27AnimationLayerMixerPlayable26ProcessAnimationLayerBeginEP35AnimationPlayableEvaluationConstantP32AnimationPlayableEvaluationInputP33AnimationPlayableEvaluationOutput
J2b:__Z13RegisterClassI8GUILayerEvv
U0b:__ZN25ThreadsafeLinearAllocatorC2EiiPKc
SLi:_Mesh_GetIndicesImpl_m3233954035
PRd:_MonoType_GetEvent_m28975240
OCa:__ZN14GfxContextGLES11MakeCurrentER7ApiGLESN2gl13ContextHandleE
Llh:_Array_InternalArray__set_Item_TisUInt16_t2177724958_m1951465847_gshared
RLd:_MonoIO_Write_m3999708352
aKj:dynCall_viffffi
B4b:__ZZL31RegisterRectTransformPropertiesR22GenericPropertyBindingEN32Wrapper_RectTransformSizeDeltay113SetFloatValueEPvf
NQf:_Array_InternalArray__ICollection_CopyTo_TisChar_t3634460470_m3599063464_gshared
jWf:_UTF7Encoding_InternalGetChars_m2722395139
wmf:_DateTime_get_Today_m2788644320
vIb:__ZN16GraphicsSettings22WarmupPreloadedShadersEv
$Sc:__Z34Canvas_Set_Custom_PropSortingOrderP12Il2CppObjecti
Pfd:_SByte_System_IConvertible_ToSingle_m1083054891
vxh:_CostDelegate_Invoke_m898648402
cWf:_UTF7Encoding_Equals_m227704363
PHi:_DisplaysUpdatedDelegate_Invoke_m3203573844
wCb:__ZN18StreamedBinaryReadILb0EE8TransferI13dynamic_arrayI12PropertyNameLj4EEEEvRT_PKc17TransferMetaFlags
Bma:__ZN9ShaderLab4Pass6RetainEv
mBe:_KeyPairPersistence_get_ContainerName_m4274536094
Wv:__ZN7mecanim9animation22CopyAnimationNodeStateEPKNS0_18AnimationNodeStateEPS1_bbRKNS_6bitsetILj83EEE
zcb:__Z10AddGUIAxesR13dynamic_arrayI9InputAxisLj4EE
ab:invoke_iiiiiiffiiiiiiiiiffffiii
iQi:_Rect_op_Equality_m3986168348
XTe:_Enumerator_System_Collections_IDictionaryEnumerator_get_Key_m4039922590_AdjustorThunk
oOc:__ZN2UI6Canvas8TransferI14SafeBinaryReadEEvRT_
g5h:__ZN6il2cpp2gc19AppendOnlyGCHashMapIPK10Il2CppTypeP20Il2CppReflectionTypeNS_8metadata14Il2CppTypeHashENS7_26Il2CppTypeEqualityComparerEE3AddERKS4_S6_
qR:__ZN11UnityEngine15CloudWebService17CloudJobScheduler11ScheduleJobEPFvPvES2_
vxe:_SimpleCollator_IsSuffix_m1291687763
AS:__ZN11UnityEngine15CloudWebService17CloudServiceEvent12ToJsonStringER9JSONWrite
Off:_TlsClientHello__ctor_m1986768336
Lca:__ZNK18VertexChannelsInfoltERKS_
Wwg:__Z89RuntimeInvoker_Boolean_t97287965_Int32_t2950945753_Int32U26_t1369213839_Int32_t2950945753PFvvEPK10MethodInfoPvPS4_
Ncc:__Z18SetTargetFrameRatei
dtd:_Char_System_IConvertible_ToType_m4138905176_AdjustorThunk
drc:__ZN9JSONWrite8TransferIfEEvRT_PKc17TransferMetaFlags
lY:__ZNK6Camera13GetCameraRectEbb
_Oa:__ZN10MemoryFileD0Ev
Tdc:__ZN10MonoScript27InitializeAndRegisterScriptERKN4core12basic_stringIcNS0_20StringStorageDefaultIcEEEES6_S6_S6_b
Eqi:__ZN6il2cpp2os10ThreadImpl22SetNativeThreadCleanupEPFvPvE
$nf:_DateTimeOffset__cctor_m3610253033
xvf:_NumberFormatInfo_get_InvariantInfo_m349577018
Ksd:_Byte_CompareTo_m4285128861_AdjustorThunk
P9d:_ConfigHandler_ExtractAssembly_m2143791058
Rmi:__ZN6il2cpp8metadataL24RecursiveGenericDepthForEPK17Il2CppGenericInst
wUi:_Transform_GetChild_m1092972975
_pb:__ZN13GUIStyleState8TransferI14SafeBinaryReadEEvRT_
Md:_glDrawArrays
aPh:_AudioSource_get_clip_m1234340632
I5d:_ResourceCacheItem_t51292791_marshal_pinvoke_back
yTc:__Z46Register_UnityEngine_Canvas_set_sortingLayerIDv
TD:__ZN23AnimatedPropertyBuilder5BuildEP13AnimationClip18ScriptingObjectPtr
Jab:__ZN14BlendShapeData8TransferI18StreamedBinaryReadILb0EEEEvRT_
UGc:_Round_To_Grid
LFc:_UNITY_FT_Stream_Close
y0c:_EventTrigger_OnPointerClick_m1385968891
J1f:_UInt32_ToString_m4293943134_AdjustorThunk
FRi:_Renderer_get_sortingLayerID_m3902855301
c9e:_Interval_CompareTo_m3282557545_AdjustorThunk
_Qe:_Comparer_1__cctor_m1018589532_gshared
lvg:__Z54RuntimeInvoker_TimeSpan_t881159249_TimeSpan_t881159249PFvvEPK10MethodInfoPvPS4_
qga:__ZL20FormatOrderedProcessPKcP17FormatOrderedDataPc
mRf:_Array_InternalArray__ICollection_CopyTo_TisResourceCacheItem_t51292791_m766230259_gshared
LIf:_Decoder_set_Fallback_m3834517714
Mgc:__Z35DebugLogHandler_CUSTOM_Internal_Log7LogTypeP12Il2CppStringP12Il2CppObject
rca:__ZNSt3__26__treeINS_12__value_typeI18VertexChannelsInfoP16MeshVertexFormatEENS_19__map_value_compareIS2_S5_NS_4lessIS2_EELb1EEE13stl_allocatorIS5_L18MemLabelIdentifier17ELi16EEE7destroyEPNS_11__tree_nodeIS5_PvEE
Nzj:__ZL76CanvasScaler_t2767979955_CustomAttributesCacheGenerator_m_MatchWidthOrHeightP21CustomAttributesCache
VMj:_emscripten_glShaderBinary__wrapper
XBa:__ZL17ProgramUniform3ivPK7ApiGLESjiihPKv
Lud:_ArrayList_Shift_m395607654
Eqa:__ZN9GfxDevice25GetBackBufferColorSurfaceEv
rPa:__ZN25SingleBlockMemoryFileData9SetLengthEy
vac:__Z29AwakeAndActivateClonedObjectsPP6ObjectRK10vector_mapIiiNSt3__24lessIiEE13stl_allocatorINS3_4pairIiiEEL18MemLabelIdentifier1ELi16EEE
X9h:__ZN15dense_hashtableINSt3__24pairIK10KeyWrapperINS1_IPK10MethodInfoP11Il2CppClassEEEjEES9_17ReflectionMapHashIS8_EN14dense_hash_mapIS9_jSD_NS9_14EqualsComparerINS0_8equal_toIS8_EEEENS0_9allocatorISB_EEE9SelectKeyESI_SK_E14squash_deletedEv
MAe:_KeyGeneratedEventHandler_Invoke_m4131555809
H1b:__Z13RegisterClassI6ShaderEvv
iIf:_String_CharCopyReverse_m1548661297
t_c:__ZN13RuntimeStaticI11WindManagerLb0EE13StaticDestroyEPv
ysc:__Z18Transfer_BlittableI9JSONWriteLb1EaEvRK29SerializationCommandArgumentsR31RuntimeSerializationCommandInfo
S9h:__ZN13Il2CppHashMapINSt3__24pairIPK10MethodInfoP11Il2CppClassEEj17ReflectionMapHashIS7_ENS0_8equal_toIS7_EENS0_9allocatorINS1_IK10KeyWrapperIS7_EjEEEEEC2EjRKS9_RKSB_
iQb:__ZN11HaloManager11HasAnyHalosEPK11CullResults
R8a:__ZN9Texture3D23VirtualRedirectTransferER19StreamedBinaryWriteILb0EE
cxi:_GC_reclaim_block
fP:__Z13RegisterClassI10SampleClipEvv
gvg:__Z81RuntimeInvoker_Void_t1185182177_Int32_t2950945753_Int32_t2950945753_RuntimeObjectPFvvEPK10MethodInfoPvPS4_
_Sb:__ZNK23ForwardShaderRenderLoop18RenderObjectSorterILb1EEclERK21ForwardRenderPassDataS4_
exd:_CaseInsensitiveComparer__ctor_m1508720200
vZh:__ZN15dense_hashtableI10KeyWrapperIPK19Il2CppGenericMethodES4_N6il2cpp8metadata23Il2CppGenericMethodHashEN14dense_hash_setIS4_S7_NS4_14EqualsComparerINS6_26Il2CppGenericMethodCompareEEENSt3__29allocatorIS4_EEE8IdentityESB_SE_E12maybe_shrinkEv
jHa:__ZN10BufferGLES10BeginWriteEjj
tZh:__ZNK15dense_hashtableI10KeyWrapperIPK19Il2CppGenericMethodES4_N6il2cpp8metadata23Il2CppGenericMethodHashEN14dense_hash_setIS4_S7_NS4_14EqualsComparerINS6_26Il2CppGenericMethodCompareEEENSt3__29allocatorIS4_EEE8IdentityESB_SE_E12test_deletedEj
fB:__ZN7mecanim12statemachine18StateMachineMemory8TransferI9BlobWriteEEvRT_
PPa:__ZN20ArchiveStorageReader10InitializeER15FileSystemEntryyb
Ydi:__GLOBAL__sub_I_ArrayMetadata_cpp
iHa:__ZN7ApiGLES11FlushBufferEjN2gl12BufferTargetEll
cFc:_tt_cmap12_char_map_binary
Wqb:__ZN14SafeBinaryRead21TransferSTLStyleArrayI13dynamic_arrayI8BitFieldLj4EEEEvRT_17TransferMetaFlags
vDa:__ZN12_GLOBAL__N_127PrepareReadback_ResolveMSAAER18GfxFramebufferGLESR7ApiGLESP17RenderSurfaceGLESS5_
_6b:__ZNK24RendererAnimationBinding9BindValueER6ObjectRKN11UnityEngine9Animation14GenericBindingERNS3_10BoundCurveE
f$d:_TypeBuilder_has_ctor_method_m2987175843
Me:_glBindBuffer
hCb:__ZN8GUIStyle8TransferI18StreamedBinaryReadILb0EEEEvRT_
LIe:_InternalEnumerator_1_get_Current_m3500427238_gshared
uda:__ZNSt3__213__stable_sortIRN10vector_mapIijNS_4lessIiEENS_9allocatorINS_4pairIijEEEEE13value_compareENS_11__wrap_iterIPS6_EEEEvT0_SE_T_NS_15iterator_traitsISE_E15difference_typeEPNSH_10value_typeEi
zeb:__ZN10VRSettings8Daydream8TransferI18StreamedBinaryReadILb0EEEEvRT_
WWa:__ZNSt3__218__insertion_sort_3IRNS_6__lessIN4core12basic_stringIcNS2_20StringStorageDefaultIcEEEES6_EEPS6_EEvT0_SA_T_
jZe:_ValueCollection_System_Collections_Generic_ICollectionU3CTValueU3E_Remove_m1748672125_gshared
d0a:__ZNSt3__26__treeINS_12__value_typeIN9ShaderLab16FastPropertyNameEN18UnityPropertySheet11UnityTexEnvEEENS_19__map_value_compareIS3_S6_NS_4lessIS3_EELb1EEENS_9allocatorIS6_EEE7destroyEPNS_11__tree_nodeIS6_PvEE
P5g:_ReadOnlyCollection_1_System_Collections_IList_Clear_m108858531_gshared
Aqg:__Z102RuntimeInvoker_RuntimeObject_Int32_t2950945753_RuntimeObject_RuntimeObject_RuntimeObject_RuntimeObjectPFvvEPK10MethodInfoPvPS4_
vGh:_GUIUtility_set_guiIsExiting_m1558910088
Jff:_Context_Clear_m2678836033
YXd:_DerivedType_IsDefined_m3906894566
J_h:__ZN6il2cpp2vm13MetadataCache24GetExportedTypeFromIndexEi
iHg:__Z54RuntimeInvoker_Void_t1185182177_RaycastHit_t1056001966PFvvEPK10MethodInfoPvPS4_
Gqc:__ZN5Unity9rapidjson6WriterI16TempBufferWriterNS0_4UTF8IcEES4_13JSONAllocatorE9WriteUintEj
rFj:_getuid
_D:__ZN7mecanim5human8BoneNameEj
m3b:__Z13RegisterClassI10MonoScriptEvv
ILi:_Matrix4x4_GetColumn_m461504848_AdjustorThunk
WEd:_Int16_System_IConvertible_ToUInt64_m134975563_AdjustorThunk
iKc:__ZN20TextRenderingPrivate8FontImpl8TransferI18StreamedBinaryReadILb0EEEEvRT_
Nse:_ScrollRect_UpdateScrollbarVisibility_m4226977273
P0h:__ZN6il2cpp6icalls8mscorlib6System8MonoType22get_IsGenericParameterEP20Il2CppReflectionType
Du:__ZN7mecanim5human14HumanPoseClearERNS0_9HumanPoseE
Wdh:_Nullable_1_get_Value_m1801617894_gshared
XCe:_SymmetricTransform_TransformFinalBlock_m4059448527
FDd:_Convert_ToUInt16_m3216249716
B0a:__ZN18StreamedBinaryReadILb0EE19TransferSTLStyleMapINSt3__23mapIN9ShaderLab16FastPropertyNameE10ColorRGBAfNS2_4lessIS5_EENS2_9allocatorINS2_4pairIKS5_S6_EEEEEEEEvRT_17TransferMetaFlags
Eta:__ZN13GfxDeviceGLES24DrawBufferRangesPlatformEP9GfxBufferiPK18VertexStreamSourceiPK16DrawBuffersRangeiP17VertexDeclaration17ShaderChannelMaskjb
TWg:_Enumerator_System_Collections_IEnumerator_Reset_m4269083576_gshared
afe:_SoapServices_EncodeNs_m635167772
IZb:__ZN13RenderManager28AreCamerasUsingMotionVectorsEv
wca:__Z25InitializeLODGroupManagerPv
Jxh:_Mark_get_IsDefined_m2539660708
Wsa:__ZN13GfxDeviceGLES12EndStereoEyeE15StereoscopicEye
Yfd:_SByte_System_IConvertible_ToUInt64_m4151910932_AdjustorThunk
hNb:__ZNK12ImageFilters28ApplyAfterTransparentFiltersEv
DJi:_GameObject__ctor_m3707688467
$Rb:__Z20CalculateLightMatrixRK15SharedLightDataP10Matrix4x4f
mWc:__ZN11UnityEngine7Connect15AppRunningEvent12ToJsonStringER9JSONWrite
e1a:__ZN19ShaderPropertySheet5ClearEb
rzf:_RSA_Create_m4065275734
X$d:_PropertyBuilder_GetValue_m3592513194
Kwf:_CultureInfo_GetCultureInfo_m630276874
HNb:__ZNK6Camera11GetPositionEv
_s:__ZN8Animator19CreatePlayableGraphEv
P0c:_ExecuteEvents_Execute_m3952332304
BQj:_emscripten_glClearDepth__wrapper
Nmb:__ZNK16MemoryFileSystem8FilenameERK13FileEntryData
Qf:_glUniform1fv
Uf:_JS_FileSystem_Sync
xEa:__ZNSt3__26__treeINS_12__value_typeI21GLESRenderTargetSetupN2gl6HandleILNS3_10ObjectTypeE9EEEEENS_19__map_value_compareIS2_S7_NS_4lessIS2_EELb1EEENS_9allocatorIS7_EEE7destroyEPNS_11__tree_nodeIS7_PvEE
HBe:_KeyPairPersistence__IsUserProtected_m438961964
txa:__ZN4crnd11crnd_deleteINS_13prefix_coding14decoder_tablesEEEvPT_
aTe:_Enumerator_System_Collections_IDictionaryEnumerator_get_Value_m512771145_AdjustorThunk
BHf:_String_Replace_m1273907647
Mfe:_RealProxy_InternalGetProxyType_m2154819545
zDa:__ZN4gles15BlitFramebufferERNS_23BlitFramebufferDrawQuadER9GfxDeviceii9TextureIDiiiiiiii
oTd:_NumberFormatter_NumberToString_m827252518
Sf:__emscripten_sample_gamepad_data
B1b:__Z22DelayedDestroyCallbackP6ObjectPv
Luh:_PKCS12_set_Password_m4088935795
Cog:__Z96RuntimeInvoker_Void_t1185182177_SByte_t1669577662_ByteU5BU5DU26_t4057885439_Int32U26_t1369213839PFvvEPK10MethodInfoPvPS4_
Njg:__Z78RuntimeInvoker_Boolean_t97287965_RuntimeObject_RuntimeObject_SByte_t1669577662PFvvEPK10MethodInfoPvPS4_
fFi:_Camera_get_nearClipPlane_m837839537
V$:__Z34scripting_class_get_declaring_type17ScriptingClassPtr
tWc:__ZN11UnityEngine7Connect20BasePersistentValues13RestoreValuesER8JSONRead
Mcb:__ZN11TimeManagerD0Ev
AEh:_GUIUtility_Internal_GetGUIDepth_m1169824684
DL:__ZN12AudioManager33GetAudioEffectInternalDefinitionsEv
y3a:__ZN9Texture2D16DeleteGfxTextureEv
Hlb:__ZN20LocalFileSystemPosix4OpenER13FileEntryData14FilePermission16FileAutoBehavior
kke:_InputField_GetUnclampedCharacterLineFromPosition_m2611553547
M8h:__ZN6il2cpp2gc19AppendOnlyGCHashMapIPK10Il2CppTypeP20Il2CppReflectionTypeNS_8metadata14Il2CppTypeHashENS7_26Il2CppTypeEqualityComparerEEC2Ev
VVd:_CustomAttributeData_GetCustomAttributes_m2141595938
CYh:__ZN15dense_hashtableINSt3__24pairIK10KeyWrapperIN6il2cpp5utils13dynamic_arrayIPK10Il2CppTypeLj4EEEEPFvvEEESA_NS3_8metadata19Il2CppSignatureHashEN14dense_hash_mapISA_SD_SG_NSA_14EqualsComparerINSF_22Il2CppSignatureCompareEEENS0_9allocatorISE_EEE9SelectKeyESK_SM_ED2Ev
bOc:__ZN2UI6Canvas12AddToManagerEv
iEc:_UNITY_tt_face_load_sbit
F7c:_ColorTweenCallback__ctor_m2236520273
URd:_MonoType_GetMethodsByName_m2005909471
vAc:_cf2_hint_isTop
KYb:__ZN23ManagedAttributeManager21GetRequiredComponentsE17ScriptingClassPtr
Rsh:_TlsCipherSuite_ComputeServerRecordMAC_m3941098609
G7c:_ColorTween_AddOnChangedCallback_m3959760640_AdjustorThunk
xfe:_RemotingServices_Unmarshal_m3744595373
T4g:_ReadOnlyCollection_1_System_Collections_IList_get_Item_m2174806213_gshared
D_b:__Z23InitializeStdConvertersv
bSb:__ZN19ShaderPropertySheet17UpdateTextureInfoEiRK23FastTexturePropertyNamePK10TextureRef
cDf:_SecurityElement_IsValidAttributeName_m713904709
yDc:_ps_unicodes_init
DOd:_StreamWriter_Write_m2487601391
a7b:__ZN13ProduceHelperI14PlayerSettingsLb0EE7ProduceE10MemLabelId18ObjectCreationMode
PKb:__ZZ23InitPlayerLoopCallbacksvEN38PreUpdateCheckTexFieldInputRegistrator7ForwardEv
Hxa:__ZN4crnd12crn_unpacker22decode_color_endpointsEv
_ki:__ZNK10KeyWrapperINSt3__24pairIPKcS3_EEE14EqualsComparerI26NamespaceAndNamePairEqualsEclERKS5_SA_
Y0d:_FieldInfo_get_IsLiteral_m534699794
Wca:__Z34CleanupIntermediateRendererManagerPv
sxh:_X509Stores_Open_m1553467177
Pqf:_Decimal_op_Multiply_m2389849621
d2c:_PointerEventData_get_eligibleForClick_m3788762543
$xh:_MatchCollection_get_Count_m1667454419
zXf:_Monitor_Pulse_m82725344
wwf:_CultureInfo_get_NumberFormat_m1244033732
fMd:_FileStream_Dispose_m2599766137
lmd:_Array_Copy_m1988217701
yFi:_Camera_FireOnPreCull_m2869588437
gh:_JS_WebRequest_GetResponseHeaders
LFb:__ZNSt3__26__treeINS_12__value_typeI26SerializedObjectIdentifieriEENS_19__map_value_compareIS2_S3_NS_4lessIS2_EELb1EEENS_9allocatorIS3_EEE7destroyEPNS_11__tree_nodeIS3_PvEE
gDc:_otv_Script_validate
W1b:__ZN9Scripting18RaiseNullExceptionEPKcz
lfa:__ZN13RuntimeStaticI13RendererSceneLb0EE16StaticInitializeEPv
rh:_glCreateProgram
Kqe:_Scrollbar_set_numberOfSteps_m3603299569
ZRa:__ZN24GenerateTypeTreeTransfer32TransferSTLStyleArrayWithElementI17SortingLayerEntryEEvRT_17TransferMetaFlags
$Lj:_glUniformMatrix3fv__wrapper
_Wa:__ZN5Light9SetupHaloEv
gie:_Text_set_horizontalOverflow_m2473787109
Nyb:__Z18Transfer_BlittableI18StreamedBinaryReadILb1EELb1E12PropertyNameEvRK29SerializationCommandArgumentsR31RuntimeSerializationCommandInfo
s9h:__ZN15dense_hashtableINSt3__24pairIK10KeyWrapperIPK22Il2CppGenericParameterEPK24MonoGenericParameterInfoEES6_N6il2cpp5utils11PointerHashIS4_EEN14dense_hash_mapIS6_SA_SF_NS6_14EqualsComparerINS0_8equal_toIS5_EEEENS0_9allocatorISB_EEE9SelectKeyESK_SM_EC2ERKSP_j
myi:_GC_general_register_disappearing_link
K9:__ZN23TransformChangeDispatch12CleanupClassEPv
edc:__ZN8UserList11SendMessageERK17MessageIdentifier
SSc:__Z33Canvas_Get_Custom_PropScaleFactorP12Il2CppObject
CC:__ZNK26AnimatorControllerPlayable21GetStateMachineMemoryEi
yWa:__ZN17CollisionMeshData20VertexDataHasChangedEv
tyh:_PatternCompiler_Emit_m604664654
FKf:_Array_InternalArray__ICollection_Remove_TisKeyValuePair_2_t3842366416_m278128148_gshared
FSa:__ZNK6Camera16GetTargetTextureEv
dph:_Component_GetComponentsInChildren_TisRuntimeObject_m35549932_gshared
EZc:__ZNK20UnityWebRequestProtoI24UnityWebRequestTransport16AtomicRefCounter14RedirectHelper14ResponseHelper15DownloadHandler13UploadHandler12HeaderHelper14AsyncOperationE17GetUploadProgressEv
XGf:_String_CompareTo_m3030934538
nqb:__Z35Transfer_Blittable_SingleValueFieldI14SafeBinaryReadyEvRT_R17GeneralMonoObjectRK23StaticTransferFieldInfo
_Ya:__ZN8Playable20ClearInputConnectionEi
JOb:__ZN13BatchRenderer12EndLoopFlushEv
uld:_X509CertificateEnumerator_System_Collections_IEnumerator_Reset_m2928805663
nbc:__ZNK6Sprite11GetInnerUVsE20SpriteRenderDataMode
iD:__ZN11UnityEngine9Animation28DestroyAvatarBindingConstantEPNS0_21AvatarBindingConstantERN7mecanim6memory9AllocatorE
r6e:_X509ChainElementEnumerator_System_Collections_IEnumerator_get_Current_m1913555061
lFf:_Single_System_IConvertible_ToDouble_m1584722292_AdjustorThunk
TEh:_GUIStyle_Init_m3558067362
tvb:__Z29Transfer_Blittable_ArrayFieldI24GenerateTypeTreeTransfer11ColorRGBA32EvRT_R9ArrayInfoRK23StaticTransferFieldInfo
I4b:__ZN16MessageForwarder23RegisterMessageCallbackEiPFvPviR11MessageDataEPKN5Unity4TypeE
Xbf:_MD2Managed_HashFinal_m808964912
Tnf:_DateTime_op_Equality_m1022058599
cWa:__ZN4Mesh30AcquireSharedMeshRenderingDataEv
Srb:__Z35Transfer_Blittable_SingleValueFieldI14SafeBinaryReadiEvRT_R17GeneralMonoObjectRK23StaticTransferFieldInfo
ii:_emscripten_glUniform3i
qua:__ZNK7ApiGLES10GetContextEv
Kob:__Z18Transfer_BlittableI14SafeBinaryReadLb1E5RectTIfEEvRK29SerializationCommandArgumentsR31RuntimeSerializationCommandInfo
$5a:__ZN15TextureSettings14SetAnisoLimitsEii
Bg:_glGetFramebufferAttachmentParameteriv
mvb:__Z19TransferField_ArrayI24GenerateTypeTreeTransfer27Converter_SimpleNativeClassI10RectOffsetEEvRK23StaticTransferFieldInfoR31RuntimeSerializationCommandInfoRT0_
n2f:_UInt64_System_IConvertible_ToUInt32_m2784653358_AdjustorThunk
iXa:__Z40ConfigureBlockRangesWithMinIndicesPerJobP10BlockRangeii
AAa:__ZN6prcoreL17RemapGenericFloatI18TexFormatARGBFloat15TexFormatRGHalfEEvPKNS_9InnerInfoE
FEh:_GUILayout_Height_m3349769634
Fnb:__ZNSt3__26vectorI4PPtrI10MonoScriptE13stl_allocatorIS3_L18MemLabelIdentifier78ELi16EEE8__appendEj
Cme:_LayoutGroup_get_flexibleWidth_m2787597997
zKi:_LayerMask_op_Implicit_m3296792737
n7b:__ZL22PrepareMeshRenderNodesILb1EEvR35RenderNodeQueuePrepareThreadContext
imb:__ZN20LocalFileSystemPosix5TouchER13FileEntryData
Ktc:__ZN9JSONWrite8TransferI13dynamic_arrayItLj2EEEEvRT_PKc17TransferMetaFlags
zi:_emscripten_glDrawElements
YFd:_NumberFormatter_AppendDecimalString_m10636623
SEi:_Bounds_get_max_m3756577669
tzc:_cf2_blues_init
H1i:__ZL59ParameterBuilder_t1137139675_CustomAttributesCacheGeneratorP21CustomAttributesCache
tNj:_glVertexAttrib4fv__wrapper
QT:__ZN11UnityEngine15CloudWebService23WebRequestUploadHandlerD2Ev
DA:__ZN9BlobWriteD2Ev
Xob:__ZL26Transfer_SimpleNativeClassI14SafeBinaryRead8GradientLb0EEvRK29SerializationCommandArgumentsR31RuntimeSerializationCommandInfo
Yng:__Z68RuntimeInvoker_Boolean_t97287965_Int32_t2950945753_SByte_t1669577662PFvvEPK10MethodInfoPvPS4_
ERf:_Array_InternalArray__ICollection_CopyTo_TisRaycastHit2D_t2279581989_m3542049333_gshared
PUd:_Assembly_GetExecutingAssembly_m4021024968
Fje:_InputField_ClampPos_m2625258136
tWh:__ZNK15dense_hashtableINSt3__24pairIK10KeyWrapperIPKcEP11Il2CppClassEES5_N6il2cpp5utils11StringUtils12StringHasherIS4_EEN14dense_hash_mapIS5_S8_SE_NS5_14EqualsComparerINSB_13VmStringUtils21CaseSensitiveComparerEEENS0_9allocatorIS9_EEE9SelectKeyESJ_SL_E10test_emptyEj
_ge:_MessageFormatter_ReadMethodResponse_m1946725361
Kuh:_PKCS12__ctor_m1587304645
FZa:__ZN13RenderTexture23VirtualRedirectTransferER18StreamedBinaryReadILb0EE
BEc:_UNITY_tt_face_lookup_table
I$c:_BaseRaycaster_ToString_m2535186737
pqc:__ZN5Unity9rapidjson13GenericReaderINS0_4UTF8IcEES3_13JSONAllocatorE9ParseHex4INS0_25GenericInsituStringStreamIS3_EEEEjRT_
sFa:__Z17ComputeMipmapSizeiii14GraphicsFormat
Zsf:_Double_TryParseStringConstant_m3290212599
s9c:_Dropdown_OnCancel_m1495594239
oei:__ZNK15dense_hashtableINSt3__24pairIK10KeyWrapperINS1_IP11Il2CppClassjEEES4_EES6_N6il2cpp8metadata14ArrayClassHashEN14dense_hash_mapIS6_S4_SB_NS6_14EqualsComparerINSA_17ArrayClassCompareEEENS0_9allocatorIS8_EEE9SelectKeyESF_SH_E3endEv
Sxd:_CollectionBase_OnValidate_m1606907366
HMi:_MonoBehaviour_StopCoroutineViaEnumerator_Auto_m3883784228
mIc:_TT_Get_MM_Blend
pZ:__Z16realloc_internalPvjj10MemLabelId15AllocateOptionsPKci
_Dg:__Z78RuntimeInvoker_Void_t1185182177_RuntimeObject_RuntimeObject_Single_t1397266774PFvvEPK10MethodInfoPvPS4_
iSc:__Z50CanvasRenderer_CUSTOM_CreateUIVertexStreamInternalP12Il2CppObjectS0_S0_S0_S0_S0_S0_S0_S0_S0_
zea:__ZN14PlayableOutput15PrepareTraverseERK9FrameData
pDb:__ZL19RequireCorLibMethodPKcS0_S0_
s2:__ZNK5Unity9Component22GetTypeVirtualInternalEv
zyc:_UNITY_FT_Outline_Get_CBox
$l:_emscripten_get_fullscreen_status
nBa:__ZN6prcoreL26RemapGenericIntegerToFloatI17TexFormatARGB888817TexFormatRGBFloatEEvPKNS_9InnerInfoE
Rce:_MethodDictionary_SetMethodProperty_m3032369066
Wai:__ZN6il2cpp2vm14TypeNameParser26ParseTypeArgumentsOptionalERi
wWb:__ZN15LODGroupManager27GarbageCollectCameraLODDataEv
ADg:__Z139RuntimeInvoker_Void_t1185182177_RuntimeObject_Color32_t2600501292_Int32_t2950945753_Int32_t2950945753_Single_t1397266774_Single_t1397266774PFvvEPK10MethodInfoPvPS4_
MZb:__ZN13ScreenManagerC2Ev
wdg:_Enumerator_System_Collections_IEnumerator_Reset_m3289381690_gshared
Jw:__ZN7mecanim20ValueArrayBlendBeginILb1EEEvRNS_14ValueArrayMaskE
dnc:__ZN12GUIClipState20CalculateMouseValuesER10InputEvent
zub:__Z18Transfer_BlittableI24GenerateTypeTreeTransferLb0E12PropertyNameEvRK29SerializationCommandArgumentsR31RuntimeSerializationCommandInfo
mua:__ZN7ApiGLES4InitERK14GfxContextGLESR16GfxDeviceLevelGL
T7d:_RemotingServices_CreateClientProxy_m809906894
x5:__ZNK11LightProbes14LightProbeData33GetLightProbeInterpolationWeightsERK8Vector3fRiR8Vector4fRf
HNd:_Stream_Dispose_m2589290611
Cee:_ReturnMessage_get_LogicalCallContext_m2352570297
Ufa:__ZN11TypeManager36FatalErrorOnPersistentTypeIDConflictEiPKc
OV:__ZN21UnityDefaultAllocatorI17LowLevelAllocatorED0Ev
BX:__ZN8Renderer15SetIsRenderableEb
cXi:__ZL54IEnumerator_t1853284238_CustomAttributesCacheGeneratorP21CustomAttributesCache
BBa:__Z14DecodeBC7BlockP9HDRColorAPKh
pze:_BigInteger_op_RightShift_m2934036419
Y6b:__ZNK24RendererAnimationBinding12GetPPtrValueERKN11UnityEngine9Animation10BoundCurveE
uAg:__Z95RuntimeInvoker_Boolean_t97287965_RuntimeObject_TextGenerationSettings_t1351628751_RuntimeObjectPFvvEPK10MethodInfoPvPS4_
srd:_Boolean_System_IConvertible_ToSByte_m806999
Drd:_Boolean_System_IConvertible_ToUInt32_m2723177447_AdjustorThunk
AKg:__Z84RuntimeInvoker_Boolean_t97287965_RaycastResult_t3360306849_RaycastResult_t3360306849PFvvEPK10MethodInfoPvPS4_
uyi:_GC_new_proc_inner
ic:invoke_fiiffi
nwe:_MSCompatUnicodeTable_BuildTailoringTables_m1316979344
_nb:__Z35Transfer_Blittable_FixedBufferFieldI14SafeBinaryReadiEvRK29SerializationCommandArgumentsR31RuntimeSerializationCommandInfo
mNb:__ZNK25CameraStackRenderingState21IsRenderingLastCameraEv
o9f:_EqualityComparer_1_System_Collections_IEqualityComparer_Equals_m1538289377_gshared
Nya:__ZL24stbir__filter_catmullromff
WKc:__ZN20TextRenderingPrivate15GetFormatStringER11UTF16StringR13dynamic_arrayINS_16TextFormatChangeELj4EE
Z1h:__ZN6il2cpp6icalls8mscorlib6SystemL16CheckMemberMatchI9EventInfoNS_5utils10functional6FilterINSt3__212basic_stringIcNS8_11char_traitsIcEENS8_9allocatorIcEEEENS5_13VmStringUtils21CaseSensitiveComparerEEEEEbPKT_PK11Il2CppClassSN_iRKT0_
FEg:__Z83RuntimeInvoker_Boolean_t97287965_SpriteStateU26_t2382775785_SpriteState_t1362986479PFvvEPK10MethodInfoPvPS4_
tPf:_Array_LastIndexOf_TisRuntimeObject_m1677937501_gshared
GYb:__Z23ValidateScriptComponentP10MonoScriptPN4core12basic_stringIcNS1_20StringStorageDefaultIcEEEE
Vyj:__ZL68Selectable_t3250028441_CustomAttributesCacheGenerator_m_InteractableP21CustomAttributesCache
yu:__ZN7mecanim9animation12GetHumanPoseIfEEvRKNS0_18ClipMuscleConstantEPKT_RNS_5human9HumanPoseE
d8a:__ZNSt3__215__inplace_mergeIRNS_4lessI4PPtrI11SpriteAtlasEEENS_11__wrap_iterIPS4_EEEEvT0_SA_SA_T_NS_15iterator_traitsISA_E15difference_typeESE_PNSD_10value_typeEi
Dve:_Text_OnDisable_m1806889406
sua:__ZN26SinglePassStereoSupportExt27InitSinglePassStereoSupportEP21ISinglePassStereoImplP9GfxDevice
U1c:_PointerEventData_set_button_m2912797404
FV:__ZNSt3__23mapIN19CloudServiceHandler11ServiceTypeEPS1_NS_4lessIS2_EE13stl_allocatorINS_4pairIKS2_S3_EEL18MemLabelIdentifier88ELi16EEEixERS8_
EDc:_ft_get_adobe_glyph_index
nde:_MethodCall_get_GenericArguments_m1010093584
IAi:__ZNSt3__26__treeINS_12__value_typeINS_12basic_stringIcNS_11char_traitsIcEENS_9allocatorIcEEEEPFvvEEENS_19__map_value_compareIS7_SA_NS_4lessIS7_EELb1EEENS5_ISA_EEE25__emplace_unique_key_argsIS7_JRKNS_21piecewise_construct_tENS_5tupleIJOS7_EEENSL_IJEEEEEENS_4pairINS_15__tree_iteratorISA_PNS_11__tree_nodeISA_PvEEiEEbEERKT_DpOT0_
qkc:__Z47Register_UnityEngine_Texture_Internal_GetHeightv
UFf:_Single_ToString_m3947131094_AdjustorThunk
WEb:__Z25scripting_field_get_flags17ScriptingFieldPtr
swe:_MSCompatUnicodeTable_Level3_m1870873670
C4e:_X509ChainStatus_GetInformation_m245493206
uVi:_Vector3_Lerp_m407887542
o2g:_Collection_1__ctor_m2277581063_gshared
_xh:_MatchCollection__ctor_m4138850022
fse:_ScrollRect_set_verticalScrollbarSpacing_m1091218920
Wvc:__ZN8JSONRead8TransferIyEEvRT_PKc17TransferMetaFlagsb
Eob:__Z18Transfer_BlittableI14SafeBinaryReadLb0EtEvRK29SerializationCommandArgumentsR31RuntimeSerializationCommandInfo
h$h:__ZN6il2cpp2vm13MetadataCache24InitializeMethodMetadataEj
FW:__ZNK20DynamicHeapAllocatorI17LowLevelAllocatorE8ContainsEPKv
Eid:_HMAC_HashFinal_m1921180827
jnf:_DateTime__ParseString_m2913931606
gji:__ZN6il2cpp2vm14PlatformInvoke36MarshalCppStringToCSharpStringResultEPKc
dUb:__ZN8Material23GetStencilWriteMaterialEv
XDa:__Z12GetBlockSize14GraphicsFormat
MJf:_Array_InternalArray__ICollection_Contains_TisIntPtr_t_m272531112_gshared
Sfe:_RemotingProxy_get_TypeName_m4085898624
sZd:_GenericTypeParameterBuilder_not_supported_m3358960901
YRa:__ZN10TagManager8TransferI24GenerateTypeTreeTransferEEvRT_
XZg:_Collection_1_ConvertItem_m169929357_gshared
vKd:_MonoIO_GetCurrentDirectory_m762333289
Rbc:__Z35AllocExtractMeshComponentFromScriptRK4Mesh30InternalScriptingShaderChannel34InternalScriptingVertexChannelTypei
Kw:__ZN7mecanim12SetValueMaskILb1EEEvPNS_14ValueArrayMaskEb
v4f:_Dictionary_2_ContainsKey_m415531417_gshared
LRa:__ZN10TagManager23VirtualRedirectTransferER24GenerateTypeTreeTransfer
jSf:_Array_InternalArray__Insert_TisCustomAttributeNamedArgument_t287865710_m3526512389_gshared
jbg:_EqualityComparer_1__cctor_m818408565_gshared
Hya:__ZL23stbir__filter_trapezoidff
pQ:__Z44Register_UnityEngine_AudioClip_get_ambisonicv
V0f:_UInt32_System_IConvertible_ToBoolean_m1763673183
tXb:__ZN23ScriptableRenderContextD2Ev
k$i:__ZL52ArrayList_t2718874744_CustomAttributesCacheGeneratorP21CustomAttributesCache
Vfd:_SByte_System_IConvertible_ToUInt32_m4275534457
JMi:_MonoBehaviour_StopCoroutine_Auto_m820288890
U5h:__ZN15dense_hashtableINSt3__24pairIK10KeyWrapperINS1_IPK10MethodInfoP11Il2CppClassEEEjEES9_17ReflectionMapHashIS8_EN14dense_hash_mapIS9_jSD_NS9_14EqualsComparerINS0_8equal_toIS8_EEEENS0_9allocatorISB_EEE9SelectKeyESI_SK_E15insert_noresizeERKSB_
uNc:__Z32TextGenerator_CUSTOM_Dispose_cppP12Il2CppObject
Fgi:__ZN6il2cpp6icalls8mscorlib6System19ExtractWidenedValueE14Il2CppTypeEnumPv
FAf:_SHA256Managed_HashFinal_m2914312286
uJb:__ZN12GPUFencePoolC2Ev
ayi:_GC_invoke_finalizers
KHf:_String_Format_m2556382932
VSh:__ZL14adjustScale128PyS_i
prj:__ZL59EventType_t3528516131_CustomAttributesCacheGenerator_ignoreP21CustomAttributesCache
Rob:__Z18Transfer_BlittableI14SafeBinaryReadLb0E8BitFieldEvRK29SerializationCommandArgumentsR31RuntimeSerializationCommandInfo
tqh:_Array_InternalArray__get_Item_TisTimeSpan_t881159249_m1885583191_gshared
ayf:_Guid__ctor_m3421080095
B5:__ZNK10GameObject25QueryComponentByExactTypeEPKN5Unity4TypeE
aEe:_U3CGetEnumeratorU3Ec__Iterator0_System_Collections_Generic_IEnumeratorU3CTU3E_get_Current_m52354244_gshared
Z3:__ZNK9ShaderLab22ShaderStencilStateDesc17ToGfxStencilStateEPK19ShaderPropertySheetS3_RK14GfxRasterStateR15GfxStencilState
c2g:_Collection_1_Remove_m2372638279_gshared
ure:_U3CClickRepeatU3Ec__Iterator0_MoveNext_m2800364313
EFc:_tt_cmap0_char_next
CBa:__Z15DecodeBC6HBlockP9HDRColorAPKh
gFi:_Camera_get_farClipPlane_m538536689
I2b:__Z13RegisterClassI10GUIElementEvv
Bhd:_DSA_Create_m1220983153
hyi:_GC_malloc_uncollectable
pkd:_Array_Clone_m2672907798
Mmb:__ZNK16MemoryFileSystem6ParentERK13FileEntryDataRN4core12basic_stringIcNS3_20StringStorageDefaultIcEEEE
ZOd:_SynchronizedWriter_Write_m1297715977
Kad:_Graphic_get_rectTransform_m1167152468
yca:__ZN15LODGroupManagerD2Ev
khe:_ObjectReader_ReadRefTypeObjectInstance_m3311150386
_wc:__ZN8JSONRead21TransferSTLStyleArrayI13dynamic_arrayIN4math12int2_storageELj4EEEEvRT_17TransferMetaFlags
aCg:__Z115RuntimeInvoker_Boolean_t97287965_RuntimeObject_RuntimeObject_Single_t1397266774_SByte_t1669577662_Int32_t2950945753PFvvEPK10MethodInfoPvPS4_
grj:__ZL62EventType_t3528516131_CustomAttributesCacheGenerator_mouseMoveP21CustomAttributesCache
Hye:_BigInteger_op_Multiply_m3801644593
wKi:_DefaultValueAttribute_Equals_m443523471
WOa:__ZN12IFileAdapter9SetLengthER13FileEntryDatay
Kjc:__Z39SortingLayer_CUSTOM_GetLayerValueFromIDi
Kc:_Mix_PlayMusic
Clf:_DateTime_System_IConvertible_ToSByte_m4130251280
WGi:_CullingGroup_SendEvents_m2491312335
zBc:_cff_cmap_encoding_init
WYc:__Z34GetUnityWebRequestScriptingClassesv
rLj:___cxa_pure_virtual__wrapper
ZGd:_Int32_System_IConvertible_ToSByte_m3133688512_AdjustorThunk
Rm:FUNCTION_TABLE_fii
HHb:__ZN19RuntimeSceneManager24PrepareNewBootstrapSceneEv
qBg:__Z57RuntimeInvoker_Void_t1185182177_RaycastResult_t3360306849PFvvEPK10MethodInfoPvPS4_
VEi:_Bounds_op_Equality_m3322991400
L3c:_StandaloneInputModule_Process_m309156323
o5h:__ZNK15dense_hashtableINSt3__24pairIK10KeyWrapperIPK10Il2CppTypeEjEES6_N6il2cpp8metadata14Il2CppTypeHashEN14dense_hash_mapIS6_jSB_NS6_14EqualsComparerINSA_26Il2CppTypeEqualityComparerEEENS0_9allocatorIS8_EEE9SelectKeyESF_SH_E12test_deletedEj
lKa:__ZN10SpookyHash7Hash128EPKvjPyS2_
PVb:__ZL60CombineDirectionalShadowCasterCullingIndexListsAndDestroyJobP20ShadowCullingJobData
jyd:_Hashtable__ctor_m3890751112
aVi:_Vector2_ToString_m1205609053_AdjustorThunk
JCc:_otv_MarkBasePos_validate
tka:__ZN9ShaderLab18SerializedPropertyC2ERKS0_
Eyc:_cff_driver_init
vYf:_ThreadPool_QueueUserWorkItem_m1526970260
gt:__ZN17AnimationPlayable23ConnectNoTopologyChangeEPS_S0_ii
I5b:__ZN16ReflectionProbes20DidChangeActiveSceneEP10UnitySceneS1_
HHf:_String_ToUpperInvariant_m2531236323
V6a:__ZN16SpriteRenderData8TransferI14SafeBinaryReadEEvRT_
fLj:_emscripten_glVertexAttrib3f__wrapper
phd:_DESTransform_GetStrongKey_m1464830895
fkd:_RijndaelTransform_Encrypt192_m3191066202
rSe:_Enumerator_Reset_m1314900927_gshared
fmb:__ZN20LocalFileSystemPosix4CopyER13FileEntryDataS1_
ZTb:__ZL31SetRenderStateForStencilMarkingR9GfxDeviceR17ShaderPassContextjj
zPa:__ZN20ArchiveStorageReader20FillChunkCachedBlockEPNS_11CachedBlockE
t4f:_Dictionary_2_Add_m653869716_gshared
MNd:_StreamAsyncResult__ctor_m3118856368
OM:__ZN10AudioMixer16ResumeProcessingEv
Oad:_Graphic_OnBeforeTransformParentChanged_m4229077069
Qqj:__ZL53GUIUtility_t1868551600_CustomAttributesCacheGeneratorP21CustomAttributesCache
Mqb:__ZNSt3__26vectorI17AnimationCurveTplIfE13stl_allocatorIS2_L18MemLabelIdentifier1ELi16EEE7reserveEj
gQh:_TextGenerator_PopulateAlways_m1922695746
PQc:__ZN2UI13CanvasManager21EmitGeometryForCameraEP6Camera
R$:__Z31AudioFilterReadValidateCallback18ScriptingMethodPtr17ScriptingClassPtrP6Object
wie:_InputField_SetDrawRangeToContainCaretPosition_m1009661083
Fla:__ZN9ShaderLab16SerializedTagMap8TransferI19StreamedBinaryWriteILb0EEEEvRT_
iNd:_MonoIO_get_PathSeparator_m4045322458
LB:__ZN7mecanim5human30HumanPoseAdjustForMissingBonesEPKNS0_5HumanEPNS0_9HumanPoseE
S6e:_X509SubjectKeyIdentifierExtension_FromHex_m1011249985
vhi:__ZN6il2cpp6icalls8mscorlib6System9Threading6Thread25SetCachedCurrentUICultureEP12Il2CppThreadP12Il2CppObject
Vnd:_ArithmeticException__ctor_m479063094
lhe:_ObjectReader_ReadObjectInstance_m3952621118
uEc:_UNITY_FT_Bitmap_Convert
QVb:__Z22CullDirectionalShadowsR9IndexListPK9SceneNodePK4AABBR22DirectionalCullContext
xVd:_Default_BindToMethod_m490530316
CHd:_Int32_ToString_m2507389746
d3e:_X509KeyUsageExtension_ToString_m3542316380
Qjd:_RijndaelManaged__ctor_m1562735454
xff:_SslCipherSuite__ctor_m1470082018
h_h:__ZN15dense_hashtableINSt3__24pairIK10KeyWrapperIPK11Il2CppClassEPKcEES6_N6il2cpp5utils11PointerHashIS3_EEN14dense_hash_mapIS6_S9_SE_NS6_14EqualsComparerINS0_8equal_toIS5_EEEENS0_9allocatorISA_EEE9SelectKeyESJ_SL_E4findERS7_
Mne:_LayoutUtility_U3CGetMinHeightU3Em__4_m2382889764
H1f:_UInt32_ToString_m2574561716_AdjustorThunk
BU:__ZN11UnityEngine15CloudWebService14RestDownloader7OnAbortEv
Nwi:_alloc_mark_stack
RL:__ZNK11AudioSource22GetTypeVirtualInternalEv
ksa:__ZNK13GfxDeviceGLES18GetDefaultRTFormatEv
OHc:_UNITY_FT_Get_Glyph_Name
q5:__Z13VFormatBufferPciPKcPi
nvb:__Z19TransferField_ArrayI24GenerateTypeTreeTransfer27Converter_SimpleNativeClassI8GradientEEvRK23StaticTransferFieldInfoR31RuntimeSerializationCommandInfoRT0_
Qsh:_TlsCipherSuite__ctor_m3580955828
Ugg:_Enumerator_System_Collections_IEnumerator_Reset_m2355925297_AdjustorThunk
$R:__ZN11UnityEngine15CloudWebService16SessionContainer16MarkAsDispatchedERKN4core12basic_stringIcNS2_20StringStorageDefaultIcEEEE
IGe:_InternalEnumerator_1_System_Collections_IEnumerator_get_Current_m2667908392_gshared
aPb:__Z16CopyActiveLightsRK12ActiveLightsRS_
Cmc:__ZN16memory_pool_implILi28EE15AutoPoolWrapper10InitializeEPv
LNg:_List_1_System_Collections_IList_IndexOf_m3921550135_gshared
IKi:_Logger_GetString_m3669755330
jLf:_Array_InternalArray__ICollection_Remove_TisUInt64_t4134040092_m2664745791_gshared
Ykc:__Z26Transform_CUSTOM_IsChildOfP12Il2CppObjectS0_
gr:__ZN4core8hash_mapIN11UnityEngine9Animation14GenericBindingENS2_10BoundIndexENS2_25GenericBindingHashFunctorENS2_30GenericBindingValueArrayUniqueEE4findERKS3_
hzh:_PatternLinkStack_SetCurrent_m366511098
UBi:__ZNSt3__26vectorINS_12basic_stringIDsNS_11char_traitsIDsEENS_9allocatorIDsEEEENS4_IS6_EEE18__construct_at_endEj
iGi:_Color32__ctor_m4150508762_AdjustorThunk
oWf:_UTF7Decoder__ctor_m546843796
Jsf:_Double_System_IConvertible_ToUInt32_m271206838_AdjustorThunk
wpa:__ZNK13GfxDeviceGLES11GetViewportEv
Ccc:__ZN14AsyncOperation26ClearCachedScriptingObjectEv
vke:_Selectable_EvaluateAndTransitionToSelectionState_m3735354430
LHc:_UNITY_tt_face_load_cvt
ahc:__Z31GameObject_Set_Custom_PropLayerP12Il2CppObjecti
q6g:_ReadOnlyCollection_1_System_Collections_IList_Add_m1881324749_gshared
c$h:__ZL32InitializeCustomAttributesCachesPv
cQa:__ZN20ArchiveStorageReaderD0Ev
eha:__ZN6Shader23VirtualRedirectTransferER19StreamedBinaryWriteILb0EE
CYc:__ZN19TransportJavaScript7PrepareEv
tTg:_List_1_System_Collections_IList_IndexOf_m1088859899_gshared
cDh:_Uri__ctor_m3848281005
jvc:__Z35Transfer_Blittable_FixedBufferFieldI8JSONReadaEvRK29SerializationCommandArgumentsR31RuntimeSerializationCommandInfo
lmb:__ZNK20LocalFileSystemPosix20GetApplicationFolderEv
Zed:_StreamingContext_Equals_m2722903674_AdjustorThunk
bS:__ZN11UnityEngine15CloudWebService14DataDispatcher31SetupSessionContainerToDispatchEv
XCb:__Z29Transfer_Blittable_ArrayFieldI18StreamedBinaryReadILb0EE8Vector3fEvRT_R9ArrayInfoRK23StaticTransferFieldInfo
_gd:_CspParameters__ctor_m1928090281
t$a:__ZN9ShaderLab11shaderprops9GetVectorEPK19ShaderPropertySheetS3_NS_16FastPropertyNameE
pI:__ZN4FMOD12ChannelGroup10getDSPHeadEPPNS_3DSPE
yGc:_UNITY_tt_size_run_prep
LH:__ZN12AudioManager17MainThreadCleanupEv
ADf:_Evidence_CopyTo_m872435527
wmd:_SecurityParser_OnEndElement_m2088612360
R1:__ZNK6Camera18ScreenToWorldPointERK8Vector3f
ihi:__ZN6il2cpp6icalls8mscorlib6System9Threading6Thread11GetDomainIDEv
tva:__ZNK13TranslateGLES13GetFormatDescE14GraphicsFormat
tx:__ZN7mecanim9animation22MotionAddOverrideLayerEPNS0_12MotionOutputEPKS1_fbbRKNS_6bitsetILj83EEE
eNa:__ZN17ArchiveFileSystemD0Ev
Gzh:_BackslashNumber_ResolveReference_m4176908213
CIe:_InternalEnumerator_1_System_Collections_IEnumerator_get_Current_m888718134_AdjustorThunk
wwd:_SynchronizedArrayListWrapper_IndexOf_m1028529531
Qad:_GraphicRegistry_UnregisterGraphicForCanvas_m2540204166
OSb:__ZN14qsort_internal5QSortIP20ShadowCasterSortDatai26ShadowCasterSortDataSorterEEvT_S4_T0_T1_
MU:__ZN11UnityEngine15CloudWebService19SessionEventManager5StartERKN4core12basic_stringIcNS2_20StringStorageDefaultIcEEEEii
Anc:__ZN16GUIKeyboardState16SaveFromGUIStateER8GUIState
Hqb:__Z22TransferField_NonArrayI14SafeBinaryRead27Converter_SimpleNativeClassI8GradientEEvRK23StaticTransferFieldInfoR31RuntimeSerializationCommandInfoRT0_
zf:_emscripten_glBufferData
ajh:_UnityEvent_2_FindMethod_Impl_m2569180594_gshared
eQb:__Z25DoForwardShaderRenderLoopRK17RenderLoopContextR13dynamic_arrayI16RenderObjectDataLj4EERK11CullResultsbbbN6Camera10RenderFlagE
GQc:__ZZN2UI23InitializeCanvasManagerEvEN53UIEventsCanvasManagerEmitOffScreenGeometryRegistrator7ForwardEv
Df:_glUniform3iv
CMi:_Mesh_RecalculateBounds_m39931642
wNi:_Plane__ctor_m2890438515
BEh:_GUI_get_skin_m1874615010
yRg:_List_1_System_Collections_IList_Contains_m453976393_gshared
Urc:__Z18Transfer_BlittableI9JSONWriteLb0E9BoundsIntEvRK29SerializationCommandArgumentsR31RuntimeSerializationCommandInfo
m$f:_Type_GetMethod_m1197120913
eFj:_fwrite
F6d:_COMException__ctor_m3707984232
V7f:_DefaultComparer_Equals_m962817516_gshared
vyg:__Z107RuntimeInvoker_Void_t1185182177_Single_t1397266774_Single_t1397266774_Single_t1397266774_Single_t1397266774PFvvEPK10MethodInfoPvPS4_
LDb:__ZN13MonoBehaviourD0Ev
aQc:__ZN2UI6Canvas18UpdateEventIndexesEv
YGh:_SymmetricTransform_CTS_m764800021
JEj:_pipe
Huh:_SubjectAltNameExtension_ToString_m3628154311
rJi:_RenderPipelineManager_get_currentPipeline_m1638613344
jRh:_CanvasRenderer_SetPopMaterial_m2720611463
ejc:__Z50RectTransform_CUSTOM_INTERNAL_set_anchoredPositionP12Il2CppObjectRK13Vector2fIcall
ika:__ZNSt3__26vectorIN9ShaderLab19SerializedSubShaderENS_9allocatorIS2_EEE6resizeEj
Fph:_LayoutGroup_SetProperty_TisVector2_t2156229523_m2721164497_gshared
QMa:__ZN4FileC2Ev
Xug:__Z81RuntimeInvoker_Void_t1185182177_RuntimeObject_Double_t594665363_Int32_t2950945753PFvvEPK10MethodInfoPvPS4_
jAe:_BitConverterLE_UIntFromBytes_m3974925535
N_f:_Type_GetTypeFromHandle_m1620074514
$5h:__ZN15dense_hashtableINSt3__24pairIK10KeyWrapperINS1_IPK10MethodInfoP11Il2CppClassEEEjEES9_17ReflectionMapHashIS8_EN14dense_hash_mapIS9_jSD_NS9_14EqualsComparerINS0_8equal_toIS8_EEEENS0_9allocatorISB_EEE9SelectKeyESI_SK_E12maybe_shrinkEv
yRa:__ZN14BatchAllocator16AllocateInternalEPPvijjj
OJi:_GameObject_SendMessage_m3720186693
_2b:__Z13RegisterClassI6SpriteEvv
oLf:_Array_InternalArray__ICollection_Remove_TisKeyframe_t4206410242_m3222074551_gshared
Nnd:_ArgumentException_get_Message_m520762021
YFe:_InternalEnumerator_1_System_Collections_IEnumerator_get_Current_m1641466962_AdjustorThunk
aXh:__ZN14dense_hash_setI10KeyWrapperIPK17Il2CppGenericInstEN6il2cpp8metadata21Il2CppGenericInstHashENS4_14EqualsComparerINS6_24Il2CppGenericInstCompareEEENSt3__29allocatorIS4_EEEC2EjRKS7_RKSA_
W_e:_HybridDictionary_Switch_m3818192922
cwi:_min_bytes_allocd
Nzb:__ZN17AnimationCurveTplIfE15InvalidateCacheEv
Fte:_Selectable_Awake_m2577497063
LNf:_Array_compare_TisUIVertex_t4057497605_m3950502696_gshared
bmc:__Z29Mesh_Get_Custom_PropCanAccessP12Il2CppObject
D7a:__ZN6Sprite8TransferI19StreamedBinaryWriteILb0EEEEvRT_
mSe:_Enumerator_System_Collections_IEnumerator_get_Current_m2979767597_gshared
gRf:_Array_InternalArray__ICollection_CopyTo_TisLabelData_t360167391_m175414846_gshared
Eye:_BigInteger_op_Implicit_m378428706
$Mi:_PlayerConnection_DisconnectedCallback_m1697017309
Qfb:__Z14resize_trimmedINSt3__26vectorIi13stl_allocatorIiL18MemLabelIdentifier13ELi16EEEEEvRT_j
xE:__ZN7mecanim9animation18ControllerConstant15InitializeClassEv
ttf:_Enum_System_IConvertible_ToDateTime_m3823814707
uo:FUNCTION_TABLE_iiiiiiiffiiiiiiiiiffffiiii
Rsf:_Double_CompareTo_m3151899116_AdjustorThunk
_Sd:_NumberFormatter_Init_m2982613221
Ezc:_cf2_getMaxstack
BYd:_EnumBuilder_GetCustomAttributes_m166600193
lHh:_Check_Source_m4098695967
zSi:_SpaceAttribute__ctor_m2972541600
HCd:_Convert_ToInt32_m2128774575
XQe:_DefaultComparer_Compare_m297694671_gshared
HXe:_Enumerator_System_Collections_IEnumerator_Reset_m2917956982_gshared
RAc:_cff_parser_run
_xi:_GC_notify_or_invoke_finalizers
aqi:__ZN6il2cpp2os6Thread5SleepEjb
VGf:_String_Compare_m1293271421
OGd:_Int32_System_IConvertible_ToDateTime_m1824716955_AdjustorThunk
eLj:_emscripten_glUniform3f__wrapper
Hn:FUNCTION_TABLE_viiiifii
l4f:_Dictionary_2_Init_m1051918563_gshared
FMg:_List_1_set_Item_m3289315279_gshared
iHd:_Int32_CompareTo_m2864982090
Ksi:__ZN15dense_hashtableINSt3__24pairIK10KeyWrapperIPK19Il2CppGenericMethodEP10MethodInfoEES6_N6il2cpp8metadata23Il2CppGenericMethodHashEN14dense_hash_mapIS6_S9_SD_NS6_14EqualsComparerINSC_26Il2CppGenericMethodCompareEEENS0_9allocatorISA_EEE9SelectKeyESH_SJ_E4findERS7_
SRa:__ZN10TagManager23AddDefaultLayerIfNeededEv
fUa:__ZN10FlareLayer12AddToManagerEv
Jda:__ZN18AsyncUploadManagerC2E10MemLabelId
rHa:__ZNSt3__26vectorINS_4pairI5CbKeyPN19ConstantBuffersGLES11ConstBufferEEENS_9allocatorIS6_EEE21__push_back_slow_pathIKS6_EEvRT_
Cfi:__ZNK15dense_hashtableINSt3__24pairIK10KeyWrapperINS1_IP11Il2CppClassjEEES4_EES6_N6il2cpp8metadata14ArrayClassHashEN14dense_hash_mapIS6_S4_SB_NS6_14EqualsComparerINSA_17ArrayClassCompareEEENS0_9allocatorIS8_EEE9SelectKeyESF_SH_E12test_deletedEj
fdb:__ZN13BuildSettings23VirtualRedirectTransferER24GenerateTypeTreeTransfer
dvb:__ZN24GenerateTypeTreeTransfer21TransferSTLStyleArrayINSt3__26vectorI8GUIStyle13stl_allocatorIS3_L18MemLabelIdentifier1ELi16EEEEEEvRT_17TransferMetaFlags
tYe:_Enumerator_get_Current_m926428745_AdjustorThunk
rAc:_cf2_arrstack_clear
vuc:__Z18Transfer_BlittableI8JSONReadLb1E8Vector2fEvRK29SerializationCommandArgumentsR31RuntimeSerializationCommandInfo
uPa:__ZN20ArchiveStorageReader15ReadFromStorageEyyPvPy
gtf:_Double_ToString_m1051753975
fPc:__ZN2UI14CanvasRenderer23VirtualRedirectTransferER24GenerateTypeTreeTransfer
yLb:__Z16PresentAfterDrawN9GfxDevice11PresentModeE
Pwa:__ZN10DynamicVBO19FillQuadIndexBufferER21DynamicVBOChunkHandle
Evh:_PKCS12_Clone_m2085085101
kcg:_EqualityComparer_1__cctor_m3880019879_gshared
Iti:__ZN6il2cpp2vm6String8NewUtf16ERKNS_5utils10StringViewIDsEE
ocf:_MD5SHA1__ctor_m4081016482
nNj:_glGenFramebuffers__wrapper
OPj:_glBindBufferBase__wrapper
Ome:_LayoutGroup_GetAlignmentOnAxis_m1696038011
J9:__ZN23TransformChangeDispatch15InitializeClassEPv
BS:__ZN9JSONWrite8TransferIyEEvRT_PKc17TransferMetaFlags
xQb:__ZN22MotionVectorRenderLoop16PerformRenderingER8JobFence
SOj:_glTexSubImage2D__wrapper
iU:__ZN11UnityEngine15CloudWebService18RestFileDownloader13OnReceiveDataEPKvj
HGc:_UNITY_TT_RunIns
KGc:_Current_Ppem
Tqc:__ZN5Unity9rapidjson6WriterI16TempBufferWriterNS0_4UTF8IcEES4_13JSONAllocatorE10StartArrayEv
N5g:_ReadOnlyCollection_1_System_Collections_IEnumerable_GetEnumerator_m610559569_gshared
fdg:_GenericEqualityComparer_1_Equals_m3279253448_gshared
$Jj:dynCall_iiiiiiiii
Zga:__ZN6ShaderD0Ev
m2b:__ZN18BackgroundJobQueue19ScheduleJobInternalEPFvPvES0_RKNS_8JobFenceE
_mi:__ZN6il2cpp2gc8GCHandle9GetTargetEj
_Lb:__ZN25CameraStackRenderingState18EndStereoRenderingEv
Plb:__ZN20LocalFileSystemPosix9SetLengthER13FileEntryDatay
eJd:_IntPtr_op_Explicit_m1593085246
dvj:__ZL64StandaloneInputModule_t2760469101_CustomAttributesCacheGeneratorP21CustomAttributesCache
aCi:__ZN6il2cpp5utils25NativeDelegateMethodCache17GetNativeDelegateEPFvvE
hWa:__Z27ConvertSubMeshesToTrianglesItEvR13dynamic_arrayI7SubMeshLj4EERS0_IhLj1EE
ak:_emscripten_glGetProgramiv
neb:__ZN26PlayerSettingsSplashScreen8TransferI24GenerateTypeTreeTransferEEvRT_
sAa:__ZN6prcoreL17RemapGenericFloatI18TexFormatRGBAFloat14TexFormatRHalfEEvPKNS_9InnerInfoE
juf:_Environment_get_Platform_m520224871
Ysf:_FormatException__ctor_m1479314061
zg:_glScissor
Jwf:_CultureInfo_insert_into_shared_tables_m4239017467
QVc:__ZNSt3__26__treeINS_12__value_typeIN4core12basic_stringIcNS2_20StringStorageDefaultIcEEEE14CallbackArray2IRKS6_R8JSONReadEEENS_19__map_value_compareIS6_SD_NS_4lessIS6_EELb1EEE13stl_allocatorISD_L18MemLabelIdentifier6ELi16EEE7destroyEPNS_11__tree_nodeISD_PvEE
oRh:_CanvasRenderer_SplitUIVertexStreamsInternal_m3280623346
ioe:_CullStateChangedEvent__ctor_m4089558259
dth:_TlsClientSettings_set_ClientCertificate_m3374228612
SMd:_MemoryStream_Read_m337792459
iSf:_Array_InternalArray__Insert_TisRuntimeObject_m1619219378_gshared
BOd:_StreamWriter_LowLevelWrite_m1318762026
CSd:_MulticastDelegate_GetHashCode_m3864330728
xRc:__ZZN2UI14CanvasRenderer15InitializeClassEvEN38FunctorImpl_910kCanvasHierarchyChanged4CallEPviR11MessageData
YSg:_List_1_Insert_m1643593161_gshared
pog:__Z133RuntimeInvoker_Int32_t2950945753_RuntimeObject_RuntimeObject_Int32_t2950945753_Int32_t2950945753_RuntimeObject_ContextU26_t3937453398PFvvEPK10MethodInfoPvPS4_
Zqa:__ZN13GfxDeviceGLES21RegisterNativeTextureE9TextureIDi16TextureDimension
Jjc:__Z44Register_UnityEngine_Material_DisableKeywordv
hn:FUNCTION_TABLE_iiiiiiif
_pg:__Z118RuntimeInvoker_Int32_t2950945753_IntPtr_t_RuntimeObject_Int32_t2950945753_Int32_t2950945753_MonoIOErrorU26_t1548853198PFvvEPK10MethodInfoPvPS4_
kQj:_emscripten_glUniform4fv__wrapper
en:FUNCTION_TABLE_iiiiiiii
Vfa:__ZN4core8hash_mapIiP4RTTIN11TypeManager27HashFunctorPersistentTypeIDENSt3__28equal_toIiEEEixERKi
e8c:_DefaultControls_CreateUIElementRoot_m3904573408
Mxc:__ZN19ControllerHitReportD2Ev
wJe:_InternalEnumerator_1_System_Collections_IEnumerator_get_Current_m4189894603_gshared
Nzi:__ZN6il2cpp2os11MutexHandle4WaitEv
ZT:__ZN11UnityEngine15CloudWebService23WebRequestUploadHandler8GetBytesEv
eFf:_Single_System_IConvertible_ToChar_m1898259383
eza:__ZN6prcoreL12RemapGenericI11TexFormatI817TexFormatARGB4444EEvPKNS_9InnerInfoE
LRf:_Array_InternalArray__ICollection_CopyTo_TisVector2_t2156229523_m4226925582_gshared
qyf:_Guid_Equals_m1866984197_AdjustorThunk
Tdb:__ZNK14PlayerSettings22GetTypeVirtualInternalEv
c8g:_ReadOnlyCollection_1_System_Collections_IList_Insert_m2216746332_gshared
DBd:_Convert_ToChar_m2261593104
fli:__ZN15dense_hashtableINSt3__24pairIK10KeyWrapperINS1_IPKcS4_EEEiEES6_24NamespaceAndNamePairHashN14dense_hash_mapIS6_iS9_NS6_14EqualsComparerI26NamespaceAndNamePairEqualsEENS0_9allocatorIS8_EEE9SelectKeyESD_SF_EC2ERKSI_j
u_i:__ZL61ComImportAttribute_t1295173782_CustomAttributesCacheGeneratorP21CustomAttributesCache
Itf:_Enum_FormatSpecifier_X_m2932245600
tXd:_DerivedType_GetInterfaces_m2159651138
rFi:_Camera_ScreenToViewportPoint_m3569032523
lea:__ZN15DirectorManager12RegisterJobsEP13PlayableGraph
JAd:_Stack_Push_m2529252115
Hoc:__Z38Event_CUSTOM_Internal_GetMousePositionP12Il2CppObjectP13Vector2fIcall
HU:__ZN11UnityEngine15CloudWebService14DataDispatcher10InitializeERKN4core12basic_stringIcNS2_20StringStorageDefaultIcEEEEPvjRNS0_18ICloudJobSchedulerE
hYc:__ZN22CrashReportingSettingsC2Ev
zAc:_cff_free_glyph_data
uhd:_DESTransform__cctor_m244488330
tqa:__ZN13GfxDeviceGLES23ResolveDepthIntoTextureE12ObjectHandleI17RenderSurface_TagP17RenderSurfaceBaseES4_
eIf:_String_CreateString_m3400201881
Uui:__ZN6il2cpp2vm13ComObjectBaseD2Ev
lVd:_AssemblyName_OnDeserialization_m3779987437
sV:__ZN11UnityEngine15CloudWebService14DataDispatcher17PlayerLoopHandlerEv
cCd:_Convert_ToDouble_m1177445661
Lcd:_HorizontalOrVerticalLayoutGroup_set_childControlHeight_m1806657287
T7e:_Interpreter_GetString_m94448266
oRi:_RectTransform_set_offsetMin_m1512629941
kWc:__ZN11UnityEngine7Connect15AppRunningEventC2Ejjjj
Whi:__ZN6il2cpp2vm9Exception23GetInvalidCastExceptionEPKc
I$:__Z26GetManagedAttributeManagerv
bDi:__ZN6il2cpp6icalls8mscorlib6System8DateTime16GetTimeMonotonicEv
XFa:__ZN19ComputeShaderKernelC2ERKS_
xWa:__ZN4Mesh14ClearSkinCacheEv
wGd:_NumberFormatter_InitDecHexDigits_m829694854
Asc:__Z18Transfer_BlittableI9JSONWriteLb0EjEvRK29SerializationCommandArgumentsR31RuntimeSerializationCommandInfo
Phh:_UnityAction_2_BeginInvoke_m1769266175_gshared
l3h:__ZN6il2cpp2os4File10DeleteFileERKNSt3__212basic_stringIcNS2_11char_traitsIcEENS2_9allocatorIcEEEEPi
_la:__ZL15GetIndexForNameRNSt3__23mapIN4core12basic_stringIcNS1_20StringStorageDefaultIcEEEEiNS_4lessIS5_EENS_9allocatorINS_4pairIKS5_iEEEEEERSA_
Og:__exit
OL:__ZN11AudioSource13AwakeFromLoadE17AwakeFromLoadMode
cJd:_IntPtr_op_Inequality_m3063970704
STc:__ZN22BaseUnityConnectClient19OnEnterStateStoppedEv
jGb:__ZL31FindActiveTransformWithPathImplPKcR10GameObjectb
bMj:_glViewport__wrapper
ule:_InputField_get_preferredWidth_m2499328890
a5g:_ReadOnlyCollection_1_System_Collections_Generic_ICollectionU3CTU3E_Add_m3521523143_gshared
iKj:b5
gjf:_SendRecordAsyncResult__ctor_m425551707
A3i:__ZL57DispIdAttribute_t491906453_CustomAttributesCacheGeneratorP21CustomAttributesCache
bKj:b0
cKj:b1
dKj:b2
yab:__ZN4Mesh8TransferI24GenerateTypeTreeTransferEEvRT_
ekg:__Z128RuntimeInvoker_Boolean_t97287965_Int32U26_t1369213839_RuntimeObject_SByte_t1669577662_SByte_t1669577662_ExceptionU26_t3600731591PFvvEPK10MethodInfoPvPS4_
Utc:__ZN9JSONWrite8TransferI13dynamic_arrayI10ColorRGBAfLj4EEEEvRT_PKc17TransferMetaFlags
lKj:b8
mKj:b9
E0h:__ZN6il2cpp2vm21ThreadPoolCompartmentC2Ev
p0a:__Z14resize_trimmedINSt3__26vectorIN4core12basic_stringIcNS2_20StringStorageDefaultIcEEEE13stl_allocatorIS6_L18MemLabelIdentifier1ELi16EEEEEvRT_j
ZR:__ZN11UnityEngine15CloudWebService16SessionContainer13DeleteArchiveERKN4core12basic_stringIcNS2_20StringStorageDefaultIcEEEE
Atf:_Enum_System_IConvertible_ToSingle_m1234919892
I1e:_IPv6Address_Parse_m3004687047
eJc:_Vertical_Sweep_Step
z5h:__ZN15dense_hashtableINSt3__24pairIK10KeyWrapperIPK10Il2CppTypeEjEES6_N6il2cpp8metadata14Il2CppTypeHashEN14dense_hash_mapIS6_jSB_NS6_14EqualsComparerINSA_26Il2CppTypeEqualityComparerEEENS0_9allocatorIS8_EEE9SelectKeyESF_SH_E9copy_fromERKSK_j
Whh:__ZN18VirtActionInvoker2I17Scene_t2348375561S0_E6InvokeEjP12Il2CppObjectS0_S0_
NU:__ZN19CloudServiceHandler17PauseEventHandlerEb
IPc:__ZN2UI6Canvas29EncapsulateChildrenMeshBoundsEv
eoa:__ZN19ShaderPropertySheetD0Ev
Snh:_Array_Sort_TisVector3_t3722313464_TisVector3_t3722313464_m3923377973_gshared
I7f:_DefaultComparer_GetHashCode_m605456464_gshared
Zyf:_RIPEMD160Managed_HHH_m2839246531
J0f:_UInt32_Parse_m2778221109
Hub:__Z18Transfer_BlittableI24GenerateTypeTreeTransferLb0EaEvRK29SerializationCommandArgumentsR31RuntimeSerializationCommandInfo
Qke:_InputField_ProcessEvent_m2195684349
cbd:_Graphic_OnEnable_m3893553015
GR:__ZN11UnityEngine15CloudWebService18CloudServiceConfigD2Ev
JAa:__ZN6prcoreL17RemapGenericFloatI15TexFormatRGHalf15TexFormatRFloatEEvPKNS_9InnerInfoE
fkb:__ZN2UI13RectTransform8TransferI19StreamedBinaryWriteILb0EEEEvRT_
DZd:_GenericTypeParameterBuilder_GetPropertyImpl_m2584778600
hRd:_MonoCustomAttrs_IsDefinedInternal_m2193933235
