xc:_glClearStencil
b0f:_UInt16_System_IConvertible_ToChar_m2096055221_AdjustorThunk
CFi:__ZN23InterfaceActionInvoker1IP18Camera_t4157153871E6InvokeEjP11Il2CppClassP12Il2CppObjectS1_
BLf:_Array_TrueForAll_TisRuntimeObject_m1084992726_gshared
oOi:_PlayableOutputHandle_get_Null_m1200584339
hri:__ZN6il2cpp2vm5Array13GetByteLengthEP11Il2CppArray
MGh:_KeyBuilder_get_Rng_m3373220441
hxj:__ZL102Image_t2670269651_CustomAttributesCacheGenerator_Image_t2670269651____eventAlphaThreshold_PropertyInfoP21CustomAttributesCache
wYc:__ZN15DownloadHandler7OnAbortEv
zSa:__Z30GetIntermediateRendererManagerv
Ldh:_U3CCreateWhereIteratorU3Ec__Iterator1D_1_System_Collections_Generic_IEnumeratorU3CTSourceU3E_get_Current_m1909387290_gshared
Yxa:__Z21SourceMipLevelForBlitiiii
DWa:__ZN31CanvasBatchIntermediateRenderer15AddAsRenderNodeER15RenderNodeQueueRK20DeprecatedSourceData
sZf:_TimeSpan_get_Hours_m550761902
Rsj:__ZL95CanvasRenderer_t2598313366_CustomAttributesCacheGenerator_CanvasRenderer_SetMaterial_m824577244P21CustomAttributesCache
Irj:__ZL72GUISkin_t1244372282_CustomAttributesCacheGenerator_m_verticalSliderThumbP21CustomAttributesCache
Bkj:__ZL63PlayableOutputHandle_t4208053793_CustomAttributesCacheGeneratorP21CustomAttributesCache
bQd:_UnmanagedMemoryStream_Write_m930787521
yUc:__ZN11UnityEngine7Connect14AppUpdateEventD0Ev
oZi:__ZL66RuntimeArray_CustomAttributesCacheGenerator_Array_Sort_m3287581440P21CustomAttributesCache
YW:__ZdlPv
yr:__ZN11UnityEngine9Animation28GenericAnimationBindingCacheD2Ev
TWf:_UTF8Encoding_GetHashCode_m641510078
qxh:_X509Store_LoadCrl_m1881903843
Gnh:_Array_Sort_TisUICharInfo_t75501106_TisUICharInfo_t75501106_m722747892_gshared
fxd:_CaseInsensitiveComparer__ctor_m2101975011
_ng:__Z67RuntimeInvoker_Byte_t1134296376_Int32_t2950945753_Int32_t2950945753PFvvEPK10MethodInfoPvPS4_
a7a:__ZNSt3__26vectorI13dynamic_arrayI8Vector2fLj4EENS_9allocatorIS3_EEEC2INS_11__wrap_iterIPS3_EEEET_SB_RKS5_PNS_9enable_ifIXaasr21__is_forward_iteratorISB_EE5valuesr16is_constructibleIS3_NS_15iterator_traitsISB_E9referenceEEE5valueEvE4typeE
Dmg:__Z53RuntimeInvoker_UInt32_t2560061978_Decimal_t2948259380PFvvEPK10MethodInfoPvPS4_
mYb:__Z18RestoreRenderStateR20CameraRenderOldStateR17ShaderPassContext
Dyb:__Z18Transfer_BlittableI18StreamedBinaryReadILb1EELb1E5RectTIfEEvRK29SerializationCommandArgumentsR31RuntimeSerializationCommandInfo
vub:__Z18Transfer_BlittableI24GenerateTypeTreeTransferLb0E11ColorRGBA32EvRK29SerializationCommandArgumentsR31RuntimeSerializationCommandInfo
oDb:__Z25scripting_class_from_name17ScriptingImagePtrPKcS1_
vOf:_Array_InternalArray__IndexOf_TisKeyValuePair_2_t3699644050_m1021241249_gshared
rai:__ZN14dense_hash_mapI10KeyWrapperINSt3__24pairIPK12PropertyInfoP11Il2CppClassEEEj17ReflectionMapHashIS8_ENS9_14EqualsComparerINS1_8equal_toIS8_EEEENS1_9allocatorINS2_IKS9_jEEEEE15set_deleted_keyERSH_
SEb:__Z29scripting_class_enum_basetype17ScriptingClassPtr
IUg:_List_1_Clear_m3097985365_gshared
MX:__ZNK12BaseRenderer18GetRenderNodeCountEv
WNh:__ZN30GenericInterfaceActionInvoker1IP24SingleU5BU5D_t1444911251E6InvokeEPK10MethodInfoP12Il2CppObjectS1_
Coj:__ZL89Native_t2017798882_CustomAttributesCacheGenerator_Native_CSSNodeMeasureInvoke_m2055858128P21CustomAttributesCache
K$d:_PropertyBuilder_get_CanWrite_m2657562188
NPe:_InternalEnumerator_1_get_Current_m1477715453_gshared
nfg:_Enumerator__ctor_m2827156589_AdjustorThunk
Slb:__ZNK20LocalFileSystemPosix6ParentERK13FileEntryDataRN4core12basic_stringIcNS3_20StringStorageDefaultIcEEEE
lRi:_RectTransform_GetWorldCorners_m3553547973
V_g:_Collection_1_System_Collections_IList_Remove_m1476284619_gshared
bwe:_ContractionComparer__ctor_m3439667810
bSd:_MonoType_IsPrimitiveImpl_m2401722705
gAf:_SHA1CryptoServiceProvider__ctor_m4195188793
LGi:_CSSMeasureFunc_BeginInvoke_m3802154595
t9c:_Dropdown_Hide_m504034854
KLa:__ZN17PersistentManager22CheckInstanceIDsLoadedEPii
Z3a:__ZN9Texture2D25CreateScaledAndPaddedDataEPP17SharedTextureDataS2_
oVi:_Vector2_get_up_m2647420593
Cva:__ZN7ApiGLES17CopyBufferSubDataEjjlll
wRf:_Array_InternalArray__ICollection_CopyTo_TisUInt64_t4134040092_m691431926_gshared
z_g:__ZN23InterfaceActionInvoker2Ii22OrderBlock_t1585977831E6InvokeEjP11Il2CppClassP12Il2CppObjectiS0_
A1e:_IPAddress_ToString_m1181734207
_Uf:_StringBuilder_Append_m1965104174
Upc:__ZN5Unity9rapidjson15GenericDocumentINS0_4UTF8IcEE13JSONAllocatorS4_E11ParseStreamILj1ES3_NS0_25GenericInsituStringStreamIS3_EEEERS5_RT1_
lVh:__ZNSt3__26vectorIPK10Il2CppTypeNS_9allocatorIS3_EEE7reserveEj
m9f:_EqualityComparer_1__cctor_m3766928733_gshared
tQb:__ZN25CameraStackRenderingState20GetOrCreateBuiltinRTE24BuiltinRenderTextureTypeii17DepthBufferFormat19RenderTextureFormatj22RenderTextureReadWrite14VRTextureUsagei
yhh:_UnityAction_1_Invoke_m610765085_gshared
xO:__ZN11AudioModule26SetDefaultMicrophoneDriverEPv
R9e:_Kernel_modInverse_m652700340
u8a:__ZNK14Texture2DArray26CanReuploadDataToGfxDeviceEv
IUb:__ZN17PrePassRenderLoop14RenderBasePassEP13RenderTextureRK14LightingLayersR13dynamic_arrayI16RenderObjectDataLj4EERbR10MinMaxAABB
xQa:__ZN17GlobalGameManager23VirtualRedirectTransferER17RemapPPtrTransfer
JFc:_sfnt_stream_close
Jnc:__ZN5IMGUI18RepaintModalWindowER8GUIState
T_e:_HybridDictionary_get_IsSynchronized_m2987560362
i4:__ZNK15dense_hashtableINSt3__24pairIKN9ShaderLab7Program23ShaderKeywordSetAndHashEPKNS2_10SubProgramEEES4_NS3_24ShaderKeywordHashFunctorEN14dense_hash_mapIS4_S8_SA_NS0_8equal_toIS4_EE13stl_allocatorIS9_L18MemLabelIdentifier67ELi16EEE9SelectKeyESD_SG_E23find_position_with_hashERS5_j
Ivf:_CompareInfo_Finalize_m404687489
d7a:__Z23SetSpriteMeshIndexCountP14SharedMeshDataj
WWf:_UTF8Decoder_GetChars_m1236346907
yTi:_TouchScreenKeyboard_Open_m231964201
f$a:__ZN7Texture13SetFilterModeEi
ROi:_Quaternion_GetHashCode_m2636680144_AdjustorThunk
KIb:__ZNSt3__26vectorINS_4pairIiN17InstancingBatcher12PropertyTypeEEE13stl_allocatorIS4_L18MemLabelIdentifier1ELi16EEE21__push_back_slow_pathIKS4_EEvRT_
Zpj:__ZL99AudioSource_t3935305588_CustomAttributesCacheGenerator_AudioSource_t3935305588____clip_PropertyInfoP21CustomAttributesCache
Jsi:__ZN6il2cpp8metadata13GenericMethod9GetMethodEPK19Il2CppGenericMethod
mq:__ZNSt3__26vectorIN4core12basic_stringIcNS1_20StringStorageDefaultIcEEEENS_9allocatorIS5_EEE7reserveEj
IVd:_Default_SelectProperty_m1220817815
U7d:_RemotingConfiguration_IsRemotelyActivatedClientType_m4117048589
nUi:_Transform_TransformPoint_m226827784
qkh:_ListPool_1_Get_m738675669_gshared
vpa:__ZN13GfxDeviceGLES11SetViewportERK5RectTIiE
xkc:__Z24Time_Get_Custom_PropTimev
Od:_emscripten_glDepthRange
Qrh:_SslStreamBase_BeginNegotiateHandshake_m4180435790
B_b:__ZNSt3__26vectorINS_4pairIN4core12basic_stringIcNS2_20StringStorageDefaultIcEEEES6_EE13stl_allocatorIS7_L18MemLabelIdentifier38ELi16EEE12__move_rangeEPS7_SC_SC_
Fia:__Z14resize_trimmedINSt3__26vectorIN9ShaderLab20SerializedSubProgram12UAVParameterENS0_9allocatorIS4_EEEEEvRT_j
mqc:__ZN5Unity9rapidjson13GenericReaderINS0_4UTF8IcEES3_13JSONAllocatorE11ParseObjectILj1ENS0_25GenericInsituStringStreamIS3_EENS0_15GenericDocumentIS3_S4_S4_EEEEvRT0_RT1_
T3c:_StandaloneInputModule_GetRawMoveVector_m2737091079
Syj:__ZL62Selectable_t3250028441_CustomAttributesCacheGenerator_m_ColorsP21CustomAttributesCache
ysh:_SslStreamBase_EndWrite_m4073224031
I1:__ZNSt3__218__insertion_sort_3IRNS_6__lessI14ObjectLoadDataS2_EEPS2_EEvT0_S6_T_
jqj:__ZL92Event_t2956885303_CustomAttributesCacheGenerator_Event_Internal_GetMousePosition_m1101229675P21CustomAttributesCache
QNg:_List_1_System_Collections_ICollection_get_SyncRoot_m1244917400_gshared
iih:__ZN23InterfaceActionInvoker4IP12Il2CppObjectS1_S1_S1_E6InvokeEjP11Il2CppClassS1_S1_S1_S1_S1_
sxa:__ZN4crndL20crnd_default_reallocEPvjPjbS0_
fJg:__Z54RuntimeInvoker_CustomAttributeNamedArgument_t287865710PFvvEPK10MethodInfoPvPS4_
RFj:__ZNSt3__212basic_stringIcNS_11char_traitsIcEENS_9allocatorIcEEEC2ERKS5_
V7a:__ZN18SpriteAtlasManager19AddRequestingSpriteE4PPtrI6SpriteE
ikc:__Z33Texture_CUSTOM_Internal_GetHeightP12Il2CppObject
Jqj:__ZL102GUIStyle_t3956901511_CustomAttributesCacheGenerator_GUIStyle_INTERNAL_CALL_GetRectOffsetPtr_m152975056P21CustomAttributesCache
eM:__ZNK4PPtrI9AudioClipEptEv
bZe:_ValueCollection_System_Collections_ICollection_get_SyncRoot_m3381653267_gshared
G5c:_CanvasScaler_get_defaultSpriteDPI_m871626936
rXb:__ZN23ScriptableRenderContextC2Ev
icd:_GridLayoutGroup_get_spacing_m2409263614
LSa:__ZN4PPtrI13RenderTextureE8TransferI18StreamedBinaryReadILb0EEEEvRT_
WXe:_Enumerator_MoveNext_m3051926902_gshared
qig:_List_1_CheckIndex_m581273900_gshared
DHc:_UNITY_FT_Stream_GetChar
wFh:_GUIStyle_get_fixedWidth_m2576616348
Gkh:_ObjectPool_1_get_countAll_m819305395_gshared
czb:__Z18Transfer_BlittableI18StreamedBinaryReadILb1EELb1EdEvRK29SerializationCommandArgumentsR31RuntimeSerializationCommandInfo
nQg:_List_1_ToArray_m190175978_gshared
_Eb:__Z26BuildSerializationCacheFor17ScriptingClassPtrRb
W$c:_EventSystem_get_firstSelectedGameObject_m1576206896
CDa:__ZN7ApiGLES15BlitFramebufferEN2gl6HandleILNS0_10ObjectTypeE9EEENS0_15FramebufferReadES3_S3_iiiiiiiiNS0_15FramebufferTypeE
Kci:_il2cpp_class_get_name
jwg:__Z112RuntimeInvoker_RuntimeObject_RuntimeObject_RuntimeObject_RuntimeObject_RuntimeObject_RuntimeObject_RuntimeObjectPFvvEPK10MethodInfoPvPS4_
aPe:_InternalEnumerator_1_System_Collections_IEnumerator_get_Current_m3553395619_AdjustorThunk
Q$i:__ZL70AssemblyVersionCompatibility_t766556580_CustomAttributesCacheGeneratorP21CustomAttributesCache
Ood:_Array_SetValue_m3998268557
Ewc:__ZN8JSONRead8TransferI8Vector4fEEvRT_PKc17TransferMetaFlagsb
D6c:_ColorBlock_set_highlightedColor_m2089444414_AdjustorThunk
kFg:__Z59RuntimeInvoker_Boolean_t97287965_X509ChainStatus_t133602714PFvvEPK10MethodInfoPvPS4_
Czg:__Z52RuntimeInvoker_Boolean_t97287965_Vector3_t3722313464PFvvEPK10MethodInfoPvPS4_
Fhf:_Context_EndSwitchingSecurityParameters_m4148956166
HCc:_otv_PairPos_validate
K9i:__ZL63ThreadStateException_t3003788475_CustomAttributesCacheGeneratorP21CustomAttributesCache
aw:__ZN7mecanim9animation14CopyHumanPosesEPKNS0_18AnimationNodeStateEPS1_RKNS_6bitsetILj83EEE
N1h:__ZN6il2cpp6icalls8mscorlib6SystemL8IsStaticEPK12PropertyInfo
pGb:__Z9InitInputv
D9h:__ZN30dense_hashtable_const_iteratorINSt3__24pairIK10KeyWrapperIPK22Il2CppGenericParameterEPK24MonoGenericParameterInfoEES6_N6il2cpp5utils11PointerHashIS4_EEN14dense_hash_mapIS6_SA_SF_NS6_14EqualsComparerINS0_8equal_toIS5_EEEENS0_9allocatorISB_EEE9SelectKeyESK_SM_E30advance_past_empty_and_deletedEv
CEc:_UNITY_tt_face_build_cmaps
O5h:__ZN6il2cpp2gc19AppendOnlyGCHashMapINSt3__24pairIPK10MethodInfoP11Il2CppClassEEP22Il2CppReflectionMethod17ReflectionMapHashIS9_ENS2_8equal_toIS9_EEE3AddERKS9_SB_
Xmb:__ZN16MemoryFileSystem6DeleteER13FileEntryDatab
Vqg:__Z81RuntimeInvoker_Void_t1185182177_RuntimeObject_Int64_t3736567304_Int32_t2950945753PFvvEPK10MethodInfoPvPS4_
Bjg:_List_1_set_Item_m1979164443_gshared
KPf:_Array_InternalArray__ICollection_Add_TisLink_t3209266973_m77922316_gshared
oya:__ZL21BlitScaleStbImageImplRK14ImageReferenceRS_NS_10ColorSpaceE
Ard:_Boolean_System_IConvertible_ToUInt16_m3465173538_AdjustorThunk
b7i:__ZL56HashAlgorithm_t1432317219_CustomAttributesCacheGeneratorP21CustomAttributesCache
wje:_InputField_get_keyboardType_m1248105267
mqb:__Z29Transfer_Blittable_ArrayFieldI14SafeBinaryReadyEvRT_R9ArrayInfoRK23StaticTransferFieldInfo
mM:__ZN20SoundChannelInstance15setChannelGroupEPN4FMOD12ChannelGroupE
Rxh:_Match__ctor_m2425511580
P0i:__ZL63FileNotFoundException_t225391025_CustomAttributesCacheGeneratorP21CustomAttributesCache
Ugj:__ZL84Behaviour_t1437897464_CustomAttributesCacheGenerator_Behaviour_set_enabled_m20417929P21CustomAttributesCache
lc:invoke_vifffii
OBb:__Z35Transfer_Blittable_FixedBufferFieldI18StreamedBinaryReadILb0EEaEvRK29SerializationCommandArgumentsR31RuntimeSerializationCommandInfo
Fhi:__ZN6il2cpp2vm9Exception27RaiseNullReferenceExceptionEv
BOa:__ZNK25MultiBlocksMemoryFileData5CloneEv
TIe:_InternalEnumerator_1_System_Collections_IEnumerator_Reset_m3873091784_AdjustorThunk
ryi:_GC_add_ext_descriptor
d4h:__ZNK15dense_hashtableINSt3__24pairIK10KeyWrapperINS1_IPK14Il2CppAssemblyP11Il2CppClassEEEjEES9_17ReflectionMapHashIS8_EN14dense_hash_mapIS9_jSD_NS9_14EqualsComparerINS0_8equal_toIS8_EEEENS0_9allocatorISB_EEE9SelectKeyESI_SK_E23find_position_with_hashERSA_j
Aph:_LayoutGroup_SetProperty_TisSingle_t1397266774_m793506911_gshared
uzi:__ZN6il2cpp2os14WindowsRuntime22GetRestrictedErrorInfoEv
Ngd:_CryptoConfig_CreateFromName_m1538277313
HWg:_Queue_1__ctor_m263978079_gshared
GNa:__ZN17ArchiveFileSystem11CreateAsDirER13FileEntryData
SHj:dynCall_iiiiiiiiiiii
Hje:_InputField_set_caretPositionInternal_m3823580651
cWc:__ZN18UnityConnectClient16IsServiceEnabledEv
KJa:__ZN22VertexDeclarationCacheD0Ev
xte:_Selectable_set_interactable_m3105888815
RWa:__ZL26KeywordSetToStringDontSortRKNSt3__26vectorIN4core12basic_stringIcNS1_20StringStorageDefaultIcEEEENS_9allocatorIS5_EEEERS5_
gAa:__ZN6prcoreL17RemapGenericFloatI16TexFormatRGFloat17TexFormatRGBAHalfEEvPKNS_9InnerInfoE
tG:__ZN12AudioManager22CreateFMODSoundFromWWWEP10IWWWStream15FMOD_SOUND_TYPE17FMOD_SOUND_FORMATjjbbP10SampleClip
O6b:__ZNK32RendererMaterialAnimationBinding15GenerateBindingERKN4core12basic_stringIcNS0_20StringStorageDefaultIcEEEEbRN11UnityEngine9Animation14GenericBindingE
U4d:_TargetException__ctor_m4172127019
jPg:_List_1_CheckCollection_m274117203_gshared
ttj:__ZL70EventSystem_t1003666588_CustomAttributesCacheGenerator_m_FirstSelectedP21CustomAttributesCache
d_:__ZN8Remapper23GetOrGenerateInstanceIDERK26SerializedObjectIdentifier
p7c:_ColorTween_get_startColor_m3792586410_AdjustorThunk
NNa:__ZN17FileSystemHandler10AtomicMoveER13FileEntryDataS1_
Ya:invoke_iiiiiifffiiifii
Sng:__Z85RuntimeInvoker_Void_t1185182177_Int32_t2950945753_Int32_t2950945753_Int32_t2950945753PFvvEPK10MethodInfoPvPS4_
Uge:_BinaryFormatter_get_SurrogateSelector_m2111882017
kld:_X509CertificateCollection__ctor_m3365535796
xTd:_CustomInfo__ctor_m426096741
QMh:__ZL25UnresolvedVirtualCall_220P12Il2CppObjectfPK10MethodInfo
m0c:_EventSystem_ToString_m3779610692
o7a:__ZN6Sprite8TransferI24GenerateTypeTreeTransferEEvRT_
ife:_SoapTypeAttribute_get_IsInteropXmlType_m629667929
olc:__Z48Register_UnityEngine_Transform_SetAsFirstSiblingv
A1a:__ZNK18DelayedCallManager22GetTypeVirtualInternalEv
r7a:__ZN7SubMesh8TransferI24GenerateTypeTreeTransferEEvRT_
aCh:_Literal_IsComplex_m4067122560
w$h:_NativeTypeAttribute__ctor_m133676646
OJb:__ZN19GfxThreadableDevice20SetShadersThreadableEPP10GpuProgramPPK20GpuProgramParametersPKPKh
J1g:_Collection_1_System_Collections_IList_Contains_m296643274_gshared
WJd:_DirectoryInfo__ctor_m126519516
s1d:_MethodBase_GetMethodFromIntPtr_m3014201362
$_g:__ZN21InterfaceFuncInvoker1I19Color32_t2600501292iE6InvokeEjP11Il2CppClassP12Il2CppObjecti
eBh:_Reference_get_CapturingGroup_m3861468528
zng:__Z40RuntimeInvoker_TypeAttributes_t113483779PFvvEPK10MethodInfoPvPS4_
odc:__ZN9Transform23SetSiblingIndexInternalEib
XPg:_List_1_Clear_m1143167521_gshared
M0d:_AddEventAdapter__ctor_m2428277574
G3g:_Collection_1_SetItem_m794903769_gshared
nAd:_Enumerator_MoveNext_m635366482
zld:_X509Extension_Equals_m1222951829
uu:__ZN7mecanim5human12HumanPoseSubERNS0_9HumanPoseERKS1_S4_
NKg:__Z37RuntimeInvoker_Enumerator_t1789501480PFvvEPK10MethodInfoPvPS4_
Fmi:__ZN6il2cpp8metadata15GenericMetadata15GetGenericClassEiPK17Il2CppGenericInst
nud:_Char_GetTypeCode_m2433327340_AdjustorThunk
Nob:__Z18Transfer_BlittableI14SafeBinaryReadLb0E10Matrix4x4fEvRK29SerializationCommandArgumentsR31RuntimeSerializationCommandInfo
pEb:__Z24GetFixedBehaviourManagerv
$Xi:__ZL69IntPtr_t_CustomAttributesCacheGenerator_IntPtr_op_Equality_m408849716P21CustomAttributesCache
J0h:__ZN6il2cpp2vm10ThreadPool4WaitEP17Il2CppAsyncResultPPv
Eve:_Text_UpdateGeometry_m3634850647
axh:_X509Crl_VerifySignature_m1377612461
eDj:_vfprintf
goc:__ZN10GUIManager12AddGUIScriptER8ListNodeI13MonoBehaviourE
CAd:_Stack_Clear_m2010200235
X0a:__ZL13SortTexByNameRKNSt3__24pairIN9ShaderLab16FastPropertyNameEN18UnityPropertySheet11UnityTexEnvEEES7_
lzc:_cf2_getVStore
c2c:_PointerEventData_set_pointerPressRaycast_m1363193059
pOb:__ZN20DynamicPropertySheetD0Ev
w7d:_SafeHandle_Dispose_m4229010569
F_b:__ZN14SafeBinaryRead17RegisterConverterEPKcS1_PFbPvRS_E
Jlj:__ZL77RuntimePlatform_t4159857903_CustomAttributesCacheGenerator_OSXDashboardPlayerP21CustomAttributesCache
o8:__ZN35RegisterRuntimeInitializeAndCleanup8RegisterEPFvPvES2_iS0_
Guh:_SubjectAltNameExtension_get_IPAddresses_m1641002124
oZd:_FieldBuilder_SetValue_m828035213
wSf:_Array_InternalArray__Insert_TisSingle_t1397266774_m3161726127_gshared
n9g:_ReadOnlyCollection_1_System_Collections_IList_get_IsFixedSize_m733459177_gshared
wdh:__ZN28GenericInterfaceFuncInvoker0IfE6InvokeEPK10MethodInfoP12Il2CppObject
wYi:__ZL72Enum_t4135868527_CustomAttributesCacheGenerator_Enum_ToObject_m121962870P21CustomAttributesCache
$ig:__ZN23InterfaceActionInvoker2IP24ObjectU5BU5D_t2843939325iE6InvokeEjP11Il2CppClassP12Il2CppObjectS1_i
slc:__Z21Object_CUSTOM_DestroyP12Il2CppObjectf
Zlj:__ZL99SetupCoroutine_t2062820429_CustomAttributesCacheGenerator_SetupCoroutine_InvokeMoveNext_m3199342729P21CustomAttributesCache
ioa:__ZN8Material26ResetAllCachedMaterialDataEP6Shader
Nug:__Z63RuntimeInvoker_Void_t1185182177_RuntimeObject_Int16_t2552820387PFvvEPK10MethodInfoPvPS4_
PHc:_UNITY_TT_Get_MM_Var
Whe:_ObjectManager_AddFixup_m2154325362
cRe:_Comparer_1__cctor_m3761458313_gshared
eof:_DateTimeOffset_CompareTo_m1350732322_AdjustorThunk
aa:invoke_diddi
OPc:__ZNK2UI6Canvas13GetRenderModeEv
CIi:_PersistentCall__ctor_m1217622171
ANf:_Array_compare_TisCustomAttributeTypedArgument_t2723150157_m1384644047_gshared
nDe:_StrongName_get_TokenAlgorithm_m1794722022
LJd:_BinaryReader_ReadInt32_m2994982418
Ynb:__Z18Transfer_BlittableI14SafeBinaryReadLb0EiEvRK29SerializationCommandArgumentsR31RuntimeSerializationCommandInfo
Y_h:__ZN6il2cpp2vm13MetadataCache30GetPropertyDefinitionFromIndexEi
UGh:_SymmetricTransform_Transform_m1683494363
y$h:_StaticAccessorAttribute__ctor_m2905272167
EWc:__ZN22BaseUnityConnectClient17InitializeSessionERKN4core12basic_stringIcNS0_20StringStorageDefaultIcEEEES6_N19CloudServiceHandler13InitModeFlagsE
FAg:__Z74RuntimeInvoker_RuntimeObject_Int32_t2950945753_RuntimeObject_RuntimeObjectPFvvEPK10MethodInfoPvPS4_
dVg:_List_1_get_Item_m200663048_gshared
Jee:_ReturnMessage_get_Exception_m3375728265
ONj:_emscripten_glDeleteBuffers__wrapper
RKe:_InternalEnumerator_1_MoveNext_m3664960764_AdjustorThunk
Rec:__ZN13MonoBehaviour34StopCoroutineFromEnumeratorManagedE18ScriptingObjectPtr
DNg:_List_1__ctor_m1345008423_gshared
NFc:_gray_raster_reset
DDi:_Application_set_targetFrameRate_m3682352535
tVi:_Vector3__ctor_m1719387948_AdjustorThunk
ogb:__ZN30RuntimeInitializeOnLoadManager8TransferI18StreamedBinaryReadILb0EEEEvRT_
qnf:_DateTimeOffset__ctor_m2084804982
cEc:_UNITY_tt_face_load_pclt
Knb:__ZN9profiling17ScriptingProfiler31UpdateRegisteredScriptingEventsEv
lec:__ZL34GetComponentsImplementationRecurseILb1ELi0ELi2EEbR10GameObjectbRK17CompareParametersRK39GetComponentsImplementation_ReturnValue
TFa:__ZN20ComputeShaderVariantD2Ev
UKi:_Material_GetTexture_m3545614349
Elg:__Z64RuntimeInvoker_RuntimeObject_Int32_t2950945753_Int16_t2552820387PFvvEPK10MethodInfoPvPS4_
Uze:_ASN1_get_Length_m1923878580
iag:_EqualityComparer_1__cctor_m4244842342_gshared
MNb:__ZNK6Camera18WorldToScreenPointERK8Vector3fPb
iSi:_SendMouseEvents_DoSendMouseEvents_m2140870850
LCa:__Z18IsCompressedFormat14GraphicsFormat
Pu:__ZN7mecanim9animation19AdjustPoseForMotionERKNS0_14AvatarConstantERKNS0_14SkeletonTQSMapERKN4math4trsXERNS_10ValueArrayERNS_8skeleton13SkeletonPoseTIS8_EESG_
ned:_SerializationEntry_get_Name_m1530029541_AdjustorThunk
n0e:_TypeConverterAttribute_GetHashCode_m948291090
HZf:__Z33il2cpp_codegen_check_add_overflowxx
fZ:__ZNSt3__227__insertion_sort_incompleteIRPFbRKN18AwakeFromLoadQueue4ItemES4_EPS2_EEbT0_S9_T_
yAg:__Z71RuntimeInvoker_Boolean_t97287965_AnimatorControllerPlayable_t1015767841PFvvEPK10MethodInfoPvPS4_
Rlj:__ZL73RuntimePlatform_t4159857903_CustomAttributesCacheGenerator_MetroPlayerARMP21CustomAttributesCache
nJd:_InvalidOperationException__ctor_m1685032583
XYh:__ZN14dense_hash_mapI10KeyWrapperIN6il2cpp5utils13dynamic_arrayIPK10Il2CppTypeLj4EEEEPFvvENS1_8metadata19Il2CppSignatureHashENS8_14EqualsComparerINSB_22Il2CppSignatureCompareEEENSt3__29allocatorINSG_4pairIKS8_SA_EEEEE15set_deleted_keyERSJ_
n_f:_TimeSpan_op_Subtraction_m3592306516
gcg:_EqualityComparer_1_System_Collections_IEqualityComparer_GetHashCode_m1517903420_gshared
Q4a:__ZN26EnlightenSystemInformation8TransferI14SafeBinaryReadEEvRT_
tfb:__ZN24GenerateTypeTreeTransfer8TransferINSt3__26vectorIN15ResourceManager10DependencyE13stl_allocatorIS4_L18MemLabelIdentifier52ELi16EEEEEEvRT_PKc17TransferMetaFlags
nRh:_CanvasRenderer_SplitUIVertexStreams_m2753637362
bCg:__Z119RuntimeInvoker_Void_t1185182177_RuntimeObject_Single_t1397266774_Single_t1397266774_SByte_t1669577662_Int32_t2950945753PFvvEPK10MethodInfoPvPS4_
UXc:__ZN11UnityEngine15PlatformWrapper20SetPlayerPrefsUInt64ERKN4core12basic_stringIcNS1_20StringStorageDefaultIcEEEEy
Fbb:__ZN12MeshRendererD0Ev
KP:__ZN12AudioManager35GetCurrentSpatializerDefinitionNameEv
DTi:_TouchScreenKeyboard_get_active_m4267591905
$8h:__ZNK15dense_hashtableINSt3__24pairIK10KeyWrapperIPK14Il2CppAssemblyEPK22Il2CppMonoAssemblyNameEES6_N6il2cpp5utils11PointerHashIS4_EEN14dense_hash_mapIS6_SA_SF_NS6_14EqualsComparerINS0_8equal_toIS5_EEEENS0_9allocatorISB_EEE9SelectKeyESK_SM_E8min_sizeEjj
zh:_utime
Qnj:__ZL56PlayableGraph_t3515989261_CustomAttributesCacheGeneratorP21CustomAttributesCache
iBh:_BalancingGroup_Compile_m2575117193
HB:__Z28SetExposedSkeletonTransformsRKN7mecanim9animation14AvatarConstantERKN11UnityEngine9Animation30AnimatorGenericBindingConstantERKNS_8skeleton13SkeletonPoseTIN4math4trsXEEERKNSA_INSB_7affineXEEERNS5_21AvatarBindingConstantEy
Gbi:__ZNSt3__26vectorIN6il2cpp2vm17TypeNameParseInfoENS_9allocatorIS3_EEE8allocateEj
Mxh:_Mark_get_Index_m3048692661_AdjustorThunk
yth:_TlsServerSettings_get_CertificateRequest_m842655670
qn:FUNCTION_TABLE_viiiiif
IQe:_DefaultComparer_Compare_m3931992727_gshared
vn:FUNCTION_TABLE_viiiiii
EPe:_InternalEnumerator_1_System_Collections_IEnumerator_get_Current_m1847780851_AdjustorThunk
KFh:_GUILayoutUtility_get_spaceStyle_m3392862907
bHd:_Int32_System_IConvertible_ToType_m3009233912_AdjustorThunk
rnf:_DateTimeOffset__ctor_m74032857
hD:__ZN7mecanim9animation22DestroyAvatarWorkspaceEPNS0_15AvatarWorkspaceERNS_6memory9AllocatorE
g$f:_Type_type_is_assignable_from_m76737532
Doe:_MaskableGraphic_ParentMaskStateChanged_m1092090553
MUb:__ZN15LightmapSTCacheC2ER13BatchRendererR15RenderLoopStats
t1a:__ZN14PlayableOutput17SetSourcePlayableEP8Playable
F6e:_X509ExtensionCollection_get_IsSynchronized_m2607599544
xC:__ZN7mecanim9animation29MotionOutputGetDeltaTransformEPKNS0_12MotionOutputE
Gcj:__ZL64MissingFieldException_t1989070983_CustomAttributesCacheGeneratorP21CustomAttributesCache
gbh:_ReadOnlyCollection_1_System_Collections_Generic_ICollectionU3CTU3E_Add_m2369252587_gshared
$th:_ValidationResult_get_ErrorCode_m1533688152
Lkc:__Z43Transform_CUSTOM_INTERNAL_get_localRotationP12Il2CppObjectP11Quaternionf
nwf:_CultureInfo_get_Parent_m672689885
Etj:__ZL77ExecuteEvents_t3484638744_CustomAttributesCacheGenerator_U3CU3Ef__mgU24cache3P21CustomAttributesCache
stg:__Z50RuntimeInvoker_Int64_t3736567304_SByte_t1669577662PFvvEPK10MethodInfoPvPS4_
Pqj:__ZL87GUIStyle_t3956901511_CustomAttributesCacheGenerator_GUIStyle_SetDefaultFont_m1581452579P21CustomAttributesCache
ULj:_glGetShaderInfoLog__wrapper
Hhe:_ObjectReader_ReadObjectGraph_m340866276
AWe:_Transform_1_EndInvoke_m2716226219_gshared
ci:_emscripten_glGetTexParameteriv
aUc:__ZN11UnityEngine7Connect15DeviceInfoEvent7GFXInfoD2Ev
pNj:_glGenTextures__wrapper
zei:__ZN15dense_hashtableINSt3__24pairIK10KeyWrapperINS1_IP11Il2CppClassjEEES4_EES6_N6il2cpp8metadata14ArrayClassHashEN14dense_hash_mapIS6_S4_SB_NS6_14EqualsComparerINSA_17ArrayClassCompareEEENS0_9allocatorIS8_EEE9SelectKeyESF_SH_EC2EjRKSB_RKSF_RKSJ_
IVf:_UnicodeEncoding_GetHashCode_m354003420
aja:__ZN9ShaderLab20SerializedSubProgram14ConstantBufferaSERKS1_
O2b:__Z13RegisterClassI4MeshEvv
lpj:__ZL74SharedBetweenAnimatorsAttribute_t2857104338_CustomAttributesCacheGeneratorP21CustomAttributesCache
fuf:_Enum_Equals_m3617313991
Uyg:__Z98RuntimeInvoker_Boolean_t97287965_PlayableOutputHandle_t4208053793_PlayableOutputHandle_t4208053793PFvvEPK10MethodInfoPvPS4_
vEg:__Z74RuntimeInvoker_Boolean_t97287965_LineTypeU26_t2430394419_Int32_t2950945753PFvvEPK10MethodInfoPvPS4_
S_a:__ZN8PlayableD0Ev
wg:emscriptenWebGLGetBufferBinding
YH:__ZN12AudioManager8TransferI19StreamedBinaryWriteILb0EEEEvRT_
_te:_Slider_UpdateCachedReferences_m3259451627
dsh:_SslStreamBase_get_KeyExchangeStrength_m217695965
htg:__Z50RuntimeInvoker_Double_t594665363_Double_t594665363PFvvEPK10MethodInfoPvPS4_
Qrg:__Z60RuntimeInvoker_Void_t1185182177_StreamingContext_t3711869237PFvvEPK10MethodInfoPvPS4_
Uzb:__ZN18StreamedBinaryReadILb1EE21TransferSTLStyleArrayI13dynamic_arrayI11ColorRGBA32Lj4EEEEvRT_17TransferMetaFlags
rfi:__ZN15dense_hashtableINSt3__24pairIK10KeyWrapperINS1_IP11Il2CppClassjEEES4_EES6_N6il2cpp8metadata14ArrayClassHashEN14dense_hash_mapIS6_S4_SB_NS6_14EqualsComparerINSA_17ArrayClassCompareEEENS0_9allocatorIS8_EEE9SelectKeyESF_SH_E6insertERKS8_
Q9c:_U3CShowU3Ec__AnonStorey1_U3CU3Em__0_m2340880019
lte:_Selectable_OnSetProperty_m1693943217
mig:_List_1_GetIndex_m2300811709_gshared
N6b:__ZNK32RendererMaterialAnimationBinding12GetPPtrValueERKN11UnityEngine9Animation10BoundCurveE
ZAb:__Z18Transfer_BlittableI18StreamedBinaryReadILb0EELb0E8Vector2fEvRK29SerializationCommandArgumentsR31RuntimeSerializationCommandInfo
GIf:_ASCIIEncoding_GetString_m58523364
dRc:__ZN2UI11CanvasGroup12CleanupClassEv
Vth:_TlsStream_Flush_m3793197834
ijg:_List_1_GetIndex_m2832472557_gshared
Alb:__ZN22LocalFileSystemHandler9MakeLocalER13FileEntryDatab
hui:__ZN6il2cpp2vm8Profiler10AllocationEP12Il2CppObjectP11Il2CppClass
Lwj:__ZL61Graphic_t1660335611_CustomAttributesCacheGenerator_m_MaterialP21CustomAttributesCache
kMc:__ZNSt3__23mapIN20TextRenderingPrivate7FontRefENS1_6OSFontENS_4lessIS2_EENS_9allocatorINS_4pairIKS2_S3_EEEEEixERS8_
pga:__Z13FormatOrderedPKcz
x2h:__ZN6il2cpp2vm8basepathEPKc
Z4e:_X509Chain_GetAuthorityKeyIdentifier_m614536199
KJc:__ZN14SafeBinaryRead21TransferSTLStyleArrayI10vector_mapINSt3__24pairIttEEfN20TextRenderingPrivate8FontImpl14KerningCompareENS2_9allocatorINS3_IS4_fEEEEEEEvRT_17TransferMetaFlags
sgf:_TlsServerFinished__ctor_m1445633918
yFd:_NumberFormatter_FastIntegerToString_m390846811
Bti:__ZN6il2cpp2vm6String21InitializeEmptyStringEP11Il2CppClass
SBe:_PKCS1_RSASP1_m3912327535
xUb:__ZN25DeferredRenderLoopScratchD0Ev
Sw:__ZN27AnimationLayerMixerPlayable14SetInputWeightEif
H1c:_PhysicsRaycaster_Raycast_m776323695
OUi:_UnityException__ctor_m1456865679
qu:__ZN7mecanim9animation17EvaluateHumanPoseERKNS0_18ClipMuscleConstantERKNS0_15ClipMuscleInputEPKfRKNS0_12MotionOutputERNS_5human9HumanPoseE
muj:__ZL92PointerEventData_t3807901092_CustomAttributesCacheGenerator_U3CscrollDeltaU3Ek__BackingFieldP21CustomAttributesCache
kia:__ZN15dense_hashtableINSt3__24pairIKiN4core17string_with_labelILi1EEEEEi18SInt32HashFunctionN14dense_hash_mapIiS5_S7_NS0_8equal_toIiEE13stl_allocatorIS6_L18MemLabelIdentifier1ELi16EEE9SelectKeyESA_SD_E9copy_fromERKSG_j
gWd:_CustomAttributeNamedArgument_GetHashCode_m2317130892
Qeb:__ZN15ResourceManagerD0Ev
gag:_EqualityComparer_1_get_Default_m990790318_gshared
pge:_WellKnownClientTypeEntry_ToString_m1119458503
v4:__ZN22CreateGpuProgramOutputD2Ev
gUg:_List_1_get_Item_m1378751541_gshared
qwb:__Z18Transfer_BlittableI19StreamedBinaryWriteILb0EELb1EsEvRK29SerializationCommandArgumentsR31RuntimeSerializationCommandInfo
a7i:__ZL52HMACSHA512_t923916539_CustomAttributesCacheGeneratorP21CustomAttributesCache
qZe:_ValueCollection_CopyTo_m2188334703_gshared
iRi:__ZN23InterfaceActionInvoker1IP25RectTransform_t3704657025E6InvokeEjP11Il2CppClassP12Il2CppObjectS1_
iAf:_SHA1CryptoServiceProvider_Finalize_m1793183797
Sbj:__ZL78Convert_t2465617642_CustomAttributesCacheGenerator_Convert_ToUInt64_m409548990P21CustomAttributesCache
Ndg:_HashSet_1_System_Collections_Generic_ICollectionU3CTU3E_CopyTo_m408073502_gshared
Kcf:_EncryptedPrivateKeyInfo_get_EncryptedData_m491452551
Lkb:__ZN12HandlerChain4OpenER13FileEntryData14FilePermission16FileAutoBehavior
WHg:__Z72RuntimeInvoker_Void_t1185182177_Int32_t2950945753_RaycastHit_t1056001966PFvvEPK10MethodInfoPvPS4_
sbj:__ZL79Convert_t2465617642_CustomAttributesCacheGenerator_Convert_ToUInt16_m1147931813P21CustomAttributesCache
S5h:__ZN15dense_hashtableINSt3__24pairIK10KeyWrapperINS1_IPK10MethodInfoP11Il2CppClassEEEjEES9_17ReflectionMapHashIS8_EN14dense_hash_mapIS9_jSD_NS9_14EqualsComparerINS0_8equal_toIS8_EEEENS0_9allocatorISB_EEE9SelectKeyESI_SK_E6insertERKSB_
JWf:_UTF8Encoding_GetCharCount_m2272165989
Mod:_Array_SetValue_m394135409
a1:__ZN14FileCacherReadD2Ev
Ohb:__ZN13RendererScene23UpdatePreviousFrameDataEii
xHf:_String_Remove_m562998446
Jgc:__Z50Register_UnityEngine_CullingGroup_FinalizerFailurev
jrh:_Mesh_GetAllocArrayFromChannel_TisVector2_t2156229523_m1057679375_gshared
XCf:_SecurityPermission_IsSubsetOf_m545000671
wib:__ZN27UnloadUnusedAssetsOperationD0Ev
Jx:__ZN26AnimatorControllerPlayable6MemoryD2Ev
QFj:__ZNKSt3__221__basic_string_commonILb1EE20__throw_out_of_rangeEv
dHi:_Cursor_get_lockState_m2828192107
jog:__Z78RuntimeInvoker_Boolean_t97287965_RuntimeObject_RuntimeObject_Int32_t2950945753PFvvEPK10MethodInfoPvPS4_
r2h:_UpdatedEventHandler_Invoke_m1320302085
Kki:__ZNK15dense_hashtableINSt3__24pairIK10KeyWrapperIP14Il2CppIUnknownEjEES5_N6il2cpp5utils11PointerHashIS3_EEN14dense_hash_mapIS5_jSB_NS5_14EqualsComparerINS0_8equal_toIS4_EEEENS0_9allocatorIS7_EEE9SelectKeyESG_SI_E12test_deletedERK24dense_hashtable_iteratorIS7_S5_SB_SK_SG_SI_E
LF:__ZN9AudioClip23VirtualRedirectTransferER18StreamedBinaryReadILb0EE
EUg:_List_1_AddEnumerable_m2724989594_gshared
oma:__ZNSt3__26vectorIPN9ShaderLab9SubShaderENS_9allocatorIS3_EEE21__push_back_slow_pathIKS3_EEvRT_
GVg:_List_1_Contains_m2043463915_gshared
dBg:__Z82RuntimeInvoker_Vector2_t2156229523_Vector2_t2156229523_RuntimeObject_RuntimeObjectPFvvEPK10MethodInfoPvPS4_
tHa:__ZN18GlslGpuProgramGLESC2ERK13dynamic_arrayIhLj1EER22CreateGpuProgramOutput
tmc:__Z70Register_UnityEngine_Playables_PlayableHandle_GetPlayableType_Injectedv
wIb:__ZNK4PPtrI23ShaderVariantCollectionEcvPS0_Ev
Dbf:_ARC4Managed_TransformBlock_m1687647868
Ej:_glCopyTexSubImage2D
V6b:__ZNK24RendererAnimationBinding13GetFloatValueERKN11UnityEngine9Animation10BoundCurveE
PT:__ZNK15DownloadHandler14HasPendingDataEv
TUi:_UnitySynchronizationContext_ExecuteTasks_m1310741010
Qyf:_RIPEMD160Managed_CompressFinal_m497690796
VZb:__ZN18ScreenManagerWebGL13SetShowCursorEb
oHe:_InternalEnumerator_1_MoveNext_m1773160976_gshared
PJb:__ZN13DrawImmediateC2ER9GfxDevice
pDj:_frexp
daf:_Kernel_MultiplyMod2p32pmod_m451690680
Job:__Z18Transfer_BlittableI14SafeBinaryReadLb0E5RectTIfEEvRK29SerializationCommandArgumentsR31RuntimeSerializationCommandInfo
yId:_NumberFormatter_NumberToString_m2562899600
yBf:_SymmetricAlgorithm_get_FeedbackSize_m3666584308
PCc:_otv_u_C_x_Ox
iua:__ZN14GfxContextGLES14GetFramebufferEv
dOj:_emscripten_glGenVertexArrays__wrapper
x3f:_Version_Clone_m1749041863
lVe:_ShimEnumerator_get_Key_m4155849607_gshared
Tya:__ZN6prcoreL21CreateRemapAnyBlitterE13TextureFormatS0_
gdf:_RSAManaged_ExportParameters_m1754454264
tcc:__ZN17AnimationCurveTplIfE16StripInvalidKeysEv
Nrd:_Boolean_Equals_m535526264_AdjustorThunk
_Jg:__Z71RuntimeInvoker_KeyValuePair_2_t71524366_Int32_t2950945753_RuntimeObjectPFvvEPK10MethodInfoPvPS4_
VPc:__ZNK2UI6Canvas17GetSortingLayerIDEv
zrd:_Convert_ToUInt16_m3116648921
gYi:__ZL40UIntPtr_t_CustomAttributesCacheGeneratorP21CustomAttributesCache
Ddi:_il2cpp_method_has_attribute
G2b:__Z13RegisterClassI17GlobalGameManagerEvv
n6:__ZN8Renderer24SetupNewRendererForSceneEv
b$f:_Type_internal_from_name_m1721940673
coh:_Array_swap_TisCustomAttributeTypedArgument_t2723150157_TisCustomAttributeTypedArgument_t2723150157_m365781156_gshared
muf:_Environment_get_TickCount_m2088073110
kde:_RemotingServices_GetMethodBaseFromName_m3194612939
Ouc:__Z35Transfer_Blittable_FixedBufferFieldI8JSONReadtEvRK29SerializationCommandArgumentsR31RuntimeSerializationCommandInfo
XTa:__ZN4PPtrI7TextureE8TransferI14SafeBinaryReadEEvRT_
D9b:__ZN14PlayableOutput6HandleEv
N6a:__ZNK6Sprite22GetTypeVirtualInternalEv
m_c:__ZN13RuntimeStaticINSt3__26vectorI23UnityVRDeviceDefinition13stl_allocatorIS2_L18MemLabelIdentifier90ELi16EEEELb0EE13StaticDestroyEPv
pn:FUNCTION_TABLE_iiiiiiiiiiiiii
pYc:__ZN19UnityConnectService18OnPlayerQuitStaticEPS_
GDc:_UNITY_tt_get_cmap_info
Bkf:_SslClientStream_RaiseServerCertificateValidation_m3477149273
vvb:__Z29Transfer_Blittable_ArrayFieldI24GenerateTypeTreeTransfer5RectTIiEEvRT_R9ArrayInfoRK23StaticTransferFieldInfo
UXa:__ZN16ReflectionProbes8ScheduleEN18ReflectionProbeJob7JobTypeEP15ReflectionProbei
wgf:_ClientSessionInfo_KeepAlive_m1020179566
dQc:__ZN13dynamic_arrayIN2UI13UIInstructionELj4EE12emplace_backEv
XVg:_List_1_ToArray_m4056539300_gshared
$$i:__ZL51Calendar_t1661121569_CustomAttributesCacheGeneratorP21CustomAttributesCache
qMa:__Z18IsDirectoryCreatedRKN4core12basic_stringIcNS_20StringStorageDefaultIcEEEE
KCf:_String_FormatHelper_m3913915042
UOc:__ZN2UI13CanvasManagerD2Ev
NVd:_ConstructorInfo__cctor_m1016079270
gWh:__ZN15dense_hashtableINSt3__24pairIK10KeyWrapperIPKcEP11Il2CppClassEES5_N6il2cpp5utils11StringUtils12StringHasherIS4_EEN14dense_hash_mapIS5_S8_SE_NS5_14EqualsComparerINSB_13VmStringUtils21CaseSensitiveComparerEEENS0_9allocatorIS9_EEE9SelectKeyESJ_SL_E15set_deleted_keyERKS9_
dCg:__Z38RuntimeInvoker_ContentType_t1787303396PFvvEPK10MethodInfoPvPS4_
Fmd:_AttrListImpl_get_Names_m977594476
e6i:__ZL53IFormatter_t3549834567_CustomAttributesCacheGeneratorP21CustomAttributesCache
NLc:_UNITY_FT_GlyphLoader_Done
Mqj:__ZL89GUIStyle_t3956901511_CustomAttributesCacheGenerator_GUIStyle_get_stretchWidth_m3556443132P21CustomAttributesCache
M4d:_Pointer_Box_m389276611
asf:_StackTrace_get_FrameCount_m344690939
QPd:_UnexceptionalStreamWriter_Write_m363195622
kWb:__ZNK21IntermediateRenderers16GetBoundingBoxesEv
iMc:__ZN20TextRenderingPrivate25ReadFontFileAndAddToCacheERKN4core12basic_stringIcNS0_20StringStorageDefaultIcEEEE
HEc:_tt_cmap14_char_var_index
XBb:__Z35Transfer_Blittable_FixedBufferFieldI18StreamedBinaryReadILb0EEdEvRK29SerializationCommandArgumentsR31RuntimeSerializationCommandInfo
uke:_Selectable_OnPointerDown_m1086067264
SIc:_psh_globals_new
i9c:_Dropdown_SetupTemplate_m628218778
aXf:_Thread_GetCompressedStack_m2923422412
Vdf:__ZN28GenericInterfaceFuncInvoker2IbP26X509Certificate_t713131622P22Int32U5BU5D_t385246372E6InvokeEPK10MethodInfoP12Il2CppObjectS1_S3_
Dwd:_SynchronizedArrayListWrapper_CopyTo_m4207791406
m3e:_X509BasicConstraintsExtension_ToString_m1809935297
Hoa:__ZN9GfxDevice20SetMaxBufferedFramesEi
bkh:_TweenRunner_1_StartTween_m1055628540_gshared
v6g:_ReadOnlyCollection_1_System_Collections_IList_Remove_m4129318771_gshared
mph:_GameObject_GetComponents_TisRuntimeObject_m1246177135_gshared
KK:__ZN24AudioScriptBufferManagerD2Ev
gIj:dynCall_vdd
zQd:_MethodAccessException__ctor_m3542088436
_$b:__Z23ConvertIntegerToTypePtrIsEbPvR14SafeBinaryRead
ovd:_ArrayListWrapper_get_Capacity_m51087796
$le:_LayoutElement_get_minHeight_m4160507569
x9f:_EqualityComparer_1_System_Collections_IEqualityComparer_GetHashCode_m2230215241_gshared
Szj:__ZL60ContentSizeFitter_t3850442145_CustomAttributesCacheGeneratorP21CustomAttributesCache
Lyd:_Hashtable_Contains_m2145146412
jgj:__ZL64UnmarshalledAttribute_t1517743549_CustomAttributesCacheGeneratorP21CustomAttributesCache
zbc:__ZN4Mesh24UpdateSubMeshVertexRangeEi
mJi:_MaterialEffectPlayable_Equals_m3750885802
a4h:__ZNK15dense_hashtableINSt3__24pairIK10KeyWrapperINS1_IPK14Il2CppAssemblyP11Il2CppClassEEEjEES9_17ReflectionMapHashIS8_EN14dense_hash_mapIS9_jSD_NS9_14EqualsComparerINS0_8equal_toIS8_EEEENS0_9allocatorISB_EEE9SelectKeyESI_SK_E12test_deletedEj
oBi:__ZN6il2cpp2os9FastMutex4LockEv
nFd:_Int32_FindCurrency_m3541026887
b9e:_Interval_CompareTo_m3282557545
bPj:_pthread_cond_wait__wrapper
KTb:__ZNK14RenderSettings19GetFlatAmbientColorEv
tya:__ZN6prcoreL10inner_flipILj4EEEvPhS1_j
ydb:__ZN18StreamedBinaryReadILb0EE21TransferSTLStyleArrayI10vector_mapIPKN5Unity4TypeE7Hash128NSt3__24lessIS6_EENS8_9allocatorINS8_4pairIS6_S7_EEEEEEEvRT_17TransferMetaFlags
Py:__ZNK27StateMachineBehaviourPlayer15IsSenderEnabledEv
tzj:__ZL58Text_t1901882714_CustomAttributesCacheGenerator_m_FontDataP21CustomAttributesCache
KZd:_GenericTypeParameterBuilder_IsPrimitiveImpl_m1952010459
a6g:_ReadOnlyCollection_1_CopyTo_m3474153465_gshared
akd:_RijndaelManagedTransform_TransformBlock_m1610137419
ilc:__Z40Register_UnityEngine_Transform_SetParentv
c8i:__ZL94WindowsIdentity_t2948242406_CustomAttributesCacheGenerator_WindowsIdentity_Dispose_m3466258450P21CustomAttributesCache
C8a:__ZN14Texture2DArray17UploadToGfxDeviceEv
FJ:__Z14FMODMemoryFreePvjPKc
elj:__ZL100RectTransform_t3704657025_CustomAttributesCacheGenerator_RectTransform_INTERNAL_get_rect_m3130887130P21CustomAttributesCache
Qgg:_Enumerator__ctor_m2029608698_gshared
vIi:_NetFxCoreExtensions_GetMethodInfo_m444570327
PRb:__Z14SetSHConstantsR13BatchRendererR17ShaderPassContextRK20SphericalHarmonicsL2b
mtd:_Char_System_IConvertible_ToDecimal_m3534906463
Szc:_cf2_glyphpath_moveTo
FTg:_List_1_AddCollection_m1469681717_gshared
R_i:__ZL86MSCompatUnicodeTable_t1453885583_CustomAttributesCacheGenerator_U3CU3Ef__switchU24map4P21CustomAttributesCache
SSi:_StackTraceUtility_SetProjectFolder_m830524047
qv:__ZN7mecanim23TransformValueArrayLoopEiiiRKN4math4trsXES3_RNS_10ValueArrayEf
Lgf:_ClientSessionInfo_Finalize_m2165787049
boc:__ZN5IMGUI14GUIWindowStateD2Ev
Iff:_ClientContext_Clear_m1774063253
Lbc:__ZN4Mesh17SetIndicesComplexEPKvjj16GfxPrimitiveTypeij
Imf:_DateTime_AddSeconds_m332574389_AdjustorThunk
BUi:_RequestAtlasCallback_Invoke_m378128467
usd:_Byte_System_IConvertible_ToSByte_m1869482168
irg:__Z99RuntimeInvoker_RuntimeObject_RuntimeObject_RuntimeObject_StreamingContext_t3711869237_RuntimeObjectPFvvEPK10MethodInfoPvPS4_
JB:__ZN7mecanim5human10RetargetToEPKNS0_5HumanEPKNS0_9HumanPoseES6_RKN4math4trsXEPS4_PNS_8skeleton13SkeletonPoseTIS8_EESF_
iv:__ZN7mecanim9animation8SeekClipERKNS0_12StreamedClipERNS0_18StreamedClipMemoryEf
FJi:_GameObject_Internal_AddComponentWithType_m3797731663
km:_emscripten_glIsTexture
Rk:_emscripten_glHint
mHh:_Check_SourceAndPredicate_m2332465641
xAg:__Z67RuntimeInvoker_Boolean_t97287965_TextGenerationSettings_t1351628751PFvvEPK10MethodInfoPvPS4_
BHc:_ft_var_readpackeddeltas
$Df:_String_op_Inequality_m215368492
W6f:_Dictionary_2_Clear_m1938428402_gshared
zyb:__Z35Transfer_Blittable_FixedBufferFieldI18StreamedBinaryReadILb1EEtEvRK29SerializationCommandArgumentsR31RuntimeSerializationCommandInfo
j1f:_UInt32_System_IConvertible_ToInt64_m2261037378
nm:_SDL_UpperBlit
QXa:__Z35GetTextureDecodeValuesWithIntensity16TextureUsageMode17TextureColorSpace10ColorSpacef
AKf:_Array_InternalArray__ICollection_Remove_TisChar_t3634460470_m4143749387_gshared
bKb:__ZN15dense_hashtableINSt3__24pairIK9TextureIDiEES2_14GfxGenericHashIS2_EN14GfxDoubleCacheIS2_iS6_NS0_8equal_toIS2_EEN31GfxDoubleCacheConcurrencyPolicy11LocklessGetE42GfxDoubleCacheDefaultEmptyDeletedGeneratorIS2_EE9SelectKeyES9_13stl_allocatorIS4_L18MemLabelIdentifier24ELi16EEE14squash_deletedEv
kai:__ZN15dense_hashtableINSt3__24pairIK10KeyWrapperINS1_IPK9EventInfoP11Il2CppClassEEEjEES9_17ReflectionMapHashIS8_EN14dense_hash_mapIS9_jSD_NS9_14EqualsComparerINS0_8equal_toIS8_EEEENS0_9allocatorISB_EEE9SelectKeyESI_SK_E15set_deleted_keyERKSB_
r7h:__ZN15dense_hashtableINSt3__24pairIK10KeyWrapperINS1_IPK12PropertyInfoP11Il2CppClassEEEjEES9_17ReflectionMapHashIS8_EN14dense_hash_mapIS9_jSD_NS9_14EqualsComparerINS0_8equal_toIS8_EEEENS0_9allocatorISB_EEE9SelectKeyESI_SK_ED2Ev
FTf:_Encoding_GetBytes_m3823106599
amf:_GregorianCalendar__ctor_m979779718
akf:_SslClientStream__ctor_m2402546929
xEb:__ZN14SafeBinaryRead20OverrideRootTypeNameEPKc
u$e:_DictionaryNodeEnumerator_get_Entry_m2309234501
mTh:__ZNK10KeyWrapperIPK22Il2CppGenericParameterE14EqualsComparerINSt3__28equal_toIS2_EEEclERKS3_SA_
e1:__ZN14FileCacherRead16UnlockCacheBlockEj
bgg:_Enumerator_Dispose_m951715887_AdjustorThunk
zIe:_InternalEnumerator_1_System_Collections_IEnumerator_Reset_m521819017_AdjustorThunk
PKd:_IsolatedStorageException__ctor_m1022659452
t9:__ZN10InstancingL21OnGraphicsCapsChangedEv
dsb:__Z18Transfer_BlittableI17RemapPPtrTransferLb1E8Vector3fEvRK29SerializationCommandArgumentsR31RuntimeSerializationCommandInfo
x3i:__ZL61ClassInterfaceType_t4029497327_CustomAttributesCacheGeneratorP21CustomAttributesCache
aZf:_WaitHandle_get_Handle_m3260446580
Ygg:_Enumerator_VerifyState_m1745883925_AdjustorThunk
Jc:_emscripten_glUniform1f
Izd:_SortedList__ctor_m1261191695
Abh:_ReadOnlyCollection_1_System_Collections_IList_get_IsReadOnly_m165706550_gshared
smg:__Z75RuntimeInvoker_Int32_t2950945753_DecimalU26_t3714369516_Int64U26_t200113976PFvvEPK10MethodInfoPvPS4_
qMc:__Z20ParseImageParametersR11UTF16StringRiRN20TextRenderingPrivate16TextFormatChangeE
Hzj:__ZL55CanvasScaler_t2767979955_CustomAttributesCacheGeneratorP21CustomAttributesCache
R2g:_Collection_1_RemoveItem_m2942561924_gshared
Oc:_emscripten_glUniform1i
Ttb:__Z18Transfer_BlittableI24GenerateTypeTreeTransferLb1EN4math12int3_storageEEvRK29SerializationCommandArgumentsR31RuntimeSerializationCommandInfo
RB:__ZN12_GLOBAL__N_119PreProcessAnimationER35AnimationPlayableEvaluationConstantR17AnimationPlayable
Bqe:__Z14bankers_roundff
eka:__ZN9ShaderLab16SerializedTagMapaSERKS0_
jS:__ZN11UnityEngine15CloudWebService16SessionContainer20RestoreSessionHeaderERKN4core12basic_stringIcNS2_20StringStorageDefaultIcEEEES8_RNS0_13SessionHeaderE
JZc:__ZN22UnityWebRequestManager13BackendRetainEv
hdc:__ZN8Material28ApplyMaterialPropertyDrawersEv
CAi:__ZN6il2cpp2os12Cryptography23GetCryptographyProviderEv
TTh:__ZN24dense_hashtable_iteratorINSt3__24pairIK10KeyWrapperIPK22Il2CppGenericParameterEP11Il2CppClassEES6_N6il2cpp5utils11PointerHashIS4_EEN14dense_hash_mapIS6_S9_SE_NS6_14EqualsComparerINS0_8equal_toIS5_EEEENS0_9allocatorISA_EEE9SelectKeyESJ_SL_E30advance_past_empty_and_deletedEv
XC:__ZN11UnityEngine9Animation27CreateAvatarBindingConstantER9TransformPKN7mecanim9animation14AvatarConstantERNS3_6memory9AllocatorE
r0e:_MonoTODOAttribute__ctor_m1298576268
joe:_MaskableGraphic_get_onCullStateChanged_m3331479633
yqg:__Z151RuntimeInvoker_RuntimeObject_Int32_t2950945753_RuntimeObject_ObjectU5BU5DU26_t712384779_RuntimeObject_RuntimeObject_RuntimeObject_ObjectU26_t2146539884PFvvEPK10MethodInfoPvPS4_
dfc:__ZN9BlobWriteC2ER13dynamic_arrayIhLj16EE24TransferInstructionFlags19BuildTargetPlatform
U5c:_CanvasUpdateRegistry__ctor_m2005397069
fsh:_TlsServerSettings_get_Certificates_m3981837031
s$:__ZN14MessageHandler3GetEv
h2d:_MonoMethodInfo_GetCallingConvention_m3156036493
Pme:_LayoutGroup_SetLayoutInputForAxis_m2458344630
ad:_emscripten_glAttachShader
Goa:__ZN9GfxDevice13SetActiveTierE12GraphicsTier
Ldd:_Image__cctor_m1927508576
LXf:_SendOrPostCallback_EndInvoke_m2485163446
wka:__ZNSt3__26vectorIN4core12basic_stringIcNS1_20StringStorageDefaultIcEEEENS_9allocatorIS5_EEE6assignIPS5_EENS_9enable_ifIXaasr21__is_forward_iteratorIT_EE5valuesr16is_constructibleIS5_NS_15iterator_traitsISC_E9referenceEEE5valueEvE4typeESC_SC_
kTe:_Enumerator__ctor_m1195706188_gshared
wXi:__ZL76String_t_CustomAttributesCacheGenerator_String_Concat_m1809518182____values0P21CustomAttributesCache
qob:__Z18Transfer_BlittableI14SafeBinaryReadLb0E11QuaternionfEvRK29SerializationCommandArgumentsR31RuntimeSerializationCommandInfo
FBb:__Z18Transfer_BlittableI18StreamedBinaryReadILb0EELb1E12PropertyNameEvRK29SerializationCommandArgumentsR31RuntimeSerializationCommandInfo
KW:_tlsf_walk_heap
nqg:__Z49RuntimeInvoker_Void_t1185182177_OpCode_t123070264PFvvEPK10MethodInfoPvPS4_
Gfi:__ZNK15dense_hashtableINSt3__24pairIK10KeyWrapperIP11Il2CppClassES4_EES5_N6il2cpp8metadata16SZArrayClassHashEN14dense_hash_mapIS5_S4_SA_NS5_14EqualsComparerINS9_19SZArrayClassCompareEEENS0_9allocatorIS7_EEE9SelectKeyESE_SG_E10test_emptyERK24dense_hashtable_iteratorIS7_S5_SA_SI_SE_SG_E
rzg:__Z69RuntimeInvoker_Void_t1185182177_Int32_t2950945753_HitInfo_t3229609740PFvvEPK10MethodInfoPvPS4_
bpj:__ZL59AnimatorClipInfo_t3156717155_CustomAttributesCacheGeneratorP21CustomAttributesCache
ODd:_Convert_ToUInt32_m3592050311
jb:invoke_vif
bph:_Component_GetComponents_TisRuntimeObject_m2416546752_gshared
kb:invoke_vid
sMe:_InternalEnumerator_1__ctor_m2202456613_AdjustorThunk
gGj:__ZNSt3__212basic_stringIcNS_11char_traitsIcEENS_9allocatorIcEEE6insertEjPKc
lb:invoke_vii
lNb:__ZNK12ImageFilters8DoRenderER17ShaderPassContextP13RenderTextureS3_RKNSt3__26vectorI11ImageFilterNS4_9allocatorIS6_EEEE
aLa:__ZN12TLSAllocatorI14StackAllocatorE16ThreadInitializeEP13BaseAllocator
Nrg:__Z82RuntimeInvoker_Boolean_t97287965_SByte_t1669577662_RuntimeObject_SByte_t1669577662PFvvEPK10MethodInfoPvPS4_
fpa:__ZN9GfxDevice32UpdateStereoViewProjectionMatrixE21MonoOrStereoscopicEye
XRc:__Z41CanvasRenderer_CUSTOM_DisableRectClippingP12Il2CppObject
H4f:_Dictionary_2__ctor_m1324730059_gshared
KRd:_MonoType_GetConstructorImpl_m441167626
q8c:_DefaultControls_CreateRawImage_m4219873755
oZg:_Collection_1_IsFixedSize_m3709118201_gshared
mPa:__ZN25SingleBlockMemoryFileDataD0Ev
hLa:__ZNSt3__26vectorI14ConstantStringNS_9allocatorIS1_EEE6assignINS_11__wrap_iterIPS1_EEEENS_9enable_ifIXaasr21__is_forward_iteratorIT_EE5valuesr16is_constructibleIS1_NS_15iterator_traitsISA_E9referenceEEE5valueEvE4typeESA_SA_
Ebh:_ReadOnlyCollection_1_CopyTo_m586367390_gshared
eS:__ZN11UnityEngine15CloudWebService16SessionContainer21ConvertFromFolderTimeERKN4core12basic_stringIcNS2_20StringStorageDefaultIcEEEEPjPt
tgd:_CodeAccessPermission_Equals_m1555575992
bqb:__ZNSt3__26vectorI8GUIStyle13stl_allocatorIS1_L18MemLabelIdentifier1ELi16EEE7reserveEj
D6g:_ReadOnlyCollection_1_Contains_m3869904379_gshared
whi:__ZN6il2cpp6icalls8mscorlib6System9Threading6Thread27GetSerializedCurrentCultureEP12Il2CppThread
ghf:_Context_set_ReadSequenceNumber_m2154909392
Xjd:_RijndaelTransform_SubByte_m3037693507
r1b:__Z31CalculateHierarchyTransformType23TransformAccessReadOnly
a3b:__Z13RegisterClassI11TimeManagerEvv
wJ:__ZN4FMOD8ChannelI11setPositionEjj
jKi:_Input_INTERNAL_CALL_GetTouch_m3481893561
uwi:_GC_set_fl_marks
Vfb:__ZNSt3__26vectorIN30RuntimeInitializeOnLoadManager15ClassMethodInfoE13stl_allocatorIS2_L18MemLabelIdentifier13ELi16EEE7reserveEj
ipa:__ZN9GfxDevice17SetStereoViewportE15StereoscopicEyeRK5RectTIiE
Mfa:__ZN17BaseObjectManager13StaticDestroyEPv
$Ka:__ZNK12TLSAllocatorI14StackAllocatorE24GetBookKeepingMemorySizeEv
_Qh:_CanvasRenderer_INTERNAL_CALL_GetColor_m597074473
oRe:_Comparer_1__cctor_m3891417387_gshared
uWf:_UTF7Decoder_GetChars_m3413809261
Djj:__ZL81Shader_t4151988712_CustomAttributesCacheGenerator_Shader_PropertyToID_m1030499873P21CustomAttributesCache
EYi:__ZL70RuntimeArray_CustomAttributesCacheGenerator_Array_get_Rank_m3448755881P21CustomAttributesCache
FYd:_EnumBuilder_GetEvent_m4074915332
yh:_sysconf
ZTi:_Vector3_get_forward_m3100859705
oI:__ZN4FMOD6Reverb13setPropertiesEPK22FMOD_REVERB_PROPERTIES
Lei:__ZN15dense_hashtableINSt3__24pairIK10KeyWrapperIP11Il2CppClassES4_EES5_N6il2cpp8metadata16SZArrayClassHashEN14dense_hash_mapIS5_S4_SA_NS5_14EqualsComparerINS9_19SZArrayClassCompareEEENS0_9allocatorIS7_EEE9SelectKeyESE_SG_E5clearEv
YOb:__ZN9DepthPass13PrepareSubsetEjRK10RenderNodeifRK17ShaderReplaceData
JGf:_String_IndexOf_m3406607758
jja:__ZN9ShaderLab20SerializedSubProgram16TextureParameter8TransferI14SafeBinaryReadEEvRT_
Taf:_ASN1__ctor_m3517592395
Sbc:__Z35SetMeshComponentFromArrayFromScriptR4Mesh30InternalScriptingShaderChannel34InternalScriptingVertexChannelTypei17ScriptingArrayPtri
Ala:__ZN4PPtrI6ShaderE8TransferI19StreamedBinaryWriteILb0EEEEvRT_
$Pf:_Array_InternalArray__ICollection_Add_TisCustomAttributeNamedArgument_t287865710_m4157175270_gshared
fq:__ZN4core20StringStorageDefaultIcE6assignEPKcj
o2f:_UInt64_System_IConvertible_ToUInt64_m2135047981_AdjustorThunk
iaf:_BigInteger_ModPow_m3776562770
Rni:__ZN15dense_hashtableINSt3__24pairIK10KeyWrapperIP12Il2CppObjectEN6il2cpp2gc9CachedCCWEEES5_NS7_5utils11PointerHashIS3_EEN14dense_hash_mapIS5_S9_SD_NS5_14EqualsComparerINS0_8equal_toIS4_EEEENS0_9allocatorISA_EEE9SelectKeyESI_SK_E3endEv
MJd:_BinaryReader_ReadInt64_m939370142
hjf:_RecordProtocol_ProcessChangeCipherSpec_m15839975
Qud:_ArrayList_IndexOf_m305368842
xVg:_List_1_Add_m2996644200_gshared
ZXb:__ZN6Camera6SetFarEf
Hge:_FormatterConverter_ToBoolean_m1680758923
Jza:__ZN6prcoreL12RemapGenericI17TexFormatABGR888817TexFormatARGB8888EEvPKNS_9InnerInfoE
hQa:__ZN11GameManager17MainThreadCleanupEv
zAd:_Stack_get_Count_m2258661097
x4g:_ReadOnlyCollection_1__ctor_m1345363288_gshared
DTc:__Z50Register_UnityEngine_UISystemProfilerApi_EndSamplev
c_e:_Dictionary_2_System_Collections_ICollection_get_SyncRoot_m2020472285_gshared
lOe:_InternalEnumerator_1_System_Collections_IEnumerator_Reset_m1775752715_AdjustorThunk
Hb:invoke_vffff
vgj:__ZL91Application_t1852185770_CustomAttributesCacheGenerator_Application_get_isPlaying_m100394690P21CustomAttributesCache
m9d:_ConfigHandler_OnProcessingInstruction_m4212209262
hRg:_List_1_Reverse_m3290386475_gshared
aed:_SerializationCallbacks_GetSerializationCallbacks_m2939476649
ryd:_Hashtable__cctor_m4112166779
kGc:_UNITY_tt_slot_init
cLb:__ZZ23InitPlayerLoopCallbacksvEN41PostLateUpdateUpdateResolutionRegistrator7ForwardEv
qDb:__Z25scripting_array_class_get17ScriptingClassPtrj
Qsc:__ZL22Transfer_ManagedObjectI9JSONWriteLb1EEvRK29SerializationCommandArgumentsR31RuntimeSerializationCommandInfo
tF:__ZNK10SampleClip22GetTypeVirtualInternalEv
rqa:__ZN9GfxDevice20DestroyRenderSurfaceER12ObjectHandleI17RenderSurface_TagP17RenderSurfaceBaseE
wAd:_Stack__ctor_m2602729586
Okg:__Z77RuntimeInvoker_Byte_t1134296376_RuntimeObject_Int32_t2950945753_RuntimeObjectPFvvEPK10MethodInfoPvPS4_
xaj:__ZL81Convert_t2465617642_CustomAttributesCacheGenerator_Convert_ToDateTime_m1031474510P21CustomAttributesCache
yJa:__ZN9GfxDevice22UpdateComputeResourcesEjPK9TextureIDPK16TextureDimensionPKijPKjjPK15ComputeBufferIDS7_PK20ComputeBufferCounterjSC_S2_S5_S9_SF_
V1:__ZN12_GLOBAL__N_15qAsinEff
EHi:_Display__ctor_m3105658851
izd:_HashValues_get_IsSynchronized_m3461082747
QHe:_InternalEnumerator_1_System_Collections_IEnumerator_get_Current_m2629988057_AdjustorThunk
bLa:__ZN12TLSAllocatorI14StackAllocatorE13ThreadCleanupEv
VF:__Z18GetAudioManagerPtrv
lgf:_Context_get_HandshakeMessages_m3655705111
bui:__ZThn4_N6il2cpp2vm13ComObjectBase16MarshalInterfaceEP13Il2CppIStreamRK10Il2CppGuidPvjS7_j
iCd:_Convert_ToDouble_m996590115
fGb:__Z27FindActiveTransformWithPathPKc
OLg:_List_1_System_Collections_IEnumerable_GetEnumerator_m3790284976_gshared
H8g:_ReadOnlyCollection_1_System_Collections_IList_Remove_m4169110229_gshared
P0f:_UInt16_ToString_m3020002356
lne:_LayoutRebuilder_LayoutComplete_m68578143
D$h:_RequiredByNativeCodeAttribute__ctor_m119855101
hSa:__ZN12BaseRendererD0Ev
R$b:__Z29StdTemplateConversionFunctionIbyEbPvR14SafeBinaryRead
Sjd:_RijndaelManaged_GenerateKey_m1736287430
fWi:_WaitForSeconds_t1699091251_marshal_pinvoke
_tj:__ZL90PointerEventData_t3807901092_CustomAttributesCacheGenerator_U3ClastPressU3Ek__BackingFieldP21CustomAttributesCache
uAf:_SHA1Internal_Initialize_m499810128
pY:__ZNK6Camera7GetNearEv
vZd:_GenericTypeParameterBuilder_GetConstructorImpl_m863833310
ECa:__ZN7ApiGLES11UnmapBufferEjN2gl12BufferTargetE
pui:__ZN6il2cpp5utilsL24Utf32CharToSurrogatePairEjRA2_Ds
v3a:__Z25GetNextAllowedTextureSizeib13TextureFormat
ZFb:__ZN20LocalFileSystemWebGL4CopyER13FileEntryDataS1_
JU:__ZN19CloudServiceHandler6RetainEv
oCi:__ZN6il2cpp2os9Semaphore4WaitEb
n5g:_ReadOnlyCollection_1_System_Collections_IList_IndexOf_m198887188_gshared
Moc:__Z36Event_CUSTOM_Internal_SetNativeEventPv
MVf:_UTF32Encoding_GetBytes_m3180303867
D3:__ZN12BaseRenderer20FlattenToRenderQueueER15RenderNodeQueueRK20DeprecatedSourceData
HVg:_List_1_CopyTo_m4034402519_gshared
V6g:_ReadOnlyCollection_1_System_Collections_IList_Clear_m2007013334_gshared
Lib:__Z34scripting_liveness_calculation_endPv
Lpi:__ZN6il2cpp2os6ThreadC2Ev
gEe:_U3CGetEnumeratorU3Ec__Iterator0_System_Collections_Generic_IEnumeratorU3CTU3E_get_Current_m1566629109_gshared
tof:_DateTimeOffset_get_UtcDateTime_m1021718282_AdjustorThunk
Ffa:__ZN16memory_pool_implILi64EE15AutoPoolWrapper12UninitializeEPv
Fu:__ZN21AnimationClipPlayable22ProcessAnimationNoClipEPK35AnimationPlayableEvaluationConstantPK32AnimationPlayableEvaluationInputP33AnimationPlayableEvaluationOutput
S_e:_HybridDictionary_get_Count_m1166314536
Qth:_TlsStream_Write_m1412844442
quc:__Z18Transfer_BlittableI8JSONReadLb0E8Vector3fEvRK29SerializationCommandArgumentsR31RuntimeSerializationCommandInfo
Ofi:__ZN6il2cpp2vm6Thread6DetachEP12Il2CppThread
ruh:_GeneralNames_get_DNSNames_m3788548987
_ig:_List_1_AddCollection_m2026039026_gshared
x6e:_X509ChainStatus_get_Status_m2572005749_AdjustorThunk
uxc:__GLOBAL__sub_I_runtime_dynamics_2_cpp
XBj:_Hacker_OnUserInput_m1095014035
ied:_SerializationEntry_t648286436_marshal_pinvoke
bD:__ZN7mecanim8skeleton30SkeletonBuildReverseIndexArrayEPiPKiPKNS0_8SkeletonES6_
Rmc:__Z19GetGUIBlendMaterialv
pQd:_Math_Round_m3018379666
Ksg:__Z41RuntimeInvoker_Boolean_t97287965_IntPtr_tPFvvEPK10MethodInfoPvPS4_
Aqi:__ZN6il2cpp2os10ThreadImpl5SleepEjb
cWe:__ZN28GenericInterfaceFuncInvoker1IbbE6InvokeEPK10MethodInfoP12Il2CppObjectb
p5g:_ReadOnlyCollection_1_System_Collections_IList_Remove_m1965826685_gshared
vrf:_Delegate_CreateDelegate_m1051651521
HLf:_PlayableHandle_IsPlayableOfType_TisRuntimeObject_m503495943_AdjustorThunk
FNj:_glBindSampler__wrapper
_Pa:__ZNSt3__26vectorIN20ArchiveStorageHeader12StorageBlockE13stl_allocatorIS2_L18MemLabelIdentifier55ELi16EEE8__appendEj
Hf:_emscripten_set_mouseup_callback
tLi:_Mathf_Clamp_m3350697880
nJa:__ZN9GfxDevice27SetRandomWriteTargetTextureEi9TextureID
M5f:_Dictionary_2_System_Collections_Generic_ICollectionU3CSystem_Collections_Generic_KeyValuePairU3CTKeyU2CTValueU3EU3E_Contains_m3033743418_gshared
_rg:__Z165RuntimeInvoker_Void_t1185182177_UInt32U26_t3735378166_Int32_t2950945753_UInt32U26_t3735378166_Int32_t2950945753_Int32_t2950945753_Int32_t2950945753_Int32_t2950945753PFvvEPK10MethodInfoPvPS4_
Qig:_List_1_System_Collections_IList_Remove_m3140917266_gshared
yTf:_Encoding_get_DecoderFallback_m1525880676
z5i:__ZL59ITrackingHandler_t1244553475_CustomAttributesCacheGeneratorP21CustomAttributesCache
Azh:_CompositeExpression__ctor_m2434860303
Whd:_DSASignatureDeformatter__ctor_m2759753186
o6e:_X509ChainElementCollection_System_Collections_IEnumerable_GetEnumerator_m3829089536
H1g:_Collection_1_System_Collections_IEnumerable_GetEnumerator_m801406918_gshared
ZZb:__ZNK18ScreenManagerWebGL8GetWidthEv
T_h:__ZN6il2cpp2vm13MetadataCache33GetFieldDefaultValueDataFromIndexEi
qF:__ZN10SampleClipD2Ev
ngh:_InvokableCall_1_remove_Delegate_m790146436_gshared
bfh:_Predicate_1_Invoke_m2389850270_gshared
zqi:__ZN6il2cpp2os10ThreadImpl13SetWaitObjectEPNS0_5posix15PosixWaitObjectE
eib:__Z13GetGISettingsv
B_g:_Collection_1_RemoveAt_m1813368096_gshared
tU:__ZN11UnityEngine15CloudWebService20WebRequestRestClientC2Ev
DBc:_cff_cmap_unicode_init
NJf:_Array_InternalArray__ICollection_Contains_TisRuntimeObject_m4067783231_gshared
h1:__ZN14FileCacherRead13GetFileLengthEv
Dhh:_UnityAction_1_EndInvoke_m542551745_gshared
QXg:_Collection_1_IsValidItem_m3080586124_gshared
j9c:_DropdownItem_set_text_m3702712387
u6c:_ClipperRegistry_Register_m2407166513
IEj:_readlink
N7h:__ZN15dense_hashtableINSt3__24pairIK10KeyWrapperINS1_IPK9EventInfoP11Il2CppClassEEEjEES9_17ReflectionMapHashIS8_EN14dense_hash_mapIS9_jSD_NS9_14EqualsComparerINS0_8equal_toIS8_EEEENS0_9allocatorISB_EEE9SelectKeyESI_SK_E12resize_deltaEjj
c2d:_MonoCMethod_Invoke_m2700167622
nzd:_KeyMarker__cctor_m2590194914
gTe:_Enumerator_Reset_m627751027_AdjustorThunk
ecb:__ZNK6Sprite9GetBoundsE8Vector2fbb
xTa:__ZNK19RenderEventsContext21CleanupCommandBuffersEv
jQh:_TextGenerator_PopulateWithErrors_m1222498386
ULg:_List_1_System_Collections_Generic_ICollectionU3CTU3E_get_IsReadOnly_m507350231_gshared
lua:__ZN11ContextGLES6CreateEi
PQh:_WillRenderCanvases_BeginInvoke_m1804779886
VQi:_RectTransform_INTERNAL_set_anchoredPosition_m939517950
wOg:_List_1_set_Capacity_m3382070520_gshared
IDg:__Z68RuntimeInvoker_Boolean_t97287965_RuntimeObject_ObjectU26_t2146539884PFvvEPK10MethodInfoPvPS4_
Lle:_U3CMouseDragOutsideRectU3Ec__Iterator1_Dispose_m267465418
tqf:_Decimal_CompareTo_m3502307243_AdjustorThunk
tCb:__Z19TransferField_ArrayI18StreamedBinaryReadILb0EE27Converter_SimpleNativeClassI17AnimationCurveTplIfEEEvRK23StaticTransferFieldInfoR31RuntimeSerializationCommandInfoRT0_
EKa:__ZN14StackAllocator16FrameMaintenanceEb
SMa:__Z18ReadStringFromFilePN4core17string_with_labelILi1EEERKNS_12basic_stringIcNS_20StringStorageDefaultIcEEEE
Aqe:_Scrollbar_get_value_m760470106
uY:__ZNK10GameObject20QueryComponentByTypeEPKN5Unity4TypeE
Ipf:_Decimal_System_IConvertible_ToInt32_m1488426794_AdjustorThunk
RQd:_MonoCustomAttrs_IsUserCattrProvider_m2878058089
rxj:__ZL71InputField_t3762917431_CustomAttributesCacheGenerator_m_HideMobileInputP21CustomAttributesCache
H2a:__ZN11TextureData5ResetEv
qhc:__Z53Register_UnityEngine_GameObject_get_activeInHierarchyv
WBf:_ToBase64Transform_InternalTransformFinalBlock_m360524956
Mmd:_ActivationContext_Dispose_m2038725770
Vrb:__Z35Transfer_Blittable_FixedBufferFieldI17RemapPPtrTransferiEvRK29SerializationCommandArgumentsR31RuntimeSerializationCommandInfo
L_:__ZL30InitializeCoreScriptingClassesv
r9g:_ReadOnlyCollection_1_Contains_m1699971074_gshared
VLe:_InternalEnumerator_1_Dispose_m630370856_AdjustorThunk
Eg:_glBlitFramebuffer
RNa:__ZN17ArchiveFileSystem5TouchER13FileEntryData
Vgg:_Enumerator_System_Collections_IEnumerator_get_Current_m3594024719_gshared
Qrb:__Z35Transfer_Blittable_SingleValueFieldI14SafeBinaryReadhEvRT_R17GeneralMonoObjectRK23StaticTransferFieldInfo
Dac:__ZN12CachedWriter15CompleteWritingEv
M1a:__ZNK12CubemapArray22GetTypeVirtualInternalEv
Mn:FUNCTION_TABLE_vif
Nn:FUNCTION_TABLE_vid
On:FUNCTION_TABLE_vii
Wib:__Z40scripting_liveness_calculation_from_root18ScriptingObjectPtrPv
led:_SerializationEntry__ctor_m1411687997_AdjustorThunk
N4i:__ZL65IContributeDynamicSink_t2255997386_CustomAttributesCacheGeneratorP21CustomAttributesCache
J_a:__ZN7Texture23VirtualRedirectTransferER24GenerateTypeTreeTransfer
gLc:_UNITY_FT_Set_Transform
M6b:__ZNK32RendererMaterialAnimationBinding12SetPPtrValueERKN11UnityEngine9Animation10BoundCurveEi
Umi:__ZN6il2cpp8metadata15GenericMetadata20RegisterGenericClassEP18Il2CppGenericClass
iNj:_glDeleteFramebuffers__wrapper
vog:__Z220RuntimeInvoker_Boolean_t97287965_RuntimeObject_Int32U26_t1369213839_Int32_t2950945753_Int32_t2950945753_Int32_t2950945753_RuntimeObject_SByte_t1669577662_Int32_t2950945753_ContractionU26_t961830454_ContextU26_t3937453398PFvvEPK10MethodInfoPvPS4_
QXe:_Enumerator__ctor_m920120158_AdjustorThunk
MNi:_Playable_Equals_m328753404_AdjustorThunk
x0i:__ZL78TextInfo_t3810425522_CustomAttributesCacheGenerator_TextInfo_Clone_m3838580862P21CustomAttributesCache
Lzc:_cff_blend_build_vector
q2e:_WebHeaderCollection_ToString_m1263025316
CLe:_InternalEnumerator_1_MoveNext_m1015797184_gshared
k7b:__ZZN12MeshRenderer15InitializeClassEvEN29FunctorImpl_134kDidDeleteMesh4CallEPviR11MessageData
Sqg:__Z91RuntimeInvoker_Void_t1185182177_RuntimeObject_RuntimeObject_RuntimeObject_Int32_t2950945753PFvvEPK10MethodInfoPvPS4_
j4d:_GetterAdapter_Invoke_m3767885970
yPg:_List_1__ctor_m747758800_gshared
dxh:_X509Extension_get_Oid_m4107042796
z_d:_MethodBuilder_get_ReflectedType_m3038768129
gIf:_String_CreateString_m2818852475
Jfg:_Enumerator_get_Current_m335492761_AdjustorThunk
S4a:__ZN28EnlightenRendererInformation8TransferI14SafeBinaryReadEEvRT_
wRh:_CanvasRenderer_get_hasMoved_m2236392341
dNi:_MessageEvent__ctor_m1231650089
yha:__ZNK15Lz4Decompressor16DecompressMemoryEPKvPjPvS2_
yQd:_MemberAccessException__ctor_m3713703094
$Sa:__Z11IsCoroutine18ScriptingMethodPtrRK22CommonScriptingClasses
r1i:__ZL117GenericTypeParameterBuilder_t1988827940_CustomAttributesCacheGenerator_GenericTypeParameterBuilder_Equals_m3260957994P21CustomAttributesCache
d2b:__ZN4core8hash_mapINS_12basic_stringIcNS_20StringStorageDefaultIcEEEE10vector_setI4PPtrI11SpriteAtlasENSt3__24lessIS8_EE13stl_allocatorIS8_L18MemLabelIdentifier81ELi16EEENS_4hashIS4_EENS9_8equal_toIS4_EEEixERKS4_
uh:_glGetAttribLocation
FJh:__ZL24UnresolvedVirtualCall_47P12Il2CppObject20DateTime_t3738529785PK10MethodInfo
J0a:__Z35UnityPropertySheet_MakeSortedColorsRKNSt3__23mapIN9ShaderLab16FastPropertyNameE10ColorRGBAfNS_4lessIS2_EENS_9allocatorINS_4pairIKS2_S3_EEEEEER10vector_mapIS2_S3_S5_NS6_INS7_IS2_S3_EEEEE
Tdj:__ZL72PKCS12_t4101533061_CustomAttributesCacheGenerator_U3CU3Ef__switchU24map8P21CustomAttributesCache
YDc:_UNITY_tt_face_load_os2
Mgj:__ZL90Coroutine_t3829159415_CustomAttributesCacheGenerator_Coroutine_ReleaseCoroutine_m809189848P21CustomAttributesCache
irb:__Z29Transfer_Blittable_ArrayFieldI14SafeBinaryRead8Vector4fEvRT_R9ArrayInfoRK23StaticTransferFieldInfo
AVd:_Default_check_arguments_m3882727959
xyd:_Hashtable_get_IsSynchronized_m1426775249
OWf:_UTF8Encoding_GetMaxCharCount_m3762459613
LWd:_ModuleBuilder_RegisterToken_m4166846047
VKb:__ZZ23InitPlayerLoopCallbacksvEN51PostLateUpdateUpdateCustomRenderTexturesRegistrator7ForwardEv
upe:_RawImage_OnPopulateMesh_m1115858855
Wpg:__Z74RuntimeInvoker_MonoFileType_t221779374_IntPtr_t_MonoIOErrorU26_t1548853198PFvvEPK10MethodInfoPvPS4_
f$h:__ZN6il2cpp2vm13MetadataCache25GetStringLiteralFromIndexEi
mnd:_Hashtable_ToPrime_m33531354
bv:__ZN7mecanim9animation12EvaluateClipEPKNS0_4ClipEPKNS0_9ClipInputEPNS0_10ClipMemoryEPNS0_10ClipOutputE
m2g:_Collection_1_IsSynchronized_m1117613618_gshared
grb:__ZN15SerializeTraitsI13dynamic_arrayI5RectTIfELj4EEE19ResizeSTLStyleArrayERS3_i
U$f:_TypeInitializationException__ctor_m3546444694
udc:__ZNK9Transform16GetLocalRotationEv
b5a:__ZN4PPtrI11LightProbesE8TransferI18StreamedBinaryReadILb0EEEEvRT_
XT:__ZN11UnityEngine15CloudWebService23WebRequestUploadHandler17ConsumeUploadDataEj
y0h:__ZNSt3__214__split_bufferI6pollfdRNS_9allocatorIS1_EEEC2EjjS4_
X8d:_CrossAppDomainData_get_DomainID_m3516796532
wCg:__Z68RuntimeInvoker_Void_t1185182177_Single_t1397266774_SByte_t1669577662PFvvEPK10MethodInfoPvPS4_
PMd:_MemoryStream_set_Position_m3169779190
RWb:__ZN13RenderManager29SetCurrentCameraAndStackStateEP6CameraP25CameraStackRenderingState
l1c:_ExecuteEvents_get_scrollHandler_m2659345019
XRa:__ZNSt3__26__treeINS_12__value_typeIjN4core12basic_stringIcNS2_20StringStorageDefaultIcEEEEEENS_19__map_value_compareIjS7_NS_4lessIjEELb1EEE13stl_allocatorIS7_L18MemLabelIdentifier7ELi16EEE7destroyEPNS_11__tree_nodeIS7_PvEE
zfi:__ZN15dense_hashtableINSt3__24pairIK10KeyWrapperINS1_IP11Il2CppClassjEEES4_EES6_N6il2cpp8metadata14ArrayClassHashEN14dense_hash_mapIS6_S4_SB_NS6_14EqualsComparerINSA_17ArrayClassCompareEEENS0_9allocatorIS8_EEE9SelectKeyESF_SH_E12resize_deltaEjj
Th:_JS_WebRequest_Release
FS:__ZN11UnityEngine15CloudWebService14DataErrorEventD0Ev
oji:__ZN6il2cpp6icalls8mscorlib6System4Type20internal_from_handleEi
Sfj:__ZL72RequiredByNativeCodeAttribute_t4130846357_CustomAttributesCacheGeneratorP21CustomAttributesCache
lae:_Context__ctor_m254302079
Qmi:__ZN6il2cpp8metadata15GenericMetadata7InflateEPK19Il2CppGenericMethodPK20Il2CppGenericContext
ECe:_KeyGeneratedEventHandler_EndInvoke_m3057317531
h4a:__ZN19ShaderPropertySheet16SetArrayPropertyEN9ShaderLab16FastPropertyNameENS_12PropertyTypeEPKvj
ire:_Selectable_FindSelectable_m2348614027
R7c:_FloatTween_get_duration_m1227071020
xni:__ZN15dense_hashtableINSt3__24pairIK10KeyWrapperIP12Il2CppObjectEN6il2cpp2gc9CachedCCWEEES5_NS7_5utils11PointerHashIS3_EEN14dense_hash_mapIS5_S9_SD_NS5_14EqualsComparerINS0_8equal_toIS4_EEEENS0_9allocatorISA_EEE9SelectKeyESI_SK_E16reset_thresholdsEv
S9c:_DropdownItem_OnPointerEnter_m1492957598
IOc:__ZN2UI11CanvasGroup23VirtualRedirectTransferER19StreamedBinaryWriteILb0EE
x4d:_ParameterInfo_get_ParameterType_m4197803362
spg:__Z91RuntimeInvoker_Void_t1185182177_Int32U26_t1369213839_Int32U26_t1369213839_Int32_t2950945753PFvvEPK10MethodInfoPvPS4_
A$h:_StaticAccessorAttribute_set_Type_m2333258271
joc:__ZN8GUIState8EndOnGUIEv
OUc:__ZN11UnityEngine15PlatformWrapper16GetApplicationIdEv
rGc:_UNITY_TT_Get_VMetrics
hlg:__Z49RuntimeInvoker_Char_t3634460470_Int16_t2552820387PFvvEPK10MethodInfoPvPS4_
czg:__Z69RuntimeInvoker_Color_t2555686324_Color_t2555686324_Single_t1397266774PFvvEPK10MethodInfoPvPS4_
wag:_EqualityComparer_1__ctor_m2283513024_gshared
ewd:_SimpleEnumerator__cctor_m2844299657
dQd:_LocalDataStoreSlot__ctor_m4104083971
Bmh:_Array_qsort_TisVector3_t3722313464_m4117329442_gshared
_8g:_ReadOnlyCollection_1_System_Collections_Generic_IListU3CTU3E_RemoveAt_m3849058645_gshared
pOh:_AudioSource_ReadExtensionName_m725112169
rwh:_X509CertificateEnumerator_System_Collections_IEnumerator_Reset_m2039524926
hvg:__Z128RuntimeInvoker_Void_t1185182177_RuntimeObject_BooleanU26_t4125257963_SByte_t1669577662_Int32U26_t1369213839_Int32U26_t1369213839PFvvEPK10MethodInfoPvPS4_
cxa:__ZN7Texture21GetMasterTextureLimitEv
KXe:_Enumerator_Dispose_m3503748991_AdjustorThunk
HYb:__Z12CanAddScriptR10GameObject17ScriptingClassPtrPS1_S2_
Nai:__ZN6il2cpp2vm10Reflection12HasAttributeEP12Il2CppObjectP11Il2CppClass
hBg:__Z103RuntimeInvoker_Boolean_t97287965_RuntimeObject_Vector2_t2156229523_RuntimeObject_Vector3U26_t3464235976PFvvEPK10MethodInfoPvPS4_
Ybh:_Comparison_1_BeginInvoke_m3263247262_gshared
P9:__ZN9ShaderLabL25StaticInitializeShaderLabEPv
U:Math_max
aAj:__ZL64HorizontalLayoutGroup_t2586782146_CustomAttributesCacheGeneratorP21CustomAttributesCache
wKh:__ZL24UnresolvedVirtualCall_92P12Il2CppObjectPK10MethodInfo
Jci:_il2cpp_class_get_methods
sSi:_HitInfo_SendMessage_m1343099429_AdjustorThunk
Wtb:__Z18Transfer_BlittableI24GenerateTypeTreeTransferLb0EN4math12int2_storageEEvRK29SerializationCommandArgumentsR31RuntimeSerializationCommandInfo
$rf:_StackTrace_get_trace_m1194606084
IFf:_Single_CompareTo_m2785801815_AdjustorThunk
Tpi:__ZN6il2cpp2os6Thread16GetCurrentThreadEv
Ukh:_Array_InternalArray__Insert_TisUILineInfo_t4195266810_m3191124053_gshared
J8b:__ZN10GameObject13ComponentPair15SetComponentPtrEPN5Unity9ComponentE
DLj:_glBlitFramebuffer__wrapper
P2b:__Z13RegisterClassI10MeshFilterEvv
Nvj:__ZL75U3COnFinishSubmitU3Ec__Iterator0_t3413438900_CustomAttributesCacheGeneratorP21CustomAttributesCache
bSa:__ZN10TagManager8TransferI19StreamedBinaryWriteILb0EEEEvRT_
pib:__ZN11PreloadData23VirtualRedirectTransferER18StreamedBinaryReadILb0EE
S7a:__ZN13sorted_vectorI4PPtrI11SpriteAtlasENSt3__24lessIS2_EE13stl_allocatorIS2_L18MemLabelIdentifier1ELi16EEE21sort_clear_duplicatesEv
wOi:_PropertyNameUtils_PropertyNameFromString_Injected_m1259736140
Awj:__ZL60FontData_t746620069_CustomAttributesCacheGenerator_m_MinSizeP21CustomAttributesCache
ktd:_Char_System_IConvertible_ToDateTime_m3564102661
eVe:_ShimEnumerator_get_Key_m317201915_gshared
L6a:__ZN6Sprite17MainThreadCleanupEv
LLj:_glBlendFuncSeparate__wrapper
bL:__ZN10AudioMixer14UpdateMuteSoloEv
c0:__Z17GetMonoManagerPtrv
nRa:__ZN9Transform35SetLocalPositionWithoutNotificationERKN4math7_float3Ey
Rqj:__ZL87GUIUtility_t1868551600_CustomAttributesCacheGenerator_U3CguiIsExitingU3Ek__BackingFieldP21CustomAttributesCache
Qug:__Z69RuntimeInvoker_UInt64_t4134040092_Int32_t2950945753_SByte_t1669577662PFvvEPK10MethodInfoPvPS4_
Ui:_JS_Eval_ClearTimeout
cqe:_Raycast2DCallback_Invoke_m1500574149
OBa:__ZN7ApiGLES16SetPatchVerticesEi
EBh:_CharacterClass_Compile_m3296067317
Lri:__ZN6il2cpp2gc16GarbageCollector16InvokeFinalizersEv
tsd:_Byte_System_IConvertible_ToInt64_m285584218_AdjustorThunk
RPi:_Rect_get_size_m477575021_AdjustorThunk
ITh:__ZN6il2cpp2vm5Class20FromGenericParameterEPK22Il2CppGenericParameter
gV:__ZN19CloudServiceHandler11FlushEventsEv
cfa:__ZN15GlobalCallbacksC2Ev
vde:_MethodCall_System_Runtime_Remoting_Messaging_IInternalMessage_set_Uri_m1919576807
bQf:_Array_InternalArray__ICollection_Add_TisLabelData_t360167391_m1648183135_gshared
jSe:_Comparer_1_System_Collections_IComparer_Compare_m2016223770_gshared
hBj:__ZL57BaseMeshEffect_t2440176439_CustomAttributesCacheGeneratorP21CustomAttributesCache
fug:__Z74RuntimeInvoker_DateTime_t3738529785_DateTime_t3738529785_Int32_t2950945753PFvvEPK10MethodInfoPvPS4_
vMc:_UNITY_FT_New_Memory_Face
T_g:_Collection_1_System_Collections_IList_IndexOf_m3271188411_gshared
zKc:__ZN20TextRenderingPrivate21TextMeshGeneratorImpl5FlushEv
BMd:_MonoIO_GetFileStat_m678141354
nCc:_UNITY_FT_Load_Sfnt_Table
w8c:__Z15CastclassSealedP12Il2CppObjectP11Il2CppClass
s2b:__ZN15ApplicationInfo14GetSandboxTypeEv
Xrb:__Z18Transfer_BlittableI17RemapPPtrTransferLb1EhEvRK29SerializationCommandArgumentsR31RuntimeSerializationCommandInfo
iqf:_Decimal_IsZero_m4250358244_AdjustorThunk
RPd:_UnmanagedMemoryStream_get_CanRead_m3770815400
hsi:__ZNSt3__26vectorIjNS_9allocatorIjEEE26__swap_out_circular_bufferERNS_14__split_bufferIjRS2_EE
yXb:__ZN16ReflectionProbes40UpdateRealtimeReflectionProbesTimeslicedEv
YNh:__ZN23InterfaceActionInvoker1IP24SingleU5BU5D_t1444911251E6InvokeEjP11Il2CppClassP12Il2CppObjectS1_
Uli:__ZNSt3__26__treeINS_12__value_typeIP24Il2CppReflectionAssemblyPvEENS_19__map_value_compareIS3_S5_NS_4lessIS3_EELb1EEENS_9allocatorIS5_EEE16__insert_node_atEPNS_16__tree_node_baseIS4_EERSF_SF_
_pf:_Decimal_u64_m3374804932
l0f:_UInt16_System_IConvertible_ToInt32_m1950778303_AdjustorThunk
Efb:__ZNK30RuntimeInitializeOnLoadManager22GetTypeVirtualInternalEv
pYh:__ZN15dense_hashtableINSt3__24pairIK10KeyWrapperIN6il2cpp5utils13dynamic_arrayIPK10Il2CppTypeLj4EEEEPFvvEEESA_NS3_8metadata19Il2CppSignatureHashEN14dense_hash_mapISA_SD_SG_NSA_14EqualsComparerINSF_22Il2CppSignatureCompareEEENS0_9allocatorISE_EEE9SelectKeyESK_SM_E12resize_deltaEjj
s6b:__ZN16ReflectionProbes15InitializeClassEv
zYi:__ZL71Enum_t4135868527_CustomAttributesCacheGenerator_Enum_Format_m2588135982P21CustomAttributesCache
HZh:__ZNK15dense_hashtableINSt3__24pairIK10KeyWrapperIPK11Il2CppClassEPKcEES6_N6il2cpp5utils11PointerHashIS3_EEN14dense_hash_mapIS6_S9_SE_NS6_14EqualsComparerINS0_8equal_toIS5_EEEENS0_9allocatorISA_EEE9SelectKeyESJ_SL_E12test_deletedEj
S6g:_ReadOnlyCollection_1_System_Collections_ICollection_CopyTo_m2527663815_gshared
Hoh:_Dictionary_2_Do_ICollectionCopyTo_TisKeyValuePair_2_t3699644050_m4159638770_gshared
Pki:__ZN6il2cpp2vm5Image9GetCorlibEv
LVi:_Vector3_get_left_m2428419009
ULh:__ZL25UnresolvedVirtualCall_170P12Il2CppObject25RaycastResult_t3360306849S1_PK10MethodInfo
eA:__ZN8Animator13BatchedFKPassERK13dynamic_arrayIP14PlayableOutputLj4EE
S2i:__ZL50Pointer_t2088917139_CustomAttributesCacheGeneratorP21CustomAttributesCache
jxi:_GC_reclaim_uninit
xhb:__ZN16LightmapSettings11UnshareDataEv
_0c:_ExecuteEvents_Execute_m113814934
Aba:__ZN13RuntimeStaticINSt3__23mapIN4core12basic_stringIcNS2_20StringStorageDefaultIcEEEES6_NS0_4lessIS6_EE13stl_allocatorINS0_4pairIKS6_S6_EEL18MemLabelIdentifier13ELi16EEEELb0EE13StaticDestroyEPv
omh:_Array_qsort_TisColor32_t2600501292_m1362211604_gshared
pSe:_Enumerator_System_Collections_IEnumerator_get_Current_m2979767597_AdjustorThunk
lhh:__ZN30GenericInterfaceActionInvoker1I17Color_t2555686324E6InvokeEPK10MethodInfoP12Il2CppObjectS0_
sjd:_MD5CryptoServiceProvider_ProcessFinalBlock_m2241588515
sse:_ScrollRect_GetBounds_m449872505
Tj:_glIsVertexArray
Xld:_SmallXmlParser_Read_m3485223434
cFd:_Int16_Parse_m2276856944
GLe:_InternalEnumerator_1__ctor_m3443175323_AdjustorThunk
a6:__ZN5Unity9Component8TransferI18StreamedBinaryReadILb0EEEEvRT_
v2i:__ZL131CustomAttributeData_t1084486650_CustomAttributesCacheGenerator_CustomAttributeData_t1084486650____ConstructorArguments_PropertyInfoP21CustomAttributesCache
ea:invoke_fff
xEj:_mbsinit
rKj:b14
l8e:_RepeatContext_get_Expression_m255006542
TNc:__ZN2UI6Canvas17MainThreadCleanupEv
rza:__ZN6prcoreL12RemapGenericI17TexFormatARGB155517TexFormatRGBA8888EEvPKNS_9InnerInfoE
BVh:__ZN13Il2CppHashMapIPK19Il2CppGenericMethodPK26Il2CppGenericMethodIndicesN6il2cpp8metadata23Il2CppGenericMethodHashENS7_26Il2CppGenericMethodCompareENSt3__29allocatorINSA_4pairIK10KeyWrapperIS2_ES5_EEEEEC2EjRKS8_RKS9_
p0d:_TypeBuilder_HasElementTypeImpl_m1871001960
NEf:_SecurityFrame__ctor_m2140076703_AdjustorThunk
V8f:_DefaultComparer_Equals_m2458578172_gshared
qDa:__ZN7ApiGLES13CreateProgramEv
oKj:b11
oTe:_Enumerator_VerifyState_m4003066746_gshared
rxa:__ZN4crnd12crn_unpackerD2Ev
ek:_emscripten_glTexImage2D
dRe:_Comparer_1_System_Collections_IComparer_Compare_m2537217645_gshared
z_:__ZN18ScriptingArguments9AddStringEPKc
Dxi:_setup_header
neg:_KeyValuePair_2__ctor_m3953574590_AdjustorThunk
jud:_Char_ToString_m3588025615
ULf:_SetPropertyUtility_SetStruct_TisAspectMode_t3417192999_m1565063249_gshared
wYg:_Collection_1_get_Count_m2853642267_gshared
c7g:_ReadOnlyCollection_1_System_Collections_IList_get_IsReadOnly_m375760151_gshared
E5i:__ZL53IEnvoyInfo_t2180778907_CustomAttributesCacheGeneratorP21CustomAttributesCache
EAe:_CryptoConvert_ToCapiKeyBlob_m3371450375
zya:__ZL23stbir__resize_arbitraryPvPKviiiS_iiiffffPfiij14stbir_datatype12stbir_filterS4_10stbir_edgeS5_16stbir_colorspace
oub:__Z18Transfer_BlittableI24GenerateTypeTreeTransferLb1E8Vector4fEvRK29SerializationCommandArgumentsR31RuntimeSerializationCommandInfo
vKj:b18
pk:_pthread_detach
V$h:__ZN6il2cpp2vm19SocketPollingThread7RunLoopEv
yad:_FontUpdateTracker_UntrackText_m1981515690
HQg:_List_1_System_Collections_ICollection_get_SyncRoot_m1937857346_gshared
l9b:__ZN15DirectorManager20ScheduleGraphDestroyERK14HPlayableGraph
gDb:__ZNSt3__213__stable_sortIRN10vector_mapI17ScriptingClassPtrPKN5Unity4TypeENS_4lessIS2_EENS_9allocatorINS_4pairIS2_S6_EEEEE13value_compareENS_11__wrap_iterIPSB_EEEEvT0_SJ_T_NS_15iterator_traitsISJ_E15difference_typeEPNSM_10value_typeEi
gxe:_SimpleCollator_FillSurrogateSortKeyRaw_m725998232
NRg:_List_1_AddEnumerable_m1284696147_gshared
D1e:_IPAddress_Equals_m1823478787
bbe:_Context_CreateNewContext_m3053563976
Dij:__ZL83RectOffset_t1369453676_CustomAttributesCacheGenerator_RectOffset_set_top_m713260669P21CustomAttributesCache
Zka:__ZN9ShaderLab25SerializedTextureProperty8TransferI24GenerateTypeTreeTransferEEvRT_
roh:_Array_swap_TisVector2_t2156229523_TisVector2_t2156229523_m345092822_gshared
NXg:_Collection_1_get_Item_m1773274637_gshared
F8h:__ZN6il2cpp2gc19AppendOnlyGCHashMapINSt3__24pairIPK14Il2CppAssemblyP11Il2CppClassEEP24Il2CppReflectionAssembly17ReflectionMapHashIS9_ENS2_8equal_toIS9_EEEC2Ev
GEc:_tt_cmap14_char_next
$wb:__Z18Transfer_BlittableI19StreamedBinaryWriteILb0EELb0EdEvRK29SerializationCommandArgumentsR31RuntimeSerializationCommandInfo
ala:__ZN11NamedObject8TransferI18StreamedBinaryReadILb0EEEEvRT_
DGa:__ZNK17GPUSkinPoseBuffer12GetBoneCountEv
rIi:_InvokableCall_remove_Delegate_m1376110510
Kyd:_Hashtable_Clear_m3112193608
wWf:_UTF8Encoding_InternalGetByteCount_m771565606
uki:__ZNK15dense_hashtableINSt3__24pairIK10KeyWrapperIP14Il2CppIUnknownEjEES5_N6il2cpp5utils11PointerHashIS3_EEN14dense_hash_mapIS5_jSB_NS5_14EqualsComparerINS0_8equal_toIS4_EEEENS0_9allocatorIS7_EEE9SelectKeyESG_SI_E12test_deletedEj
ovc:__Z18Transfer_BlittableI8JSONReadLb1EyEvRK29SerializationCommandArgumentsR31RuntimeSerializationCommandInfo
QMg:_List_1_System_Collections_IList_Remove_m3654336679_gshared
Jij:__ZL51GUILayer_t2783472903_CustomAttributesCacheGeneratorP21CustomAttributesCache
e$i:__ZL56IDictionary_2_t3177279192_CustomAttributesCacheGeneratorP21CustomAttributesCache
XMf:_Array_InternalArray__IEnumerable_GetEnumerator_TisUInt64_t4134040092_m1382862496_gshared
Mk:_emscripten_glMatrixMode
Hoe:_MaskableGraphic_UnityEngine_UI_IClippable_get_gameObject_m1739855597
jxf:_NumberFormatInfo_get_RawPercentGroupSizes_m97703232
Ps:__ZN8Animator23VirtualRedirectTransferER18StreamedBinaryReadILb0EE
jyf:_Guid__ctor_m3562600567_AdjustorThunk
_R:__ZN11UnityEngine15CloudWebService14DataDispatcher16PrepareDataBlockERNS0_16SessionContainerE
_Ha:__ZN18GfxFramebufferGLES5ClearE13GfxClearFlagsRK10ColorRGBAffib
CPf:_MonoProperty_StaticGetterAdapterFrame_TisRuntimeObject_m4131530968_gshared
KBb:__ZL26Transfer_SimpleNativeClassI18StreamedBinaryReadILb0EE10RectOffsetLb0EEvRK29SerializationCommandArgumentsR31RuntimeSerializationCommandInfo
DKe:_InternalEnumerator_1_get_Current_m2316281569_gshared
HOb:__ZL12DepthPassJobPN21GfxDeviceAsyncCommand10ArgScratchEPKNS_3ArgE
lja:__ZNSt3__26vectorIN9ShaderLab20SerializedSubProgram16TextureParameterENS_9allocatorIS3_EEE6assignINS_11__wrap_iterIPS3_EEEENS_9enable_ifIXaasr21__is_forward_iteratorIT_EE5valuesr16is_constructibleIS3_NS_15iterator_traitsISC_E9referenceEEE5valueEvE4typeESC_SC_
vXe:_Transform_1_EndInvoke_m1701794896_gshared
Jqc:__ZN5Unity9rapidjson6WriterI16TempBufferWriterNS0_4UTF8IcEES4_13JSONAllocatorE11WriteDoubleEd
cYf:_Thread_SetCachedCurrentUICulture_m1729523031
TRc:__Z55Register_UnityEngine_CanvasGroup_get_ignoreParentGroupsv
xle:_InputField_get_minHeight_m2822964544
n3b:__Z13RegisterClassI19LowerResBlitTextureEvv
HWe:__ZN23GenericVirtFuncInvoker1I27DictionaryEntry_t3123975638iE6InvokeEPK10MethodInfoP12Il2CppObjecti
Hff:_ClientContext_set_ClientHelloProtocol_m4189379912
Nm:FUNCTION_TABLE_iiiiiiiiiiii
pRg:_List_1_get_Item_m1686506901_gshared
mUa:__ZN16GraphicsSettingsD0Ev
w$b:__Z29StdTemplateConversionFunctionIshEbPvR14SafeBinaryRead
n:cttz_i8
zzc:_UNITY_FT_GlyphLoader_Add
LOh:_AudioListener_INTERNAL_CALL_ReadExtensionPropertyName_m330480156
s3i:__ZL62ActivationArguments_t4219999170_CustomAttributesCacheGeneratorP21CustomAttributesCache
exg:__Z53RuntimeInvoker_Interval_t1802865632_Int32_t2950945753PFvvEPK10MethodInfoPvPS4_
yDd:_Convert_ToUInt16_m867476252
Jl:_emscripten_glViewport
Qti:__ZN6il2cpp6icalls8mscorlib6System15MonoCustomAttrs17IsDefinedInternalEP12Il2CppObjectP20Il2CppReflectionType
Xfg:_Enumerator__ctor_m40451936_AdjustorThunk
Azg:__Z53RuntimeInvoker_Vector3_t3722313464_Single_t1397266774PFvvEPK10MethodInfoPvPS4_
ESh:_SkeletonBone_t4134054672_marshal_pinvoke_back
V4i:__ZL115SynchronizationAttribute_t3946661254_CustomAttributesCacheGenerator_SynchronizationAttribute_IsContextOK_m324067792P21CustomAttributesCache
RVd:_CustomAttributeData_get_Constructor_m489601093
XAc:_cff_parse_font_bbox
pwe:_MSCompatUnicodeTable_Category_m1834196420
pfc:__Z35Application_Get_Custom_PropIsEditorv
Vdb:__ZN14PlayerSettings23VirtualRedirectTransferER18StreamedBinaryReadILb0EE
Qsf:_Double_CompareTo_m3151899116
JCi:__ZN6il2cpp2os5Event5ResetEv
UTb:__Z26CombineDepthNormalsTextureRK17RenderLoopContextR13dynamic_arrayI16RenderObjectDataLj4EE
pEc:_tt_name_ascii_from_other
jIh:_ToggleGroup__ctor_m3308114662
Bmi:__ZN6il2cpp8metadata15GenericMetadata17InflateParametersEPK13ParameterInfohPK20Il2CppGenericContextb
oSa:__ZN6Camera13AwakeFromLoadE17AwakeFromLoadMode
Knh:_Array_Sort_TisUILineInfo_t4195266810_m3737783007_gshared
RNi:_PlayableAsset_Internal_CreatePlayable_m2550417712
Xv:__ZNK17AnimationPlayable27GetNextCompatibleDescendantEi
Xcj:__ZL59ResolveEventArgs_t1779456501_CustomAttributesCacheGeneratorP21CustomAttributesCache
rKa:__ZN4PPtrI6SpriteE8TransferI18StreamedBinaryReadILb0EEEEvRT_
krd:_Convert_ToInt16_m3324557887
Zth:_TlsStream_Write_m188217214
tzb:__ZN4PPtrI9Texture2DE8TransferI18StreamedBinaryReadILb1EEEEvRT_
dJh:__ZL24UnresolvedVirtualCall_19P12Il2CppObject25DSAParameters_t1885824122PK10MethodInfo
MGb:__Z25SetNeedToPerformRenderingb
rGj:__ZN10__cxxabiv116__shim_type_infoD2Ev
AAh:_Alternation__ctor_m1629257642
b2f:_UInt64_System_IConvertible_ToInt32_m949522652_AdjustorThunk
AQa:__ZN10GameObjectD2Ev
WOb:__ZN14qsort_internal30FindAndMovePivotToLastPositionIP15RODataDepthPassi17ROSorterDepthPassEEvT_S4_T0_T1_
AQd:_MethodAccessException__ctor_m3411913042
Mbg:_EqualityComparer_1__ctor_m1767308726_gshared
HWb:__ZN12CullingGroup10SendEventsEPK17CullingGroupEventj
A0h:__ZNSt3__214__split_bufferI6pollfdRNS_9allocatorIS1_EEED2Ev
nxf:_NumberFormatInfo_get_PerMilleSymbol_m1360140831
zdf:_EncryptedData_get_EncryptionAlgorithm_m905084934
GMf:_Array_InternalArray__IEnumerable_GetEnumerator_TisCustomAttributeTypedArgument_t2723150157_m1333528454_gshared
A2c:_PointerInputModule__ctor_m3728889932
GX:__ZThn32_NK8Renderer8GetLayerEv
ugg:_Enumerator_System_Collections_IEnumerator_Reset_m2915500989_gshared
aBc:_cff_parse_vsindex
pli:__ZN30dense_hashtable_const_iteratorINSt3__24pairIK10KeyWrapperINS1_IPKcS4_EEEiEES6_24NamespaceAndNamePairHashN14dense_hash_mapIS6_iS9_NS6_14EqualsComparerI26NamespaceAndNamePairEqualsEENS0_9allocatorIS8_EEE9SelectKeyESD_SF_E30advance_past_empty_and_deletedEv
oFd:_Int32_ValidDigit_m1059003769
VPj:_emscripten_glTexParameterfv__wrapper
Q2h:__ZN6il2cpp2vm7Runtime23GetGenericVirtualMethodEPK10MethodInfoS4_
vme:_LayoutGroup_get_rectTransform_m442863741
xob:__Z18Transfer_BlittableI14SafeBinaryReadLb1E9BoundsIntEvRK29SerializationCommandArgumentsR31RuntimeSerializationCommandInfo
Adi:_il2cpp_method_get_param_count
_cc:__ZN10systeminfo19ISOToSystemLanguageERN4core12basic_stringIcNS0_20StringStorageDefaultIcEEEE
x7h:__ZNK15dense_hashtableINSt3__24pairIK10KeyWrapperINS1_IPK12PropertyInfoP11Il2CppClassEEEjEES9_17ReflectionMapHashIS8_EN14dense_hash_mapIS9_jSD_NS9_14EqualsComparerINS0_8equal_toIS8_EEEENS0_9allocatorISB_EEE9SelectKeyESI_SK_E3endEv
Xbh:__ZN28GenericInterfaceFuncInvoker2Ii39CustomAttributeNamedArgument_t287865710S0_E6InvokeEPK10MethodInfoP12Il2CppObjectS0_S0_
Cph:_LayoutGroup_SetProperty_TisAxis_t3613393006_m3591044743_gshared
Q2f:_UnauthorizedAccessException__ctor_m40101894
PYi:__ZL69RuntimeArray_CustomAttributesCacheGenerator_Array_SetValue_m282347242P21CustomAttributesCache
sIc:_ps_dimension_done
HNc:__Z46Register_UnityEngine_TextGenerator_Dispose_cppv
Wqg:__Z67RuntimeInvoker_GCHandle_t3351438187_RuntimeObject_Int32_t2950945753PFvvEPK10MethodInfoPvPS4_
Vsf:_Double_Parse_m4153729520
tjh:_IndexedSet_1_AddUnique_m861843892_gshared
sej:__ZL59HybridDictionary_t4070033136_CustomAttributesCacheGeneratorP21CustomAttributesCache
x4a:__ZN16LightmapSettings8TransferI14SafeBinaryReadEEvRT_
yoa:__ZN17BufferManagerGLES13ReleaseBufferEP14DataBufferGLES
Hef:_CipherSuite_Write_m1172814058
aPd:_SynchronizedWriter_Write_m301917713
H8:__ZN9profiling6MarkerC2EPKc13ProfilerGroupNS0_5FlagsE
MQe:__ZN21InterfaceFuncInvoker1Ii22UILineInfo_t4195266810E6InvokeEjP11Il2CppClassP12Il2CppObjectS0_
lvc:__Z18Transfer_BlittableI8JSONReadLb1EjEvRK29SerializationCommandArgumentsR31RuntimeSerializationCommandInfo
PWd:_ConstructorBuilder_get_IsCompilerContext_m3364441562
sHi:_Debug_LogWarning_m3752629331
kbh:_ReadOnlyCollection_1_System_Collections_Generic_IListU3CTU3E_RemoveAt_m4037795630_gshared
qsg:__Z117RuntimeInvoker_Void_t1185182177_RuntimeObject_Int32_t2950945753_Int32_t2950945753_Int32_t2950945753_Int32_t2950945753PFvvEPK10MethodInfoPvPS4_
Pxj:__ZL81U3CMouseDragOutsideRectU3Ec__Iterator1_t3909241878_CustomAttributesCacheGeneratorP21CustomAttributesCache
n5c:_U3COnFinishSubmitU3Ec__Iterator0_Reset_m3632769946
$o:stackSave
r7c:_ColorTween_get_targetColor_m1724075482_AdjustorThunk
NIc:_ps_dimension_end
fmc:__Z41Register_UnityEngine_Mesh_Internal_Createv
enb:__ZN16MemoryFileSystem5TouchER13FileEntryData
zmi:__ZNK15dense_hashtableI10KeyWrapperIP18Il2CppGenericClassES3_N6il2cpp8metadata22Il2CppGenericClassHashEN14dense_hash_setIS3_S6_NS3_14EqualsComparerINS5_25Il2CppGenericClassCompareEEENSt3__29allocatorIS3_EEE8IdentityESA_SD_E12test_deletedERK30dense_hashtable_const_iteratorIS3_S3_S6_SF_SA_SD_E
Xgg:_Enumerator_Dispose_m2498245804_AdjustorThunk
TAd:_Console_Open_m3077673205
ywh:_X509StoreManager_get_CurrentUser_m4040993045
eYb:__ZN6Camera9SetAspectEf
COf:_Array_InternalArray__IndexOf_TisDateTime_t3738529785_m2463359116_gshared
va:invoke_viiffiii
CBj:_Display_Start_m3623905221
AJe:_InternalEnumerator_1_MoveNext_m4138204635_gshared
kRj:_emscripten_glBindVertexArray__wrapper
Uoj:__ZL102TextGenerator_t3211863866_CustomAttributesCacheGenerator_TextGenerator_GetVerticesInternal_m3222977969P21CustomAttributesCache
mCh:_Parser_IsECMAScript_m674158805
nF:__ZN10ObjectPoolIN4FMOD3DSPENS0_4DSPIEE7GetFreeEi
vRa:__ZN9Transform37InitializeTransformHierarchyRecursiveER18TransformHierarchyRii
OHa:__ZN26SinglePassStereoSupportExt23SetupStereoMatrixParamsE21MonoOrStereoscopicEye24BuiltinShaderMatrixParamRK10Matrix4x4f
Ymh:_Array_Resize_TisVector2_t2156229523_m1564542050_gshared
sEj:_fscanf
nZc:__ZNK25UnityWebRequestJavaScript16GetUploadedBytesEv
ZP:__Z46AudioListener_CUSTOM_GetNumExtensionPropertiesP12Il2CppObject
e1h:__ZN6il2cpp6icalls8mscorlib6SystemL16CheckMemberMatchI9FieldInfoNS_5utils10functional6FilterINSt3__212basic_stringIcNS8_11char_traitsIcEENS8_9allocatorIcEEEENS5_13VmStringUtils23CaseInsensitiveComparerEEEEEbPKT_PK11Il2CppClassSN_iRKT0_
a$:__Z14GetMonoManagerv
POf:_Array_InternalArray__IndexOf_TisMonoResource_t4103430009_m1351751258_gshared
Puf:_FieldAccessException__ctor_m3583219052
alc:__Z57Register_UnityEngine_Transform_INTERNAL_set_localPositionv
hlj:__ZL105RectTransform_t3704657025_CustomAttributesCacheGenerator_RectTransform_INTERNAL_get_anchorMax_m1239315619P21CustomAttributesCache
Csa:__ZN13GfxDeviceGLES26SetRandomWriteTargetBufferEi15ComputeBufferID
Cxi:_GC_split_block
Tmh:_Array_Resize_TisUICharInfo_t75501106_m3903846016_gshared
X7g:_ReadOnlyCollection_1_System_Collections_Generic_ICollectionU3CTU3E_get_IsReadOnly_m3887826072_gshared
o7h:__ZNK15dense_hashtableINSt3__24pairIK10KeyWrapperINS1_IPK12PropertyInfoP11Il2CppClassEEEjEES9_17ReflectionMapHashIS8_EN14dense_hash_mapIS9_jSD_NS9_14EqualsComparerINS0_8equal_toIS8_EEEENS0_9allocatorISB_EEE9SelectKeyESI_SK_E8min_sizeEjj
JKb:__ZZ23InitPlayerLoopCallbacksvEN49EarlyUpdateResetFrameStatsAfterPresentRegistrator7ForwardEv
UEj:_poll
Z7g:_ReadOnlyCollection_1_System_Collections_IEnumerable_GetEnumerator_m1671097018_gshared
B2f:_UInt64_ToString_m1529093114_AdjustorThunk
ezj:__ZL85Selectable_t3250028441_CustomAttributesCacheGenerator_Selectable_IsPressed_m907486548P21CustomAttributesCache
z7d:_TypeLibImportClassAttribute__ctor_m2302178978
Qxe:_Escape_t3294788190_marshal_pinvoke
Rke:_InputField_OnUpdateSelected_m1118869681
Tki:__ZN6il2cpp2vmL36AddNestedTypesToNametoClassHashTableEP40Il2CppNameToTypeDefinitionIndexHashTablePKcRKNSt3__212basic_stringIcNS5_11char_traitsIcEENS5_9allocatorIcEEEEP11Il2CppClass
sed:_SerializationException__ctor_m3131447373
Bxa:__ZN4crnd12crn_unpacker11unpack_dxt1EPPhjjj
Jcc:__ZNK11ICallString6ToUTF8Ev
tJg:__Z39RuntimeInvoker_MonoResource_t4103430009PFvvEPK10MethodInfoPvPS4_
OTh:__ZN15dense_hashtableINSt3__24pairIK10KeyWrapperIPK22Il2CppGenericParameterEP11Il2CppClassEES6_N6il2cpp5utils11PointerHashIS4_EEN14dense_hash_mapIS6_S9_SE_NS6_14EqualsComparerINS0_8equal_toIS5_EEEENS0_9allocatorISA_EEE9SelectKeyESJ_SL_E15insert_noresizeERKSA_
sWe:_Transform_1_Invoke_m2468053724_gshared
frg:__Z51RuntimeInvoker_Void_t1185182177_TimeSpan_t881159249PFvvEPK10MethodInfoPvPS4_
XOb:__ZNSt3__211__sift_downIR17ROSorterDepthPassP15RODataDepthPassEEvT0_S5_T_NS_15iterator_traitsIS5_E15difference_typeES5_
g0a:__ZN18UnityPropertySheet11UnityTexEnvC2Ev
hfc:__ZNSt3__214__split_bufferIPN9BlobWrite11TypeContextENS_9allocatorIS3_EEE10push_frontERKS3_
Lnd:_ArgumentException__ctor_m3200406061
zA:__ZN8Animator17ApplyOnAnimatorIKEiRNS_11AnimatorJobE
p1:__ZN12FileAccessor4ReadEyyPvPy
QCb:__Z29Transfer_Blittable_ArrayFieldI18StreamedBinaryReadILb0EE11QuaternionfEvRT_R9ArrayInfoRK23StaticTransferFieldInfo
hTg:_List_1_set_Capacity_m2777925136_gshared
Rxj:__ZL195U3CMouseDragOutsideRectU3Ec__Iterator1_t3909241878_CustomAttributesCacheGenerator_U3CMouseDragOutsideRectU3Ec__Iterator1_System_Collections_Generic_IEnumeratorU3CobjectU3E_get_Current_m3688496850P21CustomAttributesCache
HXb:__ZN13RenderTexture9SetHeightEi
IEa:__ZNK6Camera20IsCurrentlyRenderingEv
mu:__ZN7mecanim9animation17ClearMotionOutputEPNS0_18AnimationNodeStateE
sff:_CipherSuiteCollection_get_IsFixedSize_m3127823890
JXa:__ZN16LevelGameManager8TransferI24GenerateTypeTreeTransferEEvRT_
MPe:_InternalEnumerator_1_System_Collections_IEnumerator_get_Current_m3537550566_gshared
zqe:_Scrollbar_UpdateVisuals_m2492252165
ovh:_PKCS12_get_Keys_m2165478388
tii:__ZN6il2cpp6icalls8mscorlib6System2IO6MonoIO17GetFileAttributesEP12Il2CppStringPi
Jid:_HMACMD5__ctor_m3008609295
knf:_DateTime__ParseAmPm_m3478436123
Qnf:_DateTime_ToString_m2992030064_AdjustorThunk
iFc:_tt_cmap8_char_index
__:__Z24scripting_class_get_name17ScriptingClassPtr
LNd:_Stream_WriteByte_m1519852120
IIh:_VerticalLayoutGroup_CalculateLayoutInputHorizontal_m1404590745
ica:__ZN13RuntimeStaticI15GUIEventManagerLb0EE13StaticDestroyEPv
DRd:_ShortComparer_Compare_m1881262465
oqb:__Z29Transfer_Blittable_ArrayFieldI14SafeBinaryReadjEvRT_R9ArrayInfoRK23StaticTransferFieldInfo
YIg:__Z53RuntimeInvoker_Keyframe_t4206410242_Int32_t2950945753PFvvEPK10MethodInfoPvPS4_
ee:_emscripten_set_keydown_callback
dTf:_EncoderReplacementFallback__ctor_m1483565116
p8e:_Interpreter_IsWordChar_m2858055765
Hyd:_Hashtable_CopyTo_m2905447224
x1:__ZN12FileAccessorC2Ev
Kbg:_EqualityComparer_1_System_Collections_IEqualityComparer_Equals_m3855544238_gshared
lGf:_String_System_IConvertible_ToDouble_m3740733360
qy:__ZThn152_NK26AnimatorControllerPlayable25GetStateMachineBehavioursEv
jjh:_EventFunction_1_Invoke_m2429482587_gshared
X2e:_AsnEncodedData_SubjectAltName_m4049949414
I2h:__ZN6il2cpp2vm7Runtime12GetConfigDirEv
HIh:_VerticalLayoutGroup__ctor_m321345421
_q:__ZN4PPtrI13MonoBehaviourE8TransferI18StreamedBinaryReadILb0EEEEvRT_
Ufg:_Enumerator_MoveNext_m1177880931_AdjustorThunk
$te:_Slider_UpdateVisuals_m3662961057
mqj:__ZL82Event_t2956885303_CustomAttributesCacheGenerator_Event_get_commandName_m4275147343P21CustomAttributesCache
hQh:_TextGenerator_Populate_m194003733
Qgj:__ZL111ScriptableObject_t2528358522_CustomAttributesCacheGenerator_ScriptableObject_CreateInstanceFromType_m1997111014P21CustomAttributesCache
SXd:_DerivedType_get_FullName_m1025358827
Pgd:_CryptoConfig_MapNameToOID_m2044758263
vxj:__ZL70InputField_t3762917431_CustomAttributesCacheGenerator_m_OnValueChangedP21CustomAttributesCache
EHb:__ZN13RenderManager22OnWindowSizeHasChangedEv
aFb:__Z39WriteQueueForTransferSignatureIntoCacheRK31TransferFunctionScriptingTraitsRK24TransferRequestSignature17ScriptingClassPtrR23CachedSerializationDataRb
jhb:__ZN13RenderManager18UpdateAllRenderersEv
pUf:_Encoding_get_UTF8UnmarkedUnsafe_m320312322
lYf:_Thread_Thread_free_internal_m333849022
yGe:_InternalEnumerator_1_System_Collections_IEnumerator_get_Current_m3575233890_gshared
zxh:_CostDelegate_BeginInvoke_m2828452701
QTc:__ZN22BaseUnityConnectClient30OnEnteringStatePausedOrStoppedEv
Q0g:_Collection_1_ConvertItem_m1556170494_gshared
Au:__ZN7mecanim5human12HumanPoseAddERNS0_9HumanPoseERKS1_S4_
Klf:_DateTime_ToUniversalTime_m1945318289
$Mh:__ZL25UnresolvedVirtualCall_231P12Il2CppObjectPK10MethodInfo
dvd:_ArrayList_ToArray_m3827492363
rue:_Slider_get_stepSize_m1423227661
w2f:_UInt64_Parse_m819899889
ABf:_SymmetricAlgorithm_set_IV_m3196220308
i_d:_GenericTypeParameterBuilder_GetHashCode_m852224381
KDd:_Convert_ToUInt32_m1453583008
Lvf:_CompareInfo_Compare_m894311506
dRa:__Z24MergeTransformComponentsR9TransformS0_b
IXh:__ZNK15dense_hashtableI10KeyWrapperIPK19Il2CppGenericMethodES4_N6il2cpp8metadata23Il2CppGenericMethodHashEN14dense_hash_setIS4_S7_NS4_14EqualsComparerINS6_26Il2CppGenericMethodCompareEEENSt3__29allocatorIS4_EEE8IdentityESB_SE_E10test_emptyEj
j$c:_EventSystem_UpdateModules_m3643806022
Iri:__ZN6il2cpp2gc16GarbageCollector10StartWorldEv
jSh:_AnimationOffsetPlayable__cctor_m1029460816
sgh:_InvokableCall_1__ctor_m2610016537_gshared
xDf:_Evidence_get_SyncRoot_m2835084965
TLf:_SetPropertyUtility_SetStruct_TisTouchScreenKeyboardType_t1530597702_m2455393348_gshared
T7f:_DefaultComparer__ctor_m2280347240_gshared
c7i:__ZL59ICryptoTransform_t2733259762_CustomAttributesCacheGeneratorP21CustomAttributesCache
Sti:__ZN6il2cpp2vm13ComObjectBase19GetRuntimeClassNameEPP15Il2CppHString__
bBd:_Convert_ToBoolean_m2833489984
Rj:_emscripten_glVertexAttribPointer
RGj:__ZNSt11logic_errorD0Ev
yVa:__ZNK20IntermediateRenderer12GetSceneMaskEv
PHb:__ZN14PreloadManager26UpdatePreloadingSingleStepENS_21UpdatePreloadingFlagsEi
Vjh:_TweenRunner_1__ctor_m340723704_gshared
fte:_ScrollRect_SetLayoutHorizontal_m3078869633
Fwe:_SimpleCollator__ctor_m1587210019
ljc:__Z57Register_UnityEngine_RectTransform_INTERNAL_set_anchorMinv
GDd:_Convert_ToUInt16_m1480956416
_ya:__ZN6prcoreL25inner_stretch_i8_bilinearEPKNS_9InnerInfoE
Dib:__ZL30RegisterFilteredObjectCallbackPP12Il2CppObjectiPv
Iah:_ReadOnlyCollection_1_System_Collections_Generic_IListU3CTU3E_RemoveAt_m3317217538_gshared
Mpj:__ZL54AudioSource_t3935305588_CustomAttributesCacheGeneratorP21CustomAttributesCache
eIb:__Z19InitializeGfxDevicev
uS:__ZN11UnityEngine15CloudWebService16SessionContainer24GetSessionHeaderJsonDataERKN4core12basic_stringIcNS2_20StringStorageDefaultIcEEEERNS2_13StringBuilderE
vXd:_DerivedType_GetEvent_m4157575360
Wba:__ZN13RuntimeStaticI21AssetReferenceStorageLb0EE13StaticDestroyEPv
Sfd:_SByte_System_IConvertible_ToType_m4075253447_AdjustorThunk
Txd:_Comparer__ctor_m2831654082
t4g:_Collection_1_ConvertItem_m618594517_gshared
ECg:__Z72RuntimeInvoker_Bounds_t2266837910_RuntimeObject_Matrix4x4U26_t3606180965PFvvEPK10MethodInfoPvPS4_
Cdh:__ZN28GenericInterfaceFuncInvoker2IbiiE6InvokeEPK10MethodInfoP12Il2CppObjectii
Cpi:__ZN6il2cpp6icalls8mscorlib6System9AppDomain22InternalGetProcessGuidEP12Il2CppString
gzc:_cf2_builder_moveTo
zbj:__ZL79Convert_t2465617642_CustomAttributesCacheGenerator_Convert_ToUInt32_m3188121845P21CustomAttributesCache
emg:__Z48RuntimeInvoker_RuntimeObject_Decimal_t2948259380PFvvEPK10MethodInfoPvPS4_
BYf:_ThreadStart_EndInvoke_m3768045394
ANa:__ZNK17FileSystemHandler10IsReadOnlyERK13FileEntryData
l1h:__ZNSt3__214__split_bufferIP9FieldInfoRNS_9allocatorIS2_EEEC2EjjS5_
Ved:_StreamingContext__ctor_m2604757771_AdjustorThunk
Lub:__Z18Transfer_BlittableI24GenerateTypeTreeTransferLb1EjEvRK29SerializationCommandArgumentsR31RuntimeSerializationCommandInfo
U6h:__ZNK15dense_hashtableINSt3__24pairIK10KeyWrapperINS1_IPK11Il2CppImageP11Il2CppClassEEEjEES9_17ReflectionMapHashIS8_EN14dense_hash_mapIS9_jSD_NS9_14EqualsComparerINS0_8equal_toIS8_EEEENS0_9allocatorISB_EEE9SelectKeyESI_SK_E10test_emptyERK30dense_hashtable_const_iteratorISB_S9_SD_SM_SI_SK_E
MTh:__ZN6il2cpp2os12FastAutoLockD2Ev
_1i:__ZL68AssemblyCopyrightAttribute_t836190902_CustomAttributesCacheGeneratorP21CustomAttributesCache
$6:__ZN11ColorRGBA328TransferI14SafeBinaryReadEEvRT_
Mnj:__ZL56PlayableAsset_t3219022681_CustomAttributesCacheGeneratorP21CustomAttributesCache
VYg:_Collection_1_Add_m1736908447_gshared
pBc:_cff_vstore_done
sxg:__Z68RuntimeInvoker_Void_t1185182177_UInt16_t2177724958_SByte_t1669577662PFvvEPK10MethodInfoPvPS4_
Y2f:__ZN25GenericVirtActionInvoker2IP12Il2CppObjectP39UnhandledExceptionEventArgs_t2886101344E6InvokeEPK10MethodInfoS1_S1_S3_
ufb:__ZN15ResourceManager10Dependency8TransferI24GenerateTypeTreeTransferEEvRT_
gjd:_MACTripleDES_HashFinal_m3613553534
S1f:_UInt64_System_IConvertible_ToChar_m2074245892
AWf:_UTF8Encoding_InternalGetBytes_m1965760031
Jf:_emscripten_glClearDepth
Q7b:__ZNK8GUILayer22GetTypeVirtualInternalEv
D5a:__ZN14SafeBinaryRead21TransferSTLStyleArrayINSt3__26vectorIN15QualitySettings14QualitySettingENS1_9allocatorIS4_EEEEEEvRT_17TransferMetaFlags
Ogh:_UnityAction_1__ctor_m3007623985_gshared
dFg:__Z56RuntimeInvoker_Boolean_t97287965_ILTokenInfo_t2325775114PFvvEPK10MethodInfoPvPS4_
tdb:__ZNSt3__26vectorINS_4pairIPKN5Unity4TypeE7Hash128EENS_9allocatorIS7_EEE8__appendEj
sBc:_cff_font_load
gqi:__GLOBAL__sub_I_LibraryLoader_cpp
Bdc:__Z13IsPathCreatedRKN4core12basic_stringIcNS_20StringStorageDefaultIcEEEE
hwj:__ZL99Dropdown_t2274391225_CustomAttributesCacheGenerator_Dropdown_DelayedDestroyDropdownList_m2082128994P21CustomAttributesCache
Fya:__ZL22stbir__encode_scanlineP11stbir__infoiPvPfiii
mJh:__ZL24UnresolvedVirtualCall_28P12Il2CppObjectS0_iiPK10MethodInfo
G6d:_ExternalException__ctor_m2877839282
kyc:__ZN20QuadTreeNodeRenderer13StaticDestroyEPv
qT:__ZN11UnityEngine15CloudWebService20WebRequestRestClient5AbortEv
yAh:_Regex_Matches_m2080913806
T4b:__ZN9Transform12CleanupClassEv
ASi:_Sprite_get_rect_m2575211689
Swj:__ZL85Graphic_t1660335611_CustomAttributesCacheGenerator_Graphic_OnPopulateMesh_m2916877004P21CustomAttributesCache
dLi:_Mathf_Sin_m3411839043
yMc:_UNITY_FT_Set_Pixel_Sizes
UTd:_OperatingSystem_Clone_m1122165140
Uqh:_GameObject_AddComponent_TisRuntimeObject_m3469369570_gshared
gka:__ZNSt3__26vectorIN9ShaderLab19SerializedSubShaderENS_9allocatorIS2_EEE26__swap_out_circular_bufferERNS_14__split_bufferIS2_RS4_EE
dA:__ZN11UnityEngine9Animation33SetGenericTransformPropertyValuesERKNS0_30AnimatorGenericBindingConstantERKN7mecanim10ValueArrayEP9Transformy
faj:__ZL59AttributeTargets_t1784037988_CustomAttributesCacheGeneratorP21CustomAttributesCache
n_g:_Collection_1_System_Collections_IList_get_Item_m3426129749_gshared
Nfi:__ZN6il2cpp2vmL24thread_cleanup_on_cancelEPv
lPg:_List_1_RemoveAll_m3165362277_gshared
V_f:_Type_type_is_subtype_of_m1406623598
$Wf:_Thread_get_CurrentThread_m4142136012
QVa:__Z30ProcessDynamicBatchGeometryJobP25DynamicVBOGeometryJobDataj
rPb:__ZNSt3__27__sort4IRNS_6__lessI11CulledLightS2_EEPS2_EEjT0_S6_S6_S6_T_
Yai:__ZN6il2cpp2vm14TypeNameParser26ParseArrayModifierOptionalEv
xNh:__ZL25UnresolvedVirtualCall_255P12Il2CppObject19Vector2_t2156229523PK10MethodInfo
VZ:__Z26scripting_object_get_class18ScriptingObjectPtr
Mgi:__ZN6il2cpp6icalls8mscorlib6System10Reflection8Assembly13get_code_baseEP24Il2CppReflectionAssemblyb
egb:__ZNSt3__26vectorIN4core12basic_stringIcNS1_20StringStorageDefaultIcEEEE13stl_allocatorIS5_L18MemLabelIdentifier13ELi16EEE7reserveEj
Xhd:_DSASignatureDeformatter__ctor_m2889130126
d6e:_X509ChainElementCollection_Clear_m2271223414
Q3b:__ZNK28MonoBehaviourPropertyBinding15GenerateBindingERKN4core12basic_stringIcNS0_20StringStorageDefaultIcEEEEbRN11UnityEngine9Animation14GenericBindingE
bRi:_RectTransform_INTERNAL_set_pivot_m1160676233
hUg:_List_1_set_Item_m35836043_gshared
Oyj:__ZL70ScrollRect_t4137855814_CustomAttributesCacheGenerator_m_OnValueChangedP21CustomAttributesCache
W5e:_X509ChainElementCollection__ctor_m3424079155
Hxh:_LinkStack_Push_m3081279930
zUe:_Enumerator_MoveNext_m1107569389_gshared
m1h:__ZNSt3__26vectorIP9FieldInfoNS_9allocatorIS2_EEE26__swap_out_circular_bufferERNS_14__split_bufferIS2_RS4_EE
ejh:_UnityEvent_3_GetDelegate_m1156357290_gshared
Rri:__ZN6il2cpp6icalls8mscorlib6System11Environment15internalGetHomeEv
lLe:_InternalEnumerator_1__ctor_m4200721464_gshared
ELi:_Matrix4x4_GetHashCode_m4034747639_AdjustorThunk
J5d:_ResourceCacheItem_t51292791_marshal_pinvoke_cleanup
kX:__ZNK5Unity9Component7GetNameEv
Q1h:__ZNSt3__214__split_bufferIN6il2cpp6icalls8mscorlib6System12PropertyPairERNS_9allocatorIS5_EEEC2EjjS8_
DBf:_SymmetricAlgorithm_get_KeySize_m4185004893
kNg:_List_1_GetEnumerator_m232588170_gshared
_me:_U3CDelayedSetDirtyU3Ec__Iterator0_Reset_m160466733
PGi:_Native__cctor_m1435623442
ySg:_List_1_System_Collections_IList_Remove_m1070694895_gshared
WEh:_LayoutCache__ctor_m3885940174
f6a:__ZN13ScreenManagerD0Ev
bSh:_AnimationMotionXToDeltaPlayable_GetHandle_m1319190040_AdjustorThunk
rB:__ZN7mecanim8skeleton26SkeletonPoseComputeGlobalQEPKNS0_8SkeletonEPKNS0_13SkeletonPoseTIN4math4trsXEEEPS7_ii
R1f:_UInt64_System_IConvertible_ToByte_m1501504925_AdjustorThunk
aQh:_TextGenerator_Invalidate_m1072346986
cif:_TlsClientHello_ProcessAsTls1_m2549285167
IKg:__Z74RuntimeInvoker_Boolean_t97287965_UIVertex_t4057497605_UIVertex_t4057497605PFvvEPK10MethodInfoPvPS4_
D8g:_ReadOnlyCollection_1_System_Collections_IList_Clear_m3591436538_gshared
Ore:_ScrollRect_set_decelerationRate_m723367336
TA:__ZN9BlobWrite8TransferI22OffsetPtrArrayTransferIiEEEvRT_PKc17TransferMetaFlags
USf:_EncoderExceptionFallback_Equals_m2760188920
Zsb:__Z18Transfer_BlittableI17RemapPPtrTransferLb1EjEvRK29SerializationCommandArgumentsR31RuntimeSerializationCommandInfo
Ejd:_RC2CryptoServiceProvider_get_EffectiveKeySize_m3835262416
VJ:__ZN4FMOD6System7releaseEv
Jwb:__Z18Transfer_BlittableI19StreamedBinaryWriteILb0EELb1E8BitFieldEvRK29SerializationCommandArgumentsR31RuntimeSerializationCommandInfo
Hrd:_Boolean_CompareTo_m3665076258
GGf:_String_Split_m3580120853
eCe:_PrivateKeyInfo__ctor_m2811023496
U0:__Z18PathToAbsolutePathRKN4core12basic_stringIcNS_20StringStorageDefaultIcEEEE
S$d:_PropertyBuilder_GetCustomAttributes_m2917594003
RFh:_GUILayoutUtility_LayoutFromEditorWindow_m2914699782
q_i:__ZL76MarshalAsAttribute_t3522571978_CustomAttributesCacheGenerator_MarshalTypeRefP21CustomAttributesCache
C9e:_BigInteger_SetBit_m1723423691
PDg:__Z78RuntimeInvoker_RuntimeObject_ObjectU26_t2146539884_RuntimeObject_RuntimeObjectPFvvEPK10MethodInfoPvPS4_
Z_i:__ZL65X509ExtensionCollection_t609554708_CustomAttributesCacheGeneratorP21CustomAttributesCache
hya:__ZL13BlitImageImplR14ImageReferenceiiRKS_NS_10ColorSpaceENS_8BlitModeEb
r9b:__ZN15DirectorManager17AcquireOutputNodeEv
qAa:__ZN6prcoreL17RemapGenericFloatI18TexFormatRGBAFloat17TexFormatRGBFloatEEvPKNS_9InnerInfoE
Xqh:_GameObject_GetComponentInChildren_TisRuntimeObject_m1310240902_gshared
NAe:__ZN30GenericInterfaceActionInvoker2IP12Il2CppObjectP21EventArgs_t3591816995E6InvokeEPK10MethodInfoS1_S1_S3_
gnj:__ZL69PersistentCall_t3407714124_CustomAttributesCacheGenerator_m_ArgumentsP21CustomAttributesCache
dHa:__ZN16GeometryJobTasks20ScheduleGeometryJobsER9GfxDevicePFvP15GeometryJobDataEPK22GeometryJobInstructionjb
qif:_TlsServerCertificateRequest_ProcessAsSsl3_m1084200341
rYa:__ZN16ReflectionProbes28GetMinBakedCubemapResolutionEv
pDf:_PermissionSet__ctor_m2328457660
DXe:_Enumerator__ctor_m1849900510_gshared
Ati:__GLOBAL__sub_I_String_cpp
LTh:__ZN15dense_hashtableINSt3__24pairIK10KeyWrapperIPK22Il2CppGenericParameterEP11Il2CppClassEES6_N6il2cpp5utils11PointerHashIS4_EEN14dense_hash_mapIS6_S9_SE_NS6_14EqualsComparerINS0_8equal_toIS5_EEEENS0_9allocatorISA_EEE9SelectKeyESJ_SL_E6insertERKSA_
_ke:_InputField_GenerateCaret_m1459647218
tlj:__ZL101SpriteAtlasManager_t3158462485_CustomAttributesCacheGenerator_SpriteAtlasManager_Register_m2413332465P21CustomAttributesCache
gvh:_X509CertificateEnumerator__ctor_m85694331
cua:__ZN14DataBufferGLES16RecreateWithDataEjPKv
O2:__Z29GetGlobalAllowNameConversionsv
ORf:_Array_InternalArray__Insert_TisTableRange_t3332867892_m558285859_gshared
mZb:__ZN8Material8SetColorEN9ShaderLab16FastPropertyNameERK10ColorRGBAf
Qtj:__ZL77ExecuteEvents_t3484638744_CustomAttributesCacheGenerator_U3CU3Ef__mgU24cacheFP21CustomAttributesCache
Ahg:_Enumerator_System_Collections_IEnumerator_Reset_m3754523291_gshared
HPj:_glUniform3uiv__wrapper
qaj:__ZL77Convert_t2465617642_CustomAttributesCacheGenerator_Convert_ToByte_m2375887898P21CustomAttributesCache
TL:__ZN11AudioSource23VirtualRedirectTransferER18StreamedBinaryReadILb0EE
$Oi:_RangeInt_get_end_m4128831787
Zba:__ZN21AssetReferenceStorageC2Ev
qgh:_InvokableCall_1_Find_m1741895083_gshared
oxb:__ZN10RectOffset8TransferI19StreamedBinaryWriteILb0EEEEvRT_
_Hj:dynCall_iiifiii
qRg:_List_1_set_Item_m2082115010_gshared
HTf:_Encoding_GetBytes_m3735967069
jpd:_Array_Initialize_m3004991267
EDa:__ZN14GfxContextGLES43AddRenderSurfaceToDeferredFBOInvalidateListEPK17RenderSurfaceGLES
mhi:__ZN6il2cpp6icalls8mscorlib6System9Threading6Thread15Thread_internalEP12Il2CppThreadP14Il2CppDelegate
uoa:__ZN11NamedObject23VirtualRedirectTransferER14SafeBinaryRead
lve:_Text_get_resizeTextMinSize_m1002355407
nMc:__ZNSt3__26vectorIN20TextRenderingPrivate8FontImpl13CharacterInfoE13stl_allocatorIS3_L18MemLabelIdentifier1ELi16EEE6insertENS_11__wrap_iterIPKS3_EERS9_
pLa:__ZN23PreloadManagerOperation6IsDoneEv
WNg:_List_1_GrowIfNeeded_m3796726_gshared
a6h:__ZNK15dense_hashtableINSt3__24pairIK10KeyWrapperINS1_IPK10MethodInfoP11Il2CppClassEEEjEES9_17ReflectionMapHashIS8_EN14dense_hash_mapIS9_jSD_NS9_14EqualsComparerINS0_8equal_toIS8_EEEENS0_9allocatorISB_EEE9SelectKeyESI_SK_E8min_sizeEjj
fti:__ZN6il2cpp5utils11StringUtils11Utf16ToUtf8ERKNSt3__212basic_stringIDsNS2_11char_traitsIDsEENS2_9allocatorIDsEEEE
dcf:_MD4Managed_Decode_m4273685594
ttg:__Z50RuntimeInvoker_Int64_t3736567304_Int16_t2552820387PFvvEPK10MethodInfoPvPS4_
Nhb:__ZN21LightProbeProxyVolume18HasHardwareSupportEv
qSb:__ZN26LightProbeProxyVolumeCacheC2ER13BatchRendererR15RenderLoopStats
Vya:__ZN6prcoreL31inner_stretch_argb8888_bilinearEPKNS_9InnerInfoE
Lyb:__Z18Transfer_BlittableI18StreamedBinaryReadILb1EELb1E8BitFieldEvRK29SerializationCommandArgumentsR31RuntimeSerializationCommandInfo
H5:__ZNK4PPtrI11LightProbesEcvPS0_Ev
RFc:_UNITY_FT_Outline_Decompose
LHd:_Int64_System_IConvertible_ToChar_m1509243576_AdjustorThunk
suh:_GeneralNames_get_IPAddresses_m4242915644
Ffg:_Enumerator_Dispose_m3500272053_AdjustorThunk
Uxi:_GC_init_size_map
qTa:__Z20scripting_object_new17ScriptingClassPtr
jZi:__ZL69RuntimeArray_CustomAttributesCacheGenerator_Array_Reverse_m3714848183P21CustomAttributesCache
rCe:_KeyGeneratedEventHandler_Invoke_m2527485594
R3e:_X509Extension_set_Critical_m1180944253
c5h:__ZN24dense_hashtable_iteratorINSt3__24pairIK10KeyWrapperINS1_IPK9FieldInfoP11Il2CppClassEEEjEES9_17ReflectionMapHashIS8_EN14dense_hash_mapIS9_jSD_NS9_14EqualsComparerINS0_8equal_toIS8_EEEENS0_9allocatorISB_EEE9SelectKeyESI_SK_E30advance_past_empty_and_deletedEv
xCh:_Repetition_get_Expression_m2673886232
kpf:_Decimal__ctor_m1925875020_AdjustorThunk
Ndd:_SerializationCallbacks__ctor_m3863304525
xLa:__ZN23PreloadManagerOperation21MustCompleteNextFrameEv
r6i:__ZL59SerializationInfo_t950877179_CustomAttributesCacheGeneratorP21CustomAttributesCache
P:Math_exp
$Ei:_Vector3_Min_m1803158933
Do:FUNCTION_TABLE_iiifi
lpi:__ZN6il2cpp2os5posix13PosixAutoLockD2Ev
Ath:_TlsServerSettings_set_CertificateTypes_m2047242411
XGh:_SymmetricTransform_OFB_m3690147804
VOe:_InternalEnumerator_1_MoveNext_m3713722659_AdjustorThunk
Pyc:_cff_get_advances
wEb:__ZN13MonoBehaviour9SetScriptERK4PPtrI10MonoScriptE18ScriptingObjectPtr
P3h:_RaycastHit2D_get_collider_m1549426026
gsb:__Z18Transfer_BlittableI17RemapPPtrTransferLb0E8Vector2fEvRK29SerializationCommandArgumentsR31RuntimeSerializationCommandInfo
mki:__ZNSt3__218uninitialized_copyIPNS_4pairIK10KeyWrapperIP14Il2CppIUnknownEjEES8_EET0_T_SA_S9_
rIg:__Z77RuntimeInvoker_Void_t1185182177_Vector2U5BU5DU26_t476646542_Int32_t2950945753PFvvEPK10MethodInfoPvPS4_
HDe:_PKCS12_get_RNG_m2649456600
KMa:__ZNK10FileSystem16LastErrorMessageEv
Ykh:_Array_InternalArray__Insert_TisVector3_t3722313464_m3862657277_gshared
Flj:__ZL104NativeClassAttribute_t2601352714_CustomAttributesCacheGenerator_U3CQualifiedNativeNameU3Ek__BackingFieldP21CustomAttributesCache
RDf:_SecurityException__ctor_m1631242336
LVh:__ZN15dense_hashtableINSt3__24pairIK10KeyWrapperIPK11Il2CppClassEPKcEES6_N6il2cpp5utils11PointerHashIS3_EEN14dense_hash_mapIS6_S9_SE_NS6_14EqualsComparerINS0_8equal_toIS5_EEEENS0_9allocatorISA_EEE9SelectKeyESJ_SL_E14squash_deletedEv
k0c:_EventSystem_Update_m1662072334
SZc:__ZN22UnityWebRequestManager10InitializeEv
NDb:__ZN13MonoBehaviour13AwakeFromLoadE17AwakeFromLoadMode
O0i:__ZL51FileMode_t1183438340_CustomAttributesCacheGeneratorP21CustomAttributesCache
Ssb:__ZL26Transfer_SimpleNativeClassI17RemapPPtrTransfer8GradientLb1EEvRK29SerializationCommandArgumentsR31RuntimeSerializationCommandInfo
O$c:_RaycasterManager_RemoveRaycasters_m3057093063
Cac:__ZN12CachedWriter9InitWriteER15CacheWriterBase
g9b:__Z21UnsignedInt64ToStringy
Ppe:_GetRaycastNonAllocCallback_BeginInvoke_m3984885848
BJe:_InternalEnumerator_1_MoveNext_m4138204635_AdjustorThunk
Jyh:_PatternCompiler_BeginLink_m1295557963
RRa:__ZN14SafeBinaryRead21TransferSTLStyleArrayI13dynamic_arrayI17SortingLayerEntryLj4EEEEvRT_17TransferMetaFlags
g7i:__ZL46MD5_t3177620429_CustomAttributesCacheGeneratorP21CustomAttributesCache
iEd:_GuidParser_ThrowFormatException_m3223388534
XBh:_Group_GetAnchorInfo_m3730312864
Kwj:__ZL50Graphic_t1660335611_CustomAttributesCacheGeneratorP21CustomAttributesCache
m_f:_TimeSpan_op_LessThanOrEqual_m300470010
pbe:_ContextAttribute_Freeze_m3288175579
a9e:_Interval_Merge_m3454211016_AdjustorThunk
Uda:__ZZN15DirectorManager15InitializeClassEvEN41FixedUpdateDirectorFixedUpdateRegistrator7ForwardEv
OMd:_MemoryStream_get_Position_m3733941202
xkh:_ListPool_1_Clear_m2587502754_gshared
Lij:__ZL96TouchScreenKeyboard_t731888065_CustomAttributesCacheGenerator_TouchScreenKeyboard_Open_m43950298P21CustomAttributesCache
NNh:_AudioClipPlayable_Equals_m3705880618
I0b:__ZL10KeyHandleriPK23EmscriptenKeyboardEventPv
ozd:_Slot_t3975888750_marshal_pinvoke
VQj:_glLinkProgram__wrapper
Ikb:__ZN18ScriptingArguments8AddInt64Ex
Dza:__ZN6prcoreL12RemapGenericI17TexFormatARGB888815TexFormatBGR888EEvPKNS_9InnerInfoE
nlb:__ZN12HandlerChain4LockER13FileEntryData12FileLockMode
Uxf:_TextInfo_get_ListSeparator_m1628160079
Htj:__ZL77ExecuteEvents_t3484638744_CustomAttributesCacheGenerator_U3CU3Ef__mgU24cache6P21CustomAttributesCache
Gte:_Selectable_OnCanvasGroupChanged_m472903475
iXf:_EventWaitHandle_Reset_m3348053200
YXe:_Enumerator_get_Current_m2897627569_gshared
EXc:__ZN28UnityConnectScriptingClasses23CallSessionStateChangedEixxbP21ScriptingExceptionPtr
Gff:_ClientContext_get_SslStream_m1583577309
Gji:__ZN6il2cpp6icalls8mscorlib6System13Globalization11CultureInfo35construct_internal_locale_from_nameEP17Il2CppCultureInfoP12Il2CppString
_ub:__ZL22Transfer_ManagedObjectI24GenerateTypeTreeTransferLb1EEvRK29SerializationCommandArgumentsR31RuntimeSerializationCommandInfo
clg:__Z100RuntimeInvoker_Boolean_t97287965_RuntimeObject_Int32_t2950945753_RuntimeObject_UInt16U26_t2814738322PFvvEPK10MethodInfoPvPS4_
NIg:__Z56RuntimeInvoker_ILTokenInfo_t2325775114_Int32_t2950945753PFvvEPK10MethodInfoPvPS4_
rid:_HMAC_get_BlockSizeValue_m455678067
XMb:__ZN15RenderNodeQueueC2E10MemLabelId
F5d:_ResourceEnumerator_FillCache_m1661715061
F8g:_ReadOnlyCollection_1_System_Collections_IList_IndexOf_m3664838805_gshared
s8i:__ZL72SecuritySafeCriticalAttribute_t3505979402_CustomAttributesCacheGeneratorP21CustomAttributesCache
Zj:_emscripten_set_main_loop_timing
PEi:_Bounds_get_min_m3755135869
zDd:_Convert_ToUInt16_m3523269149
BEi:_Bounds_get_center_m1418449258
yva:__ZN14DataBufferGLES12RecordRenderEv
j1c:_ExecuteEvents_get_endDragHandler_m2879610446
VYb:__ZN14ImageReference10FlipImageYEv
E$h:_UsedByNativeCodeAttribute__ctor_m2647015777
ISa:__Z32TransferEnumWithNameForceIntSizeI14SafeBinaryRead13TargetEyeMaskEvRT_RT0_PKc17TransferMetaFlags
noc:__Z14GetDefaultSkini
kF:__ZN4FMOD3DSP9setBypassEb
A0b:__Z19NormalizeWheelInputf
mbd:_Graphic_DoMeshGeneration_m3548487693
x$b:__Z29StdTemplateConversionFunctionIsaEbPvR14SafeBinaryRead
sy:__ZNK4PPtrI13MonoBehaviourEcvPS0_Ev
Wzh:_Repetition__ctor_m1672362629
mxc:__Z29Transfer_Blittable_ArrayFieldI8JSONReadhEvRT_R9ArrayInfoRK23StaticTransferFieldInfo
UEf:_SecurityFrame_ToString_m339310712_AdjustorThunk
j0d:_TypeBuilder_create_runtime_class_m2581270900
FHe:_InternalEnumerator_1_get_Current_m3008260692_gshared
rCi:__ZN6il2cpp2os20ThreadLocalValueImpl8SetValueEPv
UTa:__ZN22RenderingCommandBuffer20CleanupCommandBufferEv
erf:_Decimal_op_Implicit_m2299919277
bsc:__Z18Transfer_BlittableI9JSONWriteLb1EtEvRK29SerializationCommandArgumentsR31RuntimeSerializationCommandInfo
KPd:_UnexceptionalStreamReader_ReadToEnd_m920589220
Glf:_DateTime_System_IConvertible_ToType_m1242864300
dHf:_String_IndexOf_m1298810678
rk:___syscall85
uqj:__ZL85GUI_t1624858472_CustomAttributesCacheGenerator_GUI_set_nextScrollStepTime_m1026410471P21CustomAttributesCache
mrh:_Mesh_GetAllocArrayFromChannel_TisVector3_t3722313464_m2332439905_gshared
aNb:__ZNSt3__26__sortIRPFbP10GUIElementS2_EPS2_EEvT0_S7_T_
W7b:__ZN16GraphicsSettings12CleanupClassEv
fXd:_ConstructorBuilder_GetILGenerator_m1750792206
fTf:_EncoderFallback_get_ReplacementFallback_m818398284
cqi:__ZN6il2cpp2os6Thread19DetachCurrentThreadEv
F0c:_EventTrigger_OnBeginDrag_m4203438710
fUh:__ZN6il2cpp2vmL21SetupInterfacesLockedEP11Il2CppClassRKNS_2os12FastAutoLockE
Anb:__ZN11MonoManager23VirtualRedirectTransferER24GenerateTypeTreeTransfer
Aoh:_Dictionary_2_Do_CopyTo_TisRuntimeObject_TisRuntimeObject_m2344529027_gshared
rz:__ZN23AnimationPlayableOutput17SetSourcePlayableEP8Playable
Gri:__ZN6il2cpp2gc16GarbageCollector22MakeDescriptorForArrayEv
KJg:__Z37RuntimeInvoker_UILineInfo_t4195266810PFvvEPK10MethodInfoPvPS4_
VGi:_CullingGroup_Dispose_m782801025
J6f:_Dictionary_2_System_Collections_IDictionary_GetEnumerator_m529247385_gshared
qS:__ZN11UnityEngine15CloudWebService14DataDispatcher15SetupWebRequestEv
bVc:__ZN11UnityEngine15PlatformWrapper13GetShaderCapsEv
CUb:__ZNSt3__211__sift_downIR26RenderDeferredObjectSorterP16RenderObjectDataEEvT0_S5_T_NS_15iterator_traitsIS5_E15difference_typeES5_
SZd:_GenericTypeParameterBuilder_IsDefined_m98179866
oBe:_KeyPairPersistence_get_MachinePath_m3812267291
HAd:_Stack_Peek_m2216191248
tlf:_DateTime_System_IConvertible_ToDecimal_m1044850612_AdjustorThunk
E8b:__ZN21FixedBehaviourManager6UpdateEv
pdc:__ZN9Transform9SetParentEPS_NS_15SetParentOptionE
L4:__ZN19ShaderPropertySheet8SetFloatEN9ShaderLab16FastPropertyNameEfNS_8SetFlagsE
Dgb:__ZN19RuntimeSceneManager24BeginIntegrateMainThreadEP10UnityScene
iif:_TlsServerCertificate_ProcessAsSsl3_m1306583193
ari:__ZNSt3__2plIcNS_11char_traitsIcEENS_9allocatorIcEEEENS_12basic_stringIT_T0_T1_EERKS9_S6_
LOd:_StringReader_CheckObjectDisposedException_m3796163530
f1f:_UInt32_System_IConvertible_ToInt16_m1659441601
Jja:__ZN9ShaderLab20SerializedSubProgramaSERKS0_
AHj:_roundf
q4f:_Dictionary_2_pick_value_m4268517353_gshared
zsd:_Byte_System_IConvertible_ToSingle_m324484566_AdjustorThunk
Rqf:_Decimal_op_Explicit_m2848387298
leg:_KeyValuePair_2_ToString_m1238786018_gshared
Xs:__ZN8Animator15SetPrepareStageEv
LE:__ZN8AnimatorC2E10MemLabelId18ObjectCreationMode
gUh:__ZN6il2cpp2vmL24SetupTypeHierarchyLockedEP11Il2CppClassRKNS_2os12FastAutoLockE
J0b:__ZL11TextHandleriPK23EmscriptenKeyboardEventPv
Qee:_SoapFieldAttribute_get_XmlElementName_m2203304026
KLc:_destroy_face
gNj:_glBlendEquationSeparate__wrapper
Axc:__ZN5physx19PxAllocatorCallbackD2Ev
pzi:__ZN6il2cpp6icalls8mscorlib6System8Security12Cryptography24RNGCryptoServiceProvider13RngInitializeEP11Il2CppArray
Rfj:__ZL68UsedByNativeCodeAttribute_t1703770351_CustomAttributesCacheGeneratorP21CustomAttributesCache
aM:__ZN20SoundChannelInstance7setMuteEb
jlg:__Z81RuntimeInvoker_Void_t1185182177_RuntimeObject_Int32_t2950945753_Int32_t2950945753PFvvEPK10MethodInfoPvPS4_
pYa:__ZN4PPtrI5LightE8TransferI19StreamedBinaryWriteILb0EEEEvRT_
FNg:_List_1__cctor_m972674764_gshared
uTd:_NumberFormatter_NumberToString_m3906556024
Kzb:__Z19TransferField_ArrayI18StreamedBinaryReadILb1EE27Converter_SimpleNativeClassI17AnimationCurveTplIfEEEvRK23StaticTransferFieldInfoR31RuntimeSerializationCommandInfoRT0_
bwa:__ZN18GfxFramebufferGLES22MakeCurrentFramebufferENS_7BuiltinE
Cui:__ZN6il2cpp2vm12MarshalAlloc4FreeEPv
l7:__ZN12CachedReader4ReadEPvj
b5d:_TypeFilter_EndInvoke_m998903841
U3c:_StandaloneInputModule_ProcessMouseEvent_m2923582521
R6f:_KeyValuePair_2__ctor_m1794021352_gshared
Lxe:_SimpleCollator_MatchesForwardCore_m850743967
qRb:__Z24CalculateLightShadowFadeRK6CamerafffR8Vector4f
Caa:__ZN19RuntimeSceneManagerD2Ev
xnj:__ZL77DeallocateOnJobCompletionAttribute_t3131681843_CustomAttributesCacheGeneratorP21CustomAttributesCache
qma:__ZN13dynamic_arrayIPN9ShaderLab4PassELj4EE9push_backERKS2_
kvf:_CCGregorianCalendar_GetMonth_m1547203696
GT:__ZN11UnityEngine15CloudWebService25WebRequestDownloadHandler17OnCompleteContentEv
Uya:__ZN6prcore17GetIntegerBlitterE13TextureFormatS0_N14ImageReference8BlitModeE
txi:_GC_print_block_descr
t6h:__ZN6il2cpp2gc19AppendOnlyGCHashMapINSt3__24pairIPK11Il2CppImageP11Il2CppClassEEP22Il2CppReflectionModule17ReflectionMapHashIS9_ENS2_8equal_toIS9_EEE11TryGetValueERKS9_PSB_
G0i:__ZL51Directory_t828876208_CustomAttributesCacheGeneratorP21CustomAttributesCache
Npd:_SimpleEnumerator_Reset_m2182001888
IFg:__Z86RuntimeInvoker_Int32_t2950945753_Vector2_t2156229523_Vector2_t2156229523_RuntimeObjectPFvvEPK10MethodInfoPvPS4_
lfc:__ZN9BlobWrite14ReduceCopyImplERK14ReduceCopyDataj
a9:__ZNSt3__26__treeI19RepeatingLogMessageNS_4lessIS1_EE13stl_allocatorIS1_L18MemLabelIdentifier73ELi16EEE12__find_equalIS1_EERPNS_16__tree_node_baseIPvEESD_RKT_
OP:__ZN11AudioSource18IsPlayingScriptingEv
gBe:_KeyBuilder_IV_m2230195376
YLj:_glShaderSource__wrapper
COa:__ZN25MultiBlocksMemoryFileData17AdjustBlocksCountEj
Ygi:__ZNSt3__214__split_bufferIN6il2cpp2vm22EmbeddedResourceRecordERNS_9allocatorIS3_EEED2Ev
dKc:__ZN13TextRendering4Font8TransferI24GenerateTypeTreeTransferEEvRT_
_ra:__ZN9GfxDevice15EndProfileEventEPN9profiling6MarkerE
Ggc:__Z27CullingGroup_CUSTOM_DisposeP12Il2CppObject
Ggi:__ZN6il2cpp6icalls8mscorlib6SystemL23CheckWideningConversionEjjj
cYc:__ZNSt3__26vectorIP19BaseConnectSettings13stl_allocatorIS2_L18MemLabelIdentifier6ELi16EEE21__push_back_slow_pathIKS2_EEvRT_
HMb:__ZN13ComputeShader15SetTextureParamEjRKN9ShaderLab16FastPropertyNameE9TextureID16TextureDimension
jRe:_Comparer_1__ctor_m319670016_gshared
zm:_glStencilMask
Cqi:__ZN6il2cpp2os10ThreadImpl16GetCurrentThreadEv
d3d:_MonoMethod_GetBaseDefinition_m2844667474
C0b:__ZN15GUIEventManager10QueueEventERK10InputEvent
kYg:_Collection_1_Clear_m1300437781_gshared
I2g:_Collection_1_Contains_m1707523067_gshared
o6d:_DecimalConstantAttribute__ctor_m3583301917
W_g:_Collection_1_System_Collections_ICollection_get_IsSynchronized_m1640823718_gshared
Vwi:_GC_push_conditional_with_exclusions
WSe:_Enumerator_System_Collections_IDictionaryEnumerator_get_Entry_m2772123357_AdjustorThunk
Cde:_MethodCallDictionary__ctor_m2167303393
SB:__ZN12_GLOBAL__N_121ProcessAnimationBeginER35AnimationPlayableEvaluationConstantR32AnimationPlayableEvaluationInputR33AnimationPlayableEvaluationOutput
Caj:__ZL80Convert_t2465617642_CustomAttributesCacheGenerator_Convert_ToDecimal_m2858622624P21CustomAttributesCache
FEj:_strrchr
uGi:_Component_GetComponentInParent_m779177818
y9d:__ZN21InterfaceFuncInvoker1IP8String_tS1_E6InvokeEjP11Il2CppClassP12Il2CppObjectS1_
P4f:_Dictionary_2_System_Collections_ICollection_get_SyncRoot_m2069913662_gshared
u4c:_UIBehaviour_IsDestroyed_m3033055982
cwg:__Z109RuntimeInvoker_Void_t1185182177_RuntimeObject_RuntimeObject_SByte_t1669577662_Int32_t2950945753_RuntimeObjectPFvvEPK10MethodInfoPvPS4_
zUi:_Enumerator_Reset_m39541243
zje:_InputField_get_readOnly_m3111985574
CYa:__ZN14RenderSettings27UpdateIndirectSpecularColorEv
EKi:_Logger_get_logHandler_m1335645353
ueb:__ZN14PlayerSettings8TransferI18StreamedBinaryReadILb0EEEEvRT_
w1h:__ZN6il2cpp6icalls8mscorlib6System8MonoType16GetMethodsByNameEP20Il2CppReflectionTypeP12Il2CppStringibS5_
I5i:__ZL73ObjRef_t2141158884_CustomAttributesCacheGenerator_U3CU3Ef__switchU24map26P21CustomAttributesCache
Fuj:__ZL102PointerEventData_t3807901092_CustomAttributesCacheGenerator_PointerEventData_set_pointerId_m1888344330P21CustomAttributesCache
Dpj:__ZL88AudioClip_t3680889665_CustomAttributesCacheGenerator_AudioClip_get_ambisonic_m3815052287P21CustomAttributesCache
Vme:_U3CDelayedSetDirtyU3Ec__Iterator0__ctor_m3936335621
P5:__ZN4PPtrI10GameObjectE8TransferI14SafeBinaryReadEEvRT_
Nnj:__ZL106PlayableAsset_t3219022681_CustomAttributesCacheGenerator_PlayableAsset_Internal_CreatePlayable_m2550417712P21CustomAttributesCache
BXf:_Monitor_Monitor_wait_m3706677354
ckd:_RijndaelTransform__cctor_m2439033240
WIb:__ZNSt3__27__sort3IRNS_4lessIN22BuiltinResourceManager8ResourceEEEPS3_EEjT0_S7_S7_T_
MZi:__ZL175U3CGetEnumeratorU3Ec__Iterator0_t1202911786_CustomAttributesCacheGenerator_U3CGetEnumeratorU3Ec__Iterator0_System_Collections_Generic_IEnumeratorU3CTU3E_get_Current_m322251035P21CustomAttributesCache
AIc:_ps_hints_t2mask
wch:_Comparison_1__ctor_m3138326461_gshared
YKf:_Array_InternalArray__ICollection_Remove_TisMonoResource_t4103430009_m238733686_gshared
ZId:_IntPtr_ToString_m1831665121
Bue:_Slider_Set_m1476104429
i5d:__ZN28GenericInterfaceFuncInvoker1IP10Assembly_tP28ResolveEventArgs_t1779456501E6InvokeEPK10MethodInfoP12Il2CppObjectS3_
_cd:_Image_set_fillClockwise_m2210525152
dbb:__ZN10BlendShape8TransferI19StreamedBinaryWriteILb0EEEEvRT_
QF:__Z32TransferEnumWithNameForceIntSizeI14SafeBinaryReadN10SampleClip8LoadTypeEEvRT_RT0_PKc17TransferMetaFlags
QId:__Z21il2cpp_codegen_sizeofP11Il2CppClass
NCa:__Z19GetTimeSinceStartupv
ydd:_Image_AddQuad_m2161647989
A$c:_BaseInputModule_DeactivateModule_m856719157
sqi:__ZN6il2cpp2os10ThreadImpl11SetPriorityENS0_14ThreadPriorityE
ohg:_Enumerator_System_Collections_IEnumerator_Reset_m2953002685_gshared
ang:__Z50RuntimeInvoker_Int64_t3736567304_Int32_t2950945753PFvvEPK10MethodInfoPvPS4_
WHc:_TT_Load_Composite_Glyph
bsa:__ZN9GfxDevice16DeleteTimerQueryEP13GfxTimerQuery
SUg:_List_1_Insert_m1695211546_gshared
Maf:__ZN21InterfaceFuncInvoker2IbP22BigInteger_t2902905090iE6InvokeEjP11Il2CppClassP12Il2CppObjectS1_i
XAg:__Z49RuntimeInvoker_Void_t1185182177_Color_t2555686324PFvvEPK10MethodInfoPvPS4_
q$a:__ZN9ShaderLab11shaderprops9GetTexEnvEPK19ShaderPropertySheetS3_NS_16FastPropertyNameE16TextureDimensionb
oPg:_List_1_Sort_m3232912161_gshared
KPb:__ZN29RenderNodeQueuePrepareContextC2Ev
mdi:_il2cpp_gc_disable
Vka:__ZN9ShaderLab20SerializedSubProgram16TextureParameter8TransferI24GenerateTypeTreeTransferEEvRT_
Zhd:_DSASignatureDeformatter_SetKey_m2999549245
Pzi:__ZN6il2cpp2os11MutexHandle4WaitEb
mpa:__ZN9GfxDevice19SaveStereoConstantsEv
Ozi:__ZN6il2cpp2os11MutexHandle4WaitEj
bec:__ZL34GetComponentsImplementationRecurseILb1ELi1ELi1EEbR10GameObjectbRK17CompareParametersRK39GetComponentsImplementation_ReturnValue
kog:__Z114RuntimeInvoker_Boolean_t97287965_RuntimeObject_RuntimeObject_Int32_t2950945753_Int32_t2950945753_Int32_t2950945753PFvvEPK10MethodInfoPvPS4_
xWd:_AssemblyBuilder_GetTypes_m3415680380
NAa:__ZN6prcoreL17RemapGenericFloatI15TexFormatRGHalf18TexFormatARGBFloatEEvPKNS_9InnerInfoE
Trf:_StackFrame_GetMethod_m1395840764
QZa:__ZNK13RenderTexture13GetDataHeightEv
aHb:__Z18SimulateMouseInputi
YLb:__ZN13RenderManager23AddRemoveCamerasDelayedEv
gtc:__ZN9JSONWrite8TransferI13dynamic_arrayIdLj8EEEEvRT_PKc17TransferMetaFlags
rLa:__ZN23PreloadManagerOperation11GetPriorityEv
lme:_LayoutElement_OnEnable_m1760066426
Iqc:__ZN5Unity9rapidjson6WriterI16TempBufferWriterNS0_4UTF8IcEES4_13JSONAllocatorE11WriteUint64Ey
yqd:_BitConverter__cctor_m3841343255
eqf:_Decimal_Compare_m3062820418
h9e:_IntervalCollection_GetMetaCollection_m4029522214
A0c:_EventTrigger_OnDeselect_m1919608102
UPh:_TextGenerator_get_characterCount_m864136654
dEi:_AsyncOperation_t1445031843_marshal_pinvoke_cleanup
oZf:_TimeSpan__ctor_m2047388489_AdjustorThunk
GXb:__ZN13RenderTexture8SetWidthEi
_3b:__ZNK28RectTransformPropertyBinding12SetPPtrValueERKN11UnityEngine9Animation10BoundCurveEi
kJb:__ZN18FrameTimingManager18GetVSyncsPerSecondEv
QAb:__Z18Transfer_BlittableI18StreamedBinaryReadILb0EELb0EfEvRK29SerializationCommandArgumentsR31RuntimeSerializationCommandInfo
pbb:__ZN10MeshFilterD0Ev
YHc:_UNITY_FT_GlyphLoader_CheckSubGlyphs
_Ge:_InternalEnumerator_1__ctor_m1341209356_AdjustorThunk
VRb:__Z25SetupObjectBakedOcclusionbRK15SharedLightDataRK26SharedLightmapSettingsDataRK15LightmapIndicesR17ShaderPassContext
rZg:_Collection_1_System_Collections_ICollection_CopyTo_m1516601228_gshared
u_g:_Collection_1_CopyTo_m4278237485_gshared
y0g:_Collection_1_Add_m3860636938_gshared
RIh:__ZL23UnresolvedVirtualCall_5P12Il2CppObjectsPK10MethodInfo
zD:__ZN4PPtrI6AvatarE8TransferI19StreamedBinaryWriteILb0EEEEvRT_
rig:_List_1_Insert_m4050947056_gshared
T4:__ZN9ShaderLab16FastPropertyName4InitEPKc
KKe:_InternalEnumerator_1__ctor_m39232262_AdjustorThunk
Fxg:__Z48RuntimeInvoker_OperatingSystemFamily_t1868066375PFvvEPK10MethodInfoPvPS4_
y9i:__ZL61Thread_t2300836069_CustomAttributesCacheGenerator_local_slotsP21CustomAttributesCache
j3b:__Z13RegisterClassIN2UI13RectTransformEEvv
P3g:_Collection_1_System_Collections_IEnumerable_GetEnumerator_m3596816767_gshared
hMh:__ZL25UnresolvedVirtualCall_185P12Il2CppObject40CustomAttributeTypedArgument_t2723150157S1_PK10MethodInfo
o7b:__ZL31MeshRendererTransformChangedJobP13BoundsJobDatajPK23TransformAccessReadOnlyPKyj
Bvc:__ZN8JSONRead21TransferSTLStyleArrayI31ArrayOfManagedObjectsTransfererEEvRT_17TransferMetaFlags
itd:_Char_System_IConvertible_ToByte_m2347554595_AdjustorThunk
xmj:__ZL59TooltipAttribute_t3957072629_CustomAttributesCacheGeneratorP21CustomAttributesCache
v7a:__ZN10VertexData8TransferI17RemapPPtrTransferEEvRT_
rZa:__ZN13RenderTexture9SetMipMapEb
aWh:__ZN15dense_hashtableINSt3__24pairIK10KeyWrapperIPK11Il2CppClassEPKcEES6_N6il2cpp5utils11PointerHashIS3_EEN14dense_hash_mapIS6_S9_SE_NS6_14EqualsComparerINS0_8equal_toIS5_EEEENS0_9allocatorISA_EEE9SelectKeyESJ_SL_E13set_empty_keyERKSA_
fIf:_String_CreateString_m860434552
oea:__Z18GetDirectorManagerv
UXe:_Enumerator_System_Collections_IEnumerator_Reset_m278261807_AdjustorThunk
_Yg:_Collection_1_GetEnumerator_m1824095167_gshared
p3i:__ZL107CriticalFinalizerObject_t701527852_CustomAttributesCacheGenerator_CriticalFinalizerObject__ctor_m3245424448P21CustomAttributesCache
rHd:_Int32_Equals_m2976157357_AdjustorThunk
Kkc:__Z38Transform_CUSTOM_INTERNAL_get_rotationP12Il2CppObjectP11Quaternionf
Oee:_SoapAttribute_get_XmlNamespace_m859394681
i6h:__ZNK15dense_hashtableINSt3__24pairIK10KeyWrapperINS1_IPK10MethodInfoP11Il2CppClassEEEjEES9_17ReflectionMapHashIS8_EN14dense_hash_mapIS9_jSD_NS9_14EqualsComparerINS0_8equal_toIS8_EEEENS0_9allocatorISB_EEE9SelectKeyESI_SK_E5beginEv
mxh:_X509ExtensionCollection_System_Collections_IEnumerable_GetEnumerator_m1475785462
dua:__ZN7ApiGLES19UploadBufferSubDataEjN2gl12BufferTargetEllPKv
FSh:_SkeletonBone_t4134054672_marshal_pinvoke_cleanup
zga:__ZNSt3__216__rotate_forwardINS_11__wrap_iterIPN4core12basic_stringIcNS2_20StringStorageDefaultIcEEEEEEEET_S9_S9_S9_
XOg:__ZN21InterfaceFuncInvoker0I19Color32_t2600501292E6InvokeEjP11Il2CppClassP12Il2CppObject
lca:__ZdaPv
hSi:_SendMouseEvents_HitTestLegacyGUI_m579942228
BSd:_MulticastDelegate_Equals_m2502840627
EBf:_SymmetricAlgorithm_set_KeySize_m3805756466
Fsd:_Byte_System_IConvertible_ToUInt32_m1049546902_AdjustorThunk
gxg:__Z53RuntimeInvoker_Double_t594665363_Interval_t1802865632PFvvEPK10MethodInfoPvPS4_
fJb:__Z21InitializeBatchedJobsv
UQh:_CanvasGroup_get_blocksRaycasts_m1805542303
mAf:_SHA1Internal_ProcessBlock_m1991889327
Upb:__Z19TransferField_ArrayI14SafeBinaryRead27Converter_SimpleNativeClassI8GUIStyleEEvRK23StaticTransferFieldInfoR31RuntimeSerializationCommandInfoRT0_
wmj:__ZL60PropertyAttribute_t3677895545_CustomAttributesCacheGeneratorP21CustomAttributesCache
Tji:__ZN15dense_hashtableINSt3__24pairIK10KeyWrapperIP14Il2CppIUnknownEjEES5_N6il2cpp5utils11PointerHashIS3_EEN14dense_hash_mapIS5_jSB_NS5_14EqualsComparerINS0_8equal_toIS4_EEEENS0_9allocatorIS7_EEE9SelectKeyESG_SI_ED2Ev
fnh:_Array_Sort_TisRuntimeObject_TisRuntimeObject_m1685639929_gshared
yzi:__ZN6il2cpp5utils10MemoryPoolC2Ev
ZXa:__ZN14RenderSettings5ResetEv
f2b:__ZN6Sprite9BindAtlasERK4PPtrI11SpriteAtlasE
Qpc:__ZN5Unity9rapidjson12GenericValueINS0_4UTF8IcEE13JSONAllocatorE10FindMemberIS4_EENS0_21GenericMemberIteratorILb0ES3_S4_EERKNS1_IS3_T_EE
qLe:_InternalEnumerator_1_System_Collections_IEnumerator_get_Current_m3892960115_AdjustorThunk
Lhi:__ZNSt3__212basic_stringIDsNS_11char_traitsIDsEENS_9allocatorIDsEEE6appendEPKDsj
RGh:_SymmetricTransform_Finalize_m4129642865
fvd:_ArrayList_Clone_m2682741233
Did:_HMAC_HashCore_m3684104066
Nch:__ZN28GenericInterfaceFuncInvoker2Ii20UIVertex_t4057497605S0_E6InvokeEPK10MethodInfoP12Il2CppObjectS0_S0_
oqc:__ZN5Unity9rapidjson13GenericReaderINS0_4UTF8IcEES3_13JSONAllocatorE11ParseNumberILj1ENS0_25GenericInsituStringStreamIS3_EENS0_15GenericDocumentIS3_S4_S4_EEEEvRT0_RT1_
RYi:__ZL88RuntimeArray_CustomAttributesCacheGenerator_Array_CreateInstance_m1027597705____lengths1P21CustomAttributesCache
_$g:_Collection_1_RemoveItem_m2911050674_gshared
alg:__Z79RuntimeInvoker_UInt16_t2177724958_RuntimeObject_Int32_t2950945753_RuntimeObjectPFvvEPK10MethodInfoPvPS4_
mqi:__ZN6il2cpp2os10ThreadImplD2Ev
Txf:_TextInfo_System_Runtime_Serialization_IDeserializationCallback_OnDeserialization_m1492046432
jrc:__ZN8Gradient8TransferI9JSONWriteEEvRT_
mhb:__ZN21RendererUpdateManager18OncePerFrameUpdateER13RendererScene
fPh:_AudioSource_set_clip_m31653938
Yrj:__ZL81TextEditor_t2759855366_CustomAttributesCacheGenerator_TextEditor__ctor_m242049450P21CustomAttributesCache
cBd:_Convert_ToBoolean_m2833621053
ZKa:__ZNK12TLSAllocatorI14StackAllocatorE22GetAllocatedMemorySizeEv
Kej:__ZL62WebHeaderCollection_t1942268960_CustomAttributesCacheGeneratorP21CustomAttributesCache
c3:__ZN17RemapPPtrTransfer12PushMetaFlagE17TransferMetaFlags
Nag:_EqualityComparer_1_System_Collections_IEqualityComparer_GetHashCode_m2138064395_gshared
bN:__ZNK7WeakPtrI20SoundChannelInstanceE10SharedData9GetRawPtrEv
_kb:__ZN12HandlerChain4NameEv
K7c:_FloatTween_t1274330004_marshal_pinvoke
QEd:_Int16_System_IConvertible_ToType_m3672347013_AdjustorThunk
qHf:_String_LastIndexOf_m578673845
Hrb:__Z29Transfer_Blittable_ArrayFieldI14SafeBinaryReadN4math12int3_storageEEvRT_R9ArrayInfoRK23StaticTransferFieldInfo
EEf:_SecurityException_ToString_m3228070608
AGd:_Int16_ToString_m2013897809
jOi:_PlayableOutput_GetHandle_m777137769_AdjustorThunk
GEf:_String_Substring_m2848979100
FSc:__Z44Register_UnityEngine_CanvasRenderer_get_cullv
hTh:__ZN15dense_hashtableINSt3__24pairIK10KeyWrapperIPK22Il2CppGenericParameterEP11Il2CppClassEES6_N6il2cpp5utils11PointerHashIS4_EEN14dense_hash_mapIS6_S9_SE_NS6_14EqualsComparerINS0_8equal_toIS5_EEEENS0_9allocatorISA_EEE9SelectKeyESJ_SL_ED2Ev
ufh:__ZN23GenericVirtFuncInvoker1Ib19Vector4_t3319028937E6InvokeEPK10MethodInfoP12Il2CppObjectS0_
BEf:_SecurityException_get_PermissionType_m2237538728
Z$b:__Z29StdTemplateConversionFunctionIbbEbPvR14SafeBinaryRead
iUc:__ZN11UnityEngine7Connect17XRDeviceInfoEvent12XRDeviceInfoD2Ev
Wnb:__Z44InitializeTransferFunctionScriptingTraitsForI17RemapPPtrTransferEvR31TransferFunctionScriptingTraits
lJh:__ZL24UnresolvedVirtualCall_27P12Il2CppObjectS0_aPK10MethodInfo
S3b:__ZNSt3__26vectorI16MessageForwarder13stl_allocatorIS1_L18MemLabelIdentifier7ELi8EEE6resizeEj
r5e:_X509Chain_SelectBestFromCollection_m1068759221
_Gh:_SymmetricTransform_TransformBlock_m851059707
_Xi:__ZL68IntPtr_t_CustomAttributesCacheGenerator_IntPtr_ToPointer_m4157623054P21CustomAttributesCache
Z3g:_Collection_1_System_Collections_IList_get_IsReadOnly_m2978442176_gshared
oWg:_Enumerator_System_Collections_IEnumerator_Reset_m2261065994_AdjustorThunk
rse:_ScrollRect_get_verticalNormalizedPosition_m3693218937
Cgb:__ZN18LoadSceneOperation21MustCompleteNextFrameEv
Due:_Slider_UpdateDrag_m1102107039
G3d:_MonoMethodInfo_get_method_info_m88651774
bM:__ZNK12AudioManager16GetAudioListenerEv
NGd:_Int32_System_IConvertible_ToDateTime_m1824716955
V4f:_Dictionary_2_System_Collections_Generic_ICollectionU3CSystem_Collections_Generic_KeyValuePairU3CTKeyU2CTValueU3EU3E_CopyTo_m331407443_gshared
rfd:_RuntimeTypeHandle__ctor_m3315980708_AdjustorThunk
X7i:__ZL69IIdentityPermissionFactory_t3268650966_CustomAttributesCacheGeneratorP21CustomAttributesCache
zQh:_Canvas_set_overrideSorting_m4088794420
lXb:__ZNSt3__26vectorI11CameraStackNS_9allocatorIS1_EEE8__appendEj
A8f:_DefaultComparer_Equals_m2585095694_gshared
wwh:_X509Chain_get_TrustAnchors_m2434696767
Ydd:__ZN25GenericVirtActionInvoker1I28StreamingContext_t3711869237E6InvokeEPK10MethodInfoP12Il2CppObjectS0_
Lih:_UnityEvent_1_GetDelegate_m25714567_gshared
su:__ZN7mecanim9animation12GetHumanPoseERKNS0_18ClipMuscleConstantEPKNS0_10ValueDeltaERNS_5human9HumanPoseE
iw:__ZN22AnimationMixerPlayable17ProcessRootMotionEP35AnimationPlayableEvaluationConstantP32AnimationPlayableEvaluationInputP33AnimationPlayableEvaluationOutput
txb:__Z29Transfer_Blittable_ArrayFieldI19StreamedBinaryWriteILb0EEjEvRT_R9ArrayInfoRK23StaticTransferFieldInfo
_0:__Z13GetFileSystemv
oba:__ZNK5Unity4Type21FindAllDerivedClassesER13dynamic_arrayIPKS0_Lj4EENS0_17TypeFilterOptionsE
dXi:__ZL54IEnumerable_t1941168011_CustomAttributesCacheGeneratorP21CustomAttributesCache
hca:__ZN13RuntimeStaticI15GUIEventManagerLb0EE16StaticInitializeEPv
_Bb:__ZL12InvokeMethodI18StreamedBinaryReadILb0EEEvRK29SerializationCommandArgumentsR31RuntimeSerializationCommandInfo
z3f:_Version_CompareTo_m3146217210
Phf:_TlsClientCertificate_FindParentCertificate_m3844441401
QQf:_Array_InternalArray__ICollection_CopyTo_TisKeyValuePair_2_t71524366_m1056941380_gshared
I_f:_Type_get_IsClass_m589177581
U_f:_Type_get_IsSystemType_m624798880
_zb:__Z29Transfer_Blittable_ArrayFieldI18StreamedBinaryReadILb1EE5RectTIfEEvRT_R9ArrayInfoRK23StaticTransferFieldInfo
onb:__ZN19ShaderPropertySheet9SetMatrixEN9ShaderLab16FastPropertyNameERK10Matrix4x4fNS_8SetFlagsE
A3a:__Z29GetTextureSizeAllowedMultiple13TextureFormat
Ypf:_Decimal_Subtract_m835601464
CKb:__ZZ23InitPlayerLoopCallbacksvEN52InitializationAsyncUploadTimeSlicedUpdateRegistrator7ForwardEv
qwg:__Z73RuntimeInvoker_Boolean_t97287965_RuntimeObject_IPv6AddressU26_t3285609463PFvvEPK10MethodInfoPvPS4_
ggb:__ZNSt3__26vectorIN4core12basic_stringIcNS1_20StringStorageDefaultIcEEEE13stl_allocatorIS5_L18MemLabelIdentifier13ELi16EEE8__appendEj
U8b:__ZN21IntermediateRenderers3AddEP20IntermediateRenderer
xci:_il2cpp_array_element_size
CQd:_MissingMemberException__ctor_m2571045846
HWi:__ZL62ComVisibleAttribute_t1362837655_CustomAttributesCacheGeneratorP21CustomAttributesCache
CPg:_List_1_System_Collections_IEnumerable_GetEnumerator_m1824431956_gshared
ZQi:_RectTransform_INTERNAL_set_sizeDelta_m188783163
Wf:_glCheckFramebufferStatus
Vyi:__ZN6il2cpp2os11EventHandle4WaitEv
WDe:_U3CGetEnumeratorU3Ec__Iterator0_System_Collections_Generic_IEnumeratorU3CTU3E_get_Current_m9057020_gshared
UU:__ZN19CloudServiceHandler20StartEventDispatcherERKN11UnityEngine15CloudWebService18CloudServiceConfigERNS1_23WebRequestRestHeaderMapE
Mbd:_GraphicRaycaster__ctor_m646559428
sef:_CipherSuite_get_CipherAlgorithmType_m137858741
axd:_BitArrayEnumerator_get_Current_m4220391712
QUd:__Z37il2cpp_codegen_get_executing_assemblyPK10MethodInfo
BRi:_Transform_get_parent_m835071599
bYg:_Collection_1_System_Collections_IList_Remove_m3686118478_gshared
ykb:__ZN9Transform23VirtualRedirectTransferER17RemapPPtrTransfer
x1e:_IPAddress_get_ScopeId_m4237202723
vr:__ZN4core8hash_mapIN11UnityEngine9Animation14GenericBindingENS2_10BoundIndexENS2_25GenericBindingHashFunctorENS2_30GenericBindingValueArrayUniqueEE4growEi
Ft:__ZN21AnimationClipPlayable7SetTimeEd
_zh:_ExpressionCollection_get_Item_m3510736379
Mqh:_Array_InternalArray__get_Item_TisVector3_t3722313464_m2720091419_gshared
t3c:_StandaloneInputModule_get_inputActionsPerSecond_m3946624274
FWf:_UTF8Encoding_InternalGetCharCount_m82458470
qVi:_Vector2__cctor_m2108982652
Szg:__Z72RuntimeInvoker_Boolean_t97287965_Vector4_t3319028937_Vector4_t3319028937PFvvEPK10MethodInfoPvPS4_
ur:__ZN4core8hash_mapIN11UnityEngine9Animation14GenericBindingENS2_10BoundIndexENS2_25GenericBindingHashFunctorENS2_30GenericBindingValueArrayUniqueEE4growEv
rOe:_InternalEnumerator_1_MoveNext_m2734554195_AdjustorThunk
Wji:__ZN14dense_hash_mapI10KeyWrapperIP14Il2CppIUnknownEjN6il2cpp5utils11PointerHashIS1_EENS3_14EqualsComparerINSt3__28equal_toIS2_EEEENS9_9allocatorINS9_4pairIKS3_jEEEEE15set_deleted_keyERSF_
Bba:__ZN22BuiltinResourceManager16StaticInitializeEPv
Sfi:__ZN6il2cpp2gc9AllocatorIP12Il2CppThreadE10deallocateEPvj
O8h:__ZN13Il2CppHashMapIPK14Il2CppAssemblyPK22Il2CppMonoAssemblyNameN6il2cpp5utils11PointerHashIS1_EENSt3__28equal_toIS2_EENSA_9allocatorINSA_4pairIK10KeyWrapperIS2_ES5_EEEEEC2EjRKS9_RKSC_
iLh:__ZL25UnresolvedVirtualCall_132P12Il2CppObjectiPK10MethodInfo
rnd:_DelegatePInvokeWrapper_AppDomainInitializer_t682969308
f0:__ZN8Remapper6RemoveEi
lih:_UnityEvent_1__ctor_m3777630589_gshared
cPa:__ZN10MemoryFile4ReadEyPvPy
GTf:_Encoding_GetBytes_m3148649984
uMc:__ZL36CleanupTextRenderingScriptingClassesv
DXb:__ZN15ReflectionProbe17UseRendererResultEP13ProbeRenderer
$lc:__Z34Mesh_CUSTOM_SetArrayForChannelImplP12Il2CppObject30InternalScriptingShaderChannel34InternalScriptingVertexChannelTypeiP11Il2CppArrayi
Z_:__Z32scripting_class_get_nested_types17ScriptingClassPtrRNSt3__26vectorIS_13stl_allocatorIS_L18MemLabelIdentifier1ELi16EEEE
aRh:_CanvasRenderer_INTERNAL_CALL_EnableRectClipping_m3318097918
X1f:_UInt64_System_IConvertible_ToDecimal_m806594027_AdjustorThunk
RSe:_Enumerator_System_Collections_IEnumerator_get_Current_m361750367_AdjustorThunk
Sih:_UnityEvent_1_GetDelegate_m274387680_gshared
Ofe:_RealProxy_InternalGetTransparentProxy_m1765012608
HMg:_List_1__ctor_m3395838871_gshared
w4g:_Collection_1_IsFixedSize_m3698021882_gshared
C8f:_DefaultComparer_GetHashCode_m2651362016_gshared
Iuh:_PKCS12__ctor_m1854440921
Jmh:_Array_Resize_TisCustomAttributeNamedArgument_t287865710_m885566878_gshared
iug:__Z85RuntimeInvoker_RuntimeObject_RuntimeObject_SByte_t1669577662_ExceptionU26_t3600731591PFvvEPK10MethodInfoPvPS4_
j7f:_DefaultComparer__ctor_m2556554241_gshared
VD:__ZN11UnityEngine9Animation28GenericAnimationBindingCache25RegisterIAnimationBindingEPKN5Unity4TypeEiP17IAnimationBinding
AZi:__ZL66RuntimeArray_CustomAttributesCacheGenerator_Array_Sort_m2537416106P21CustomAttributesCache
JSc:__Z70RectTransformUtility_CUSTOM_INTERNAL_CALL_RectangleContainsScreenPointP12Il2CppObjectRK13Vector2fIcallS0_
DKd:_DirectoryInfo__ctor_m481305441
G6e:_X509ExtensionCollection_get_SyncRoot_m2667861032
ZTh:__ZN6il2cpp2vm5Class15GetElementClassEP11Il2CppClass
v9:__ZN10MemoryPoolC2E10MemLabelIdbPKciii
O0g:_Collection_1_SetItem_m941095285_gshared
dWb:__Z40ProcessCameraIndexListIsNodeVisibleInOutRK22SceneCullingParametersPK9SceneNodePK4AABBR9IndexList
VFh:_GUIScrollGroup_SetHorizontal_m291416666
eVa:__ZN16GraphicsSettings8TransferI17RemapPPtrTransferEEvRT_
hQc:__ZN2UI6Canvas13UpdateBatchesEb
n3e:_X509BasicConstraintsExtension_Decode_m120598446
oz:__ZNK23AnimationPlayableOutput11DerivesFromE17ScriptingClassPtr
A2a:__ZN7Texture19SupportsAsyncUploadI19StreamedBinaryWriteILb0EEEEbRT_
Ezg:__Z49RuntimeInvoker_Boolean_t97287965_Rect_t2360479859PFvvEPK10MethodInfoPvPS4_
Okj:__ZL101Transform_t3600365921_CustomAttributesCacheGenerator_Transform_INTERNAL_get_localRotation_m1111330565P21CustomAttributesCache
Ptg:__Z51RuntimeInvoker_UInt32_t2560061978_Int16_t2552820387PFvvEPK10MethodInfoPvPS4_
$oa:__ZNK13GfxDeviceGLES12GetWireframeEv
gHh:_DelegatePInvokeWrapper_Action_t1264377477
nrj:__ZL64EventType_t3528516131_CustomAttributesCacheGenerator_dragUpdatedP21CustomAttributesCache
DVc:__ZN11UnityEngine7Connect13ConfigHandler12GetListenersERKN4core12basic_stringIcNS2_20StringStorageDefaultIcEEEE
Jqa:__ZN9GfxDevice18AllocRenderSurfaceEb
atd:_Char__cctor_m2787437263
_1b:__ZN10TagManager32GetSortingLayerUniqueIDFromValueEi
I4c:_AspectRatioFitter_get_rectTransform_m2996235303
M_:__ZL27CleanupCoreScriptingClassesv
Qwf:_DateTimeFormatInfo_get_IsReadOnly_m1173781646
lxf:_NumberFormatInfo_get_PercentPositivePattern_m1800841633
Jbd:_Graphic_UnregisterDirtyMaterialCallback_m2707090617
VRe:_Comparer_1_System_Collections_IComparer_Compare_m1313384821_gshared
nne:_LayoutRebuilder_GetHashCode_m1943075341
k_d:_GenericTypeParameterBuilder_MakeGenericType_m3048165991
Oic:__Z26AnimationCurve_CUSTOM_InitP12Il2CppObjectP11Il2CppArray
BPj:_glUniform1uiv__wrapper
z8h:__ZN6il2cpp2vm10Reflection7IsEventEP12Il2CppObject
gCi:__ZNSt3__26__treeINS_12__value_typeIPFvvEPK10MethodInfoEENS_19__map_value_compareIS3_S7_NS_4lessIS3_EELb1EEENS_9allocatorIS7_EEE16__insert_node_atEPNS_16__tree_node_baseIPvEERSI_SI_
zZ:__ZN17PersistentManager26GetStreamNameSpaceInternalEi
ZF:__ZN4FMOD6System11createSoundEPKcjP22FMOD_CREATESOUNDEXINFOPPNS_5SoundE
Xn:FUNCTION_TABLE_iiifiiii
vOe:_InternalEnumerator_1_System_Collections_IEnumerator_Reset_m1451164462_AdjustorThunk
ryc:__ZN13SpeedTreeWind20AdvanceWithoutUpdateEd
slf:_DateTime_System_IConvertible_ToDecimal_m1044850612
oMg:_List_1_IndexOf_m2206067159_gshared
xGe:_InternalEnumerator_1_System_Collections_IEnumerator_Reset_m1318888374_AdjustorThunk
_9:__ZN9ShaderLab19CommonPropertyNames13StaticCleanupEPv
z$:__Z31scripting_method_get_returntype18ScriptingMethodPtr
gKh:__ZL24UnresolvedVirtualCall_76P12Il2CppObjectPK10MethodInfo
V4a:__ZN15SerializeTraitsI12LightmapDataE8TransferI24GenerateTypeTreeTransferEEvRS0_RT_
$Cf:_SecurityElement_AddAttribute_m311510562
_Lj:_glStencilOpSeparate__wrapper
Ebc:__ZN4Mesh5SetUvEiPKfjj
W5a:__ZN7Texture13SetAnisoLimitENS_20AnisotropicFilteringE
$N:__ZN11AudioModule16SetListenerPauseEb
oqd:_Attribute_IsDefined_m4069052474
Qh:_emscripten_glCompressedTexSubImage2D
tDa:__ZN13GfxDeviceGLES22MemoryBarrierImmediateEyN2gl17MemoryBarrierTypeE
Gle:_U3CCaretBlinkU3Ec__Iterator0_Dispose_m860898205
$Aa:__ZN6prcoreL26RemapGenericFloatToIntegerI18TexFormatARGBFloat17TexFormatARGB8888EEvPKNS_9InnerInfoE
bVg:_List_1_set_Capacity_m1977188119_gshared
Xdc:__Z46GetShaderModelNumericValueFromRequirementsMask18ShaderRequirements
dCc:_cff_ps_has_glyph_names
w9c:_DropdownItem_get_rectTransform_m3147806615
U6f:_Dictionary_2_Resize_m3287623642_gshared
xvi:_GC_write
OYi:__ZL69RuntimeArray_CustomAttributesCacheGenerator_Array_SetValue_m394135409P21CustomAttributesCache
yjd:_RC2_Create_m2516417038
tbd:_Graphic_OnPopulateMesh_m767318148
Wid:_HMACSHA512_set_ProduceLegacyHmacValues_m3961135292
BJh:__ZL24UnresolvedVirtualCall_43P12Il2CppObjectS0_PK10MethodInfo
C_e:_Dictionary_2_Remove_m4193450060_gshared
Tze:_ASN1_get_Tag_m1032367219
wId:_Int64_TryParse_m3606398488
Jlh:_Array_InternalArray__set_Item_TisMark_t3471605523_m1299772331_gshared
Cpc:__Z44Register_UnityEngine_GUIStyle_SetDefaultFontv
Txb:__Z18Transfer_BlittableI18StreamedBinaryReadILb1EELb1EiEvRK29SerializationCommandArgumentsR31RuntimeSerializationCommandInfo
RA:__ZN9BlobWrite8TransferI22OffsetPtrArrayTransferIKN4math7_float3EEEEvRT_PKc17TransferMetaFlags
qog:__Z173RuntimeInvoker_Int32_t2950945753_RuntimeObject_Int32_t2950945753_Int32_t2950945753_Int32_t2950945753_RuntimeObject_Int32_t2950945753_SByte_t1669577662_ContextU26_t3937453398PFvvEPK10MethodInfoPvPS4_
BOg:_List_1__ctor_m2576108087_gshared
n7h:__ZN15dense_hashtableINSt3__24pairIK10KeyWrapperINS1_IPK12PropertyInfoP11Il2CppClassEEEjEES9_17ReflectionMapHashIS8_EN14dense_hash_mapIS9_jSD_NS9_14EqualsComparerINS0_8equal_toIS8_EEEENS0_9allocatorISB_EEE9SelectKeyESI_SK_E12maybe_shrinkEv
dvh:_X509Certificate_get_DSA_m565099499
syb:__Z18Transfer_BlittableI18StreamedBinaryReadILb1EELb1EsEvRK29SerializationCommandArgumentsR31RuntimeSerializationCommandInfo
XUf:_StringBuilder_Remove_m940064945
shd:_DESCryptoServiceProvider_GenerateIV_m683687014
Ccg:_GenericComparer_1__ctor_m1900257738_gshared
ROe:_InternalEnumerator_1_get_Current_m3792939945_gshared
NTc:__ZN22BaseUnityConnectClient17OnEnterStateReadyEv
tve:_Text_get_fontSize_m1677872538
Nhd:_DSACryptoServiceProvider_get_PublicOnly_m3933928860
afj:__ZL63X509ChainStatusFlags_t1026973125_CustomAttributesCacheGeneratorP21CustomAttributesCache
RTa:__ZN14GrowableBufferD2Ev
cic:__Z29Input_CUSTOM_GetMouseButtonUpi
fFd:_Int16_Parse_m138525169
W1h:__ZN6il2cpp6icalls8mscorlib6System8MonoType16InternalGetEventEP20Il2CppReflectionTypeP12Il2CppStringi
FDh:_UriScheme_t722425697_marshal_pinvoke_back
XDc:_UNITY_tt_face_load_maxp
ric:__Z46Input_CUSTOM_INTERNAL_set_compositionCursorPosRK13Vector2fIcall
yt:__ZN7mecanim5human12FullBodyMaskEv
oBj:__ZL62Shadow_t773074319_CustomAttributesCacheGenerator_m_EffectColorP21CustomAttributesCache
sye:_BigInteger_ToString_m3475000413
hcb:__ZN19ShaderPropertySheet11ComputeHashEv
JXh:__ZN30dense_hashtable_const_iteratorI10KeyWrapperIPK19Il2CppGenericMethodES4_N6il2cpp8metadata23Il2CppGenericMethodHashEN14dense_hash_setIS4_S7_NS4_14EqualsComparerINS6_26Il2CppGenericMethodCompareEEENSt3__29allocatorIS4_EEE8IdentityESB_SE_EppEv
I8c:_Resources_t1597885468_marshal_pinvoke_cleanup
ozb:__ZN4PPtrI6ObjectE8TransferI18StreamedBinaryReadILb1EEEEvRT_
pT:__ZN11UnityEngine15CloudWebService20WebRequestRestClient6IsDoneEv
tBh:_Group__ctor_m2980794822
esh:_X509CertificateCollection_get_Item_m1033426577
Jfh:_CachedInvokableCall_1_Invoke_m502907382_gshared
Ni:_llvm_fabs_f32
US:__ZN11UnityEngine15CloudWebService16SessionContainer16GetJsonDataBlockEjRKN4core12basic_stringIcNS2_20StringStorageDefaultIcEEEERS6_PjSA_
Pze:_ASN1_Decode_m1695284166
hef:__ZN23GenericVirtFuncInvoker0IP28ValidationResult_t3834298736E6InvokeEPK10MethodInfoP12Il2CppObject
k9h:__ZN15dense_hashtableINSt3__24pairIK10KeyWrapperIPK14Il2CppAssemblyEPK22Il2CppMonoAssemblyNameEES6_N6il2cpp5utils11PointerHashIS4_EEN14dense_hash_mapIS6_SA_SF_NS6_14EqualsComparerINS0_8equal_toIS5_EEEENS0_9allocatorISB_EEE9SelectKeyESK_SM_E13set_empty_keyERKSB_
Z$g:_Collection_1_RemoveAt_m2240641437_gshared
Dtf:_Enum_ToString_m3248653065
PZ:__ZN14SafeBinaryReadD2Ev
XLf:_SetPropertyUtility_SetStruct_TisFillMethod_t1167457570_m4164776730_gshared
c3b:__Z13RegisterClassI7TextureEvv
vhg:_Enumerator_MoveNext_m3859993671_gshared
Izb:__ZN8Gradient8TransferI18StreamedBinaryReadILb1EEEEvRT_
Naf:_SequentialSearchPrimeGeneratorBase_IsPrimeAcceptable_m1127740833
_6e:_Capture__ctor_m3103117740
Y7a:__ZN4core8hash_mapINS_12basic_stringIcNS_20StringStorageDefaultIcEEEE13dynamic_arrayI4PPtrI6SpriteELj4EENS_4hashIS4_EENSt3__28equal_toIS4_EEEixERKS4_
ong:__Z113RuntimeInvoker_Void_t1185182177_RuntimeObject_Int64_t3736567304_RuntimeObject_Int64_t3736567304_Int64_t3736567304PFvvEPK10MethodInfoPvPS4_
bUh:__ZN6il2cpp2vmL17SetupEventsLockedEP11Il2CppClassRKNS_2os12FastAutoLockE
sji:__ZN6il2cpp6icalls8mscorlib6System4Type15MakeGenericTypeEP20Il2CppReflectionTypeP11Il2CppArray
nj:_SDL_PauseAudio
Qyd:_Hashtable_Clone_m3078962909
Uci:_il2cpp_class_from_type
c3h:__ZN6il2cpp2os4File11GetStdErrorEv
p$h:_NativeHeaderAttribute__ctor_m457462113
dbj:__ZL77Convert_t2465617642_CustomAttributesCacheGenerator_Convert_ToSByte_m516918950P21CustomAttributesCache
Z9:__ZN9ShaderLab19CommonPropertyNames16StaticInitializeEPv
AIb:__ZN17ShaderPassContext8CopyFromERKS_
Hib:__ZN13MemoryManager31DisallowAllocationsOnThisThreadEv
WC:__ZN7mecanim9animation18CreateAvatarOutputEPKNS0_14AvatarConstantEbbRNS_6memory9AllocatorE
tod:_Array_GetLongLength_m561139708
Xsj:__ZL90CanvasRenderer_t2598313366_CustomAttributesCacheGenerator_CanvasRenderer_Clear_m1522820210P21CustomAttributesCache
jue:_Slider_set_maxValue_m2251404465
Uue:_SpriteState_get_pressedSprite_m3868967445_AdjustorThunk
VL:__ZN11AudioSource23VirtualRedirectTransferER24GenerateTypeTreeTransfer
obc:__ZN7Texture11SetWrapModeE15TextureWrapMode
t8a:__ZN14Texture2DArray23VirtualRedirectTransferER14SafeBinaryRead
FQd:_MissingMemberException__ctor_m1220732369
lRb:__ZNK6Camera21CalculateCanDoShadowsEv
iCg:__Z52RuntimeInvoker_Void_t1185182177_Int32U26_t1369213839PFvvEPK10MethodInfoPvPS4_
MDi:_Application_InvokeOnBeforeRender_m2875673833
Xpi:__ZN6il2cpp2os6Thread12SetStackSizeEj
Goe:_MaskableGraphic_RecalculateMasking_m183336762
dqh:_Array_InternalArray__get_Item_TisRuntimeObject_m3347010206_gshared
z0d:_TypeBuilder_IsSubclassOf_m3458909121
jbc:__ZNK8Renderer16IsVisibleInSceneEv
nZ:__Z13VFormatBufferPciPKcz
OAb:__Z18Transfer_BlittableI18StreamedBinaryReadILb0EELb1EhEvRK29SerializationCommandArgumentsR31RuntimeSerializationCommandInfo
_kd:_X509Certificate__cctor_m198658613
iqg:__Z43RuntimeInvoker_MethodAttributes_t2366443849PFvvEPK10MethodInfoPvPS4_
$Ni:_PlayableHandle_Equals_m1666612586_AdjustorThunk
dBa:__ZN6prcoreL27StretchGenericFloatBilinearI15TexFormatRFloatEEvPKNS_9InnerInfoE
Jej:__ZL139ServicePointManager_t170559685_CustomAttributesCacheGenerator_ServicePointManager_t170559685____CheckCertificateRevocationList_PropertyInfoP21CustomAttributesCache
Ptf:_Enum_ToObject_m1628250250
lw:__Z24ProcessAnimationMixBeginP35AnimationPlayableEvaluationConstantP32AnimationPlayableEvaluationInputP33AnimationPlayableEvaluationOutput
kTg:_List_1_set_Item_m2057272351_gshared
gya:__Z14PadImageBorderR14ImageReferenceii
P5h:__ZN15dense_hashtableINSt3__24pairIK10KeyWrapperINS1_IPK10MethodInfoP11Il2CppClassEEEjEES9_17ReflectionMapHashIS8_EN14dense_hash_mapIS9_jSD_NS9_14EqualsComparerINS0_8equal_toIS8_EEEENS0_9allocatorISB_EEE9SelectKeyESI_SK_E4findERSA_
U_h:__ZN6il2cpp2vm13MetadataCache28GetFieldDefaultValueForFieldEPK9FieldInfo
jOf:_Array_IndexOf_TisUIVertex_t4057497605_m3336763564_gshared
o_g:__ZN21InterfaceFuncInvoker1I22OrderBlock_t1585977831iE6InvokeEjP11Il2CppClassP12Il2CppObjecti
Pw:__ZN27AnimationLayerMixerPlayableD2Ev
V6c:_ColorBlock_Equals_m518833916_AdjustorThunk
dnj:__ZL66PersistentCall_t3407714124_CustomAttributesCacheGenerator_m_TargetP21CustomAttributesCache
eI:__ZN12AudioManager39HandlePendingAudioConfigurationCallbackEv
kk:_emscripten_glIsFramebuffer
wCe:_RSAManaged_EncryptValue_m799827583
U1:__ZN12_GLOBAL__N_16qAtan2Eff
Ekg:__Z61RuntimeInvoker_UInt32_t2560061978_RuntimeObject_RuntimeObjectPFvvEPK10MethodInfoPvPS4_
sYf:_ThreadAbortException__ctor_m1955533141
ok:_JS_Sound_SetLoopPoints
Nca:__ZN15dense_hashtableINSt3__24pairIKyP17VertexDeclarationEEy14GfxGenericHashIyEN14GfxDoubleCacheIyS4_S7_NS0_8equal_toIyEEN31GfxDoubleCacheConcurrencyPolicy11LocklessGetE42GfxDoubleCacheDefaultEmptyDeletedGeneratorIyEE9SelectKeyESA_13stl_allocatorIS5_L18MemLabelIdentifier24ELi16EEE14squash_deletedEv
jN:__ZN12AudioManager17ShouldSourcePauseEb
Zzi:__ZN6il2cpp2vm26MetadataAllocGenericMethodEv
hLf:_Array_InternalArray__ICollection_Remove_TisUInt16_t2177724958_m1766181761_gshared
eHa:__ZN19ConstantBuffersGLES12RecordRenderEv
Uih:_UnityEvent_1__ctor_m3675246889_gshared
$sc:__ZN9JSONWrite8TransferI10RectOffsetEEvRT_PKc17TransferMetaFlags
Nxa:__ZN4crnd12symbol_codec11decode_bitsEj
WEg:__Z59RuntimeInvoker_Boolean_t97287965_KeyValuePair_2_t3842366416PFvvEPK10MethodInfoPvPS4_
Gcf:_EncryptedPrivateKeyInfo__ctor_m3415744930
Zzc:_cf2_doFlex
H2e:_AsnEncodedData__ctor_m3792312694
rHh:_AesManaged_GenerateIV_m1368817386
D8b:__ZN21FixedBehaviourManagerD0Ev
TRa:__ZN13dynamic_arrayI17SortingLayerEntryLj4EE6insertEPS0_jRKS0_
iI:__ZN4FMOD6System12createReverbEPPNS_6ReverbE
Gw:__ZN7mecanim19ValueArrayBlendNodeILb1EEEvRKNS_10ValueArrayERKNS_14ValueArrayMaskERS1_RS4_RNS_16ValueArrayWeightEf
ugd:_CodeAccessPermission_GetHashCode_m880096813
Jib:__Z16MarkDependenciesR27GarbageCollectorThreadStatej
SUd:_AssemblyConfigurationAttribute__ctor_m3236176989
Jkh:_ObjectPool_1_get_countInactive_m526975942_gshared
sJh:__ZL24UnresolvedVirtualCall_34P12Il2CppObjectPK10MethodInfo
Ffe:_RemotingServices_DisposeIdentity_m2605848806
e2:__ZNK9Transform11GetPositionEv
$Ld:_WriteDelegate_EndInvoke_m952736984
LEi:_Bounds_set_size_m4127623202
gEd:_GuidParser_Reset_m2640004655
iWa:__ZN23SharedMeshRenderingData18UnloadVertexStreamEi
T8b:__ZN31CanvasBatchIntermediateRenderer11AddSubBatchERK16DrawBuffersRangePK19ShaderPropertySheet
B7b:__ZN19RenderEventsContextC2Ei
eR:__Z6simd4fRKf
Dkj:__ZL67SceneManager_t2787271929_CustomAttributesCacheGenerator_sceneLoadedP21CustomAttributesCache
Xwf:_GregorianCalendar_GetEra_m2369958449
Sk:_emscripten_glEnable
mJe:_InternalEnumerator_1_System_Collections_IEnumerator_get_Current_m2982675020_gshared
MRa:__ZN10TagManager23VirtualRedirectTransferER14SafeBinaryRead
gyj:__ZL51RawImage_t3182918964_CustomAttributesCacheGeneratorP21CustomAttributesCache
_3g:_Collection_1_System_Collections_IList_get_Item_m2931804586_gshared
qfe:_ObjRef_get_EnvoyInfo_m1782007847
MOg:_List_1_System_Collections_ICollection_get_IsSynchronized_m3331050698_gshared
WTb:__Z15InitLightMeshesv
q2d:_MonoCMethod_ToString_m3992577062
D3h:_RaycastHit_get_collider_m1464180279
An:FUNCTION_TABLE_iifiii
xTh:__ZNK15dense_hashtableINSt3__24pairIK10KeyWrapperIPK22Il2CppGenericParameterEP11Il2CppClassEES6_N6il2cpp5utils11PointerHashIS4_EEN14dense_hash_mapIS6_S9_SE_NS6_14EqualsComparerINS0_8equal_toIS5_EEEENS0_9allocatorISA_EEE9SelectKeyESJ_SL_E10test_emptyEj
mah:_ReadOnlyCollection_1_System_Collections_IList_Contains_m2904046095_gshared
R5a:__ZN15QualitySettings8TransferI19StreamedBinaryWriteILb0EEEEvRT_
Uuf:_GC_KeepAlive_m1400443516
Pne:_LayoutUtility_U3CGetFlexibleHeightU3Em__7_m2991026842
ewb:__Z18Transfer_BlittableI19StreamedBinaryWriteILb0EELb1E8Vector2fEvRK29SerializationCommandArgumentsR31RuntimeSerializationCommandInfo
Bzc:_cf2_arrstack_init
mqh:_Array_InternalArray__get_Item_TisResourceCacheItem_t51292791_m1306056717_gshared
aBg:__Z157RuntimeInvoker_Void_t1185182177_RuntimeObject_RuntimeObject_RuntimeObject_RuntimeObject_RuntimeObject_RuntimeObject_RuntimeObject_RuntimeObject_RuntimeObjectPFvvEPK10MethodInfoPvPS4_
U$c:_EventSystem_get_pixelDragThreshold_m1103650852
dX:__Z15CleanLogHandler7LogTypePKcz
hTd:_NumberFormatter_NumberToString_m2481532188
Cla:__ZN9ShaderLab19SerializedSubShader8TransferI19StreamedBinaryWriteILb0EEEEvRT_
use:_ScrollRect_InternalGetBounds_m599803667
EH:__ZN14AudioBehaviour15ThreadedCleanupEv
hEb:__ZN6Camera17RemoveImageFilterERK11ImageFilter
hna:__ZNSt3__218__insertion_sort_3IR25ValueParameterArraySorterPN20GpuProgramParameters14ValueParameterEEEvT0_S6_T_
Phj:__ZL90Display_t1387065949_CustomAttributesCacheGenerator_Display_GetRenderingExtImpl_m2069813991P21CustomAttributesCache
xej:__ZL67EditorBrowsableAttribute_t1475454531_CustomAttributesCacheGeneratorP21CustomAttributesCache
Vxd:_Comparer__cctor_m3311686689
bRc:__ZZN2UI11CanvasGroup15InitializeClassEvEN38FunctorImpl_117kTransformParentChanged4CallEPviR11MessageData
r4c:_UIBehaviour_OnDidApplyAnimationProperties_m2143584361
Hgj:__ZL102SystemInfo_t3561985952_CustomAttributesCacheGenerator_SystemInfo_get_operatingSystemFamily_m4256884728P21CustomAttributesCache
X0e:_HttpWebRequest_get_Address_m2672661563
o_f:_TimeZone__ctor_m1831364098
S7h:__ZNK10KeyWrapperINSt3__24pairIPK9EventInfoP11Il2CppClassEEE14EqualsComparerINS0_8equal_toIS7_EEEclERKS8_SE_
QIe:_InternalEnumerator_1_get_Current_m3500427238_AdjustorThunk
QQc:__ZN2UI26InitializeDeviceForOverlayEi
_8:__Z27LogRepeatingStringWithFlagsRKN4core12basic_stringIcNS_20StringStorageDefaultIcEEEE15LogMessageFlagsi
g2f:_UInt64_System_IConvertible_ToSingle_m925613075
Qtf:_Enum_IsDefined_m1442314461
TXf:_Thread__cctor_m817723615
lOh:_AudioExtensionManager_RegisterBuiltinDefinitions_m2742744104
Zt:__ZN17AnimationPlayable28ComputeNeedsBindingRebuildedEv
et:__ZN17AnimationPlayable23RequestAllocateBindingsEv
sJi:_RenderPipelineManager_set_currentPipeline_m3492857006
nzj:__ZL66Slider_t3903728902_CustomAttributesCacheGenerator_m_OnValueChangedP21CustomAttributesCache
NSf:_DecoderReplacementFallbackBuffer_Fallback_m1261056214
dNb:__ZNSt3__227__insertion_sort_incompleteIRPFbP10GUIElementS2_EPS2_EEbT0_S7_T_
sVd:_Binder_get_DefaultBinder_m950908649
VKd:_StreamReader__ctor_m1616861391
CPh:_TextGenerationSettings_CompareColors_m3051734236_AdjustorThunk
wWc:__ZN18UnityConnectClient33OnPlayerSessionStateChangedStaticEPS_jyy
vzf:_RSA_ToXmlString_m2922661427
$T:__ZNK11UnityEngine15CloudWebService23WebRequestUploadHandler11GetProgressEv
Nua:__ZN7ApiGLES4LoadE16GfxDeviceLevelGL
g5a:__ZN18StreamedBinaryReadILb0EE21TransferSTLStyleArrayI13dynamic_arrayI31EnlightenSystemAtlasInformationLj8EEEEvRT_17TransferMetaFlags
trj:__ZL61GUIContent_t3050628031_CustomAttributesCacheGenerator_m_ImageP21CustomAttributesCache
Exc:__ZN5physx15PxErrorCallbackD2Ev
Kmi:__ZN15dense_hashtableI10KeyWrapperIP18Il2CppGenericClassES3_N6il2cpp8metadata22Il2CppGenericClassHashEN14dense_hash_setIS3_S6_NS3_14EqualsComparerINS5_25Il2CppGenericClassCompareEEENSt3__29allocatorIS3_EEE8IdentityESA_SD_E15insert_noresizeERKS3_
I6b:__ZZL31RegisterOtherRendererPropertiesR22GenericPropertyBindingEN30Wrapper_RendererReceiveShadows13GetFloatValueEPv
FJf:_Array_InternalArray__ICollection_Contains_TisSlot_t384495010_m688761886_gshared
z3a:__ZN17SharedTextureDataC2E10MemLabelIdii13TextureFormatjiibb
SCg:__Z114RuntimeInvoker_RuntimeObject_RuntimeObject_Int32_t2950945753_Int32_t2950945753_Int32_t2950945753_Int32_t2950945753PFvvEPK10MethodInfoPvPS4_
oHb:__ZN8Material11SetPassFastEPN9ShaderLab4PassER17ShaderPassContextP6Shaderib
o6a:__ZNK13ScreenManager13GetLockCursorEv
uWc:__ZN11UnityEngine7Connect20BasePersistentValues10SaveValuesER9JSONWrite
D1g:_Collection_1_IsFixedSize_m3748602684_gshared
ulf:_DateTime_System_IConvertible_ToDouble_m2116720007
JHi:_Display_GetSystemExtImpl_m2808197389
fZf:_WaitHandle_WaitOne_m2577152516
Kkd:_X509Certificate_PEM_m1177570576
Q6i:__ZL46DSA_t2386879874_CustomAttributesCacheGeneratorP21CustomAttributesCache
vEe:_ArrayReadOnlyList_1_GetEnumerator_m1835926958_gshared
rcc:__Z14ScaleCurveTimeR17AnimationCurveTplIfEf
nca:__ZN22VirtualJoystickManagerC2Ev
Pba:__ZN20GlobalCachingManager7DisposeEv
jOb:__Z12SetupLODFadeR9GfxDeviceR17ShaderPassContextf
r1a:__ZNK14PlayableOutput7GetTypeEv
ZZi:__ZL69Type_t_CustomAttributesCacheGenerator_Type_GetConstructors_m576905011P21CustomAttributesCache
JTb:__ZL24CollectForwardObjectsJobP27CollectForwardObjectsHeader
l_h:__ZNK15dense_hashtableINSt3__24pairIK10KeyWrapperIPK11Il2CppClassEPKcEES6_N6il2cpp5utils11PointerHashIS3_EEN14dense_hash_mapIS6_S9_SE_NS6_14EqualsComparerINS0_8equal_toIS5_EEEENS0_9allocatorISA_EEE9SelectKeyESJ_SL_E12test_deletedERK24dense_hashtable_iteratorISA_S6_SE_SN_SJ_SL_E
EVb:__Z13IsNodeVisibleRK9SceneNodeRK4AABBRK22SceneCullingParameters
NOf:_Array_InternalArray__IndexOf_TisLabelFixup_t858502054_m1491765395_gshared
Bng:__Z44RuntimeInvoker_RuntimeTypeHandle_t3027515415PFvvEPK10MethodInfoPvPS4_
zth:_TlsServerSettings_set_CertificateRequest_m1039729760
R0d:__ZN30GenericInterfaceActionInvoker1IP20Delegate_t1188392813E6InvokeEPK10MethodInfoP12Il2CppObjectS1_
fxe:_SortKeyBuffer_AppendCJKExtension_m2591091991
LSc:__Z57RectTransformUtility_CUSTOM_INTERNAL_CALL_PixelAdjustRectP12Il2CppObjectS0_R5RectTIfE
zWf:_UTF8Encoding_GetByteCount_m4153686982
EWb:__Z24ScheduleCullingAllGroupsR8JobFenceRK22SceneCullingParametersiRK13CullingOutputRK13dynamic_arrayIP12CullingGroupLj4EERKS_
xRj:_emscripten_glStencilMask__wrapper
dmg:__Z49RuntimeInvoker_Void_t1185182177_Double_t594665363PFvvEPK10MethodInfoPvPS4_
zXh:__ZN15dense_hashtableI10KeyWrapperIPK19Il2CppGenericMethodES4_N6il2cpp8metadata23Il2CppGenericMethodHashEN14dense_hash_setIS4_S7_NS4_14EqualsComparerINS6_26Il2CppGenericMethodCompareEEENSt3__29allocatorIS4_EEE8IdentityESB_SE_EC2ERKSH_j
LTa:__ZN15RenderNodeQueue7CleanupEv
lMf:_Array_InternalArray__IEnumerable_GetEnumerator_TisByte_t1134296376_m1979205379_gshared
$3d:_MonoProperty_CreateGetterDelegate_m2478402519
Cxc:__ZN16NovodexAllocator8allocateEjPKcS1_i
j0a:__ZN39DeprecatedFastPropertyNameSerialization8TransferI14SafeBinaryReadEEvRT_
Wuh:_DeriveBytes_DeriveIV_m973925711
YGd:_Int32_System_IConvertible_ToSByte_m3133688512
nah:_ReadOnlyCollection_1_System_Collections_IList_IndexOf_m848971554_gshared
GTb:__ZN9ShaderLab10GrabPassesD2Ev
Dse:_ScrollRect_CalculateOffset_m927043599
E8a:__ZN14Texture2DArray13UploadTextureEv
qoe:_MaskableGraphic_UpdateCull_m2805101913
EEc:_tt_cmap14_done
Egb:__ZN18AwakeFromLoadQueue25RegisterObjectInstanceIDsEv
vHi:_Debug__cctor_m1523394265
Uw:__ZNK27AnimationLayerMixerPlayable11DerivesFromE17ScriptingClassPtr
QKc:__ZN20TextRenderingPrivate19NativeTextGenerator15InsertCharacterEiPj
Qog:__Z77RuntimeInvoker_Void_t1185182177_RuntimeObject_SByte_t1669577662_RuntimeObjectPFvvEPK10MethodInfoPvPS4_
wpg:__Z81RuntimeInvoker_Void_t1185182177_RuntimeObject_SByte_t1669577662_SByte_t1669577662PFvvEPK10MethodInfoPvPS4_
GRd:_MonoType_get_attributes_m1332507727
iFh:_GUIContent_ClearStaticCache_m1205116045
IQg:_List_1_System_Collections_IList_get_IsFixedSize_m203251153_gshared
gEf:_WindowsIdentity_Dispose_m3466258450
Bv:__ZN17AnimationPlayableD0Ev
Ywb:__Z18Transfer_BlittableI19StreamedBinaryWriteILb0EELb0EyEvRK29SerializationCommandArgumentsR31RuntimeSerializationCommandInfo
Mge:_BinaryCommon__cctor_m2978407547
gtd:_Char_System_IConvertible_ToByte_m2347554595
X9g:_ReadOnlyCollection_1_GetEnumerator_m1017886827_gshared
__i:__ZL47ASN1_t2114160832_CustomAttributesCacheGeneratorP21CustomAttributesCache
xMc:__ZN20TextRenderingPrivate15DynamicFontData21GetFontMetricsForFaceERK13dynamic_arrayIN4core17string_with_labelILi35EEELj4EEiRKS1_I4PPtrIN13TextRendering4FontEELj4EEPfSF_
rjh:_IndexedSet_1__ctor_m2250384602_gshared
T8f:_DefaultComparer__ctor_m1306123661_gshared
K0f:_UInt16_TryParse_m4139137016
Mpi:__ZN6il2cpp5utils13dynamic_arrayIPNS_2os6ThreadELj4EE9push_backEv
Quj:__ZL102PointerEventData_t3807901092_CustomAttributesCacheGenerator_PointerEventData_get_clickTime_m3061953952P21CustomAttributesCache
tTf:_Encoding__ctor_m2997749867
PKi:_ManagedStreamHelpers_ManagedStreamSeek_m3158782053
RBh:_ExpressionAssertion_Compile_m2166597834
ADb:__ZN16ScriptingManagerD0Ev
tFf:_Single_System_IConvertible_ToSByte_m1208276900_AdjustorThunk
sui:__ZN6il2cpp6icalls8mscorlib6System7Convert24InternalFromBase64StringEP12Il2CppStringb
mag:_EqualityComparer_1__ctor_m2241711498_gshared
y4i:__ZL58ChannelServices_t3942013484_CustomAttributesCacheGeneratorP21CustomAttributesCache
oli:__ZN30dense_hashtable_const_iteratorINSt3__24pairIK10KeyWrapperINS1_IPKcS4_EEEiEES6_24NamespaceAndNamePairHashN14dense_hash_mapIS6_iS9_NS6_14EqualsComparerI26NamespaceAndNamePairEqualsEENS0_9allocatorIS8_EEE9SelectKeyESD_SF_EppEv
Dgc:__Z44Register_UnityEngine_Component_get_transformv
LGg:__Z48RuntimeInvoker_Void_t1185182177_Link_t3209266973PFvvEPK10MethodInfoPvPS4_
VB:__ZN12_GLOBAL__N_120ProcessPlayableGraphERN8Animator11AnimatorJobER35AnimationPlayableEvaluationConstantR32AnimationPlayableEvaluationInputR33AnimationPlayableEvaluationOutputPFvS4_R17AnimationPlayableEPFvS4_S6_S8_EPFvS8_S4_S6_S8_fESE_MS9_FvPS3_PS5_PS7_E
vRh:_CanvasRenderer_get_absoluteDepth_m2703237819
Yxf:_TextInfo_ToLower_m2744057472
kKb:__ZN17ArchiveFileSystem12MountArchiveEPKcS1_
hcg:_EqualityComparer_1_System_Collections_IEqualityComparer_Equals_m3977314386_gshared
esc:__Z18Transfer_BlittableI9JSONWriteLb1E8Vector4fEvRK29SerializationCommandArgumentsR31RuntimeSerializationCommandInfo
wn:FUNCTION_TABLE_viififiii
dvf:_CCGregorianCalendar_year_from_fixed_m463929682
VOc:__ZN2UI13CanvasManagerD0Ev
JX:__ZThn32_NK8Renderer14GetSubsetIndexEi
iHi:_Debug_get_unityLogger_m2239795986
Ubf:_MD2Managed_Initialize_m2341076836
kah:_ReadOnlyCollection_1_System_Collections_IList_Add_m4240023232_gshared
Cra:__ZN9GfxDevice15ImmediateVertexEfff
N2b:__Z13RegisterClassI8MaterialEvv
r4a:__ZNK16LightmapSettings22GetTypeVirtualInternalEv
nUa:__ZN16GraphicsSettings13AwakeFromLoadE17AwakeFromLoadMode
Vp:__ZN6Object13AwakeFromLoadE17AwakeFromLoadMode
Uoa:__ZN13GfxDeviceGLES15SetStencilStateEPK18DeviceStencilStatei
kMd:__ZN28GenericInterfaceFuncInvoker3IiP22ByteU5BU5D_t4116647657iiE6InvokeEPK10MethodInfoP12Il2CppObjectS1_ii
Wrd:_Buffer_BlockCopyInternal_m418318694
IDj:_cycle
XDi:_AssetBundleCreateRequest_t3119663542_marshal_pinvoke
iui:__ZN6il2cpp2vm8Profiler7GCEventE13Il2CppGCEvent
Qng:__Z76RuntimeInvoker_Void_t1185182177_RuntimeObject_RuntimeFieldHandle_t1871169219PFvvEPK10MethodInfoPvPS4_
lvh:_PKCS12_Finalize_m507756088
Dd:_emscripten_glUniform1iv
scg:_EqualityComparer_1_get_Default_m1095255266_gshared
umb:__ZN16MemoryFileSystemD2Ev
fog:__Z150RuntimeInvoker_Int32_t2950945753_RuntimeObject_Int32_t2950945753_Int32_t2950945753_RuntimeObject_Int32_t2950945753_Int32_t2950945753_Int32_t2950945753PFvvEPK10MethodInfoPvPS4_
Bqd:_BitConverter_DoubleToInt64Bits_m3574395137
Ymf:_DateTime_Parse_m3729096069
GOg:_List_1_System_Collections_IList_Add_m1540114404_gshared
hFe:_InternalEnumerator_1_System_Collections_IEnumerator_Reset_m81420524_AdjustorThunk
lgc:__Z37Register_UnityEngine_Camera_get_depthv
MOd:_StringReader_Read_m3322058819
P8d:_CrossAppDomainChannel_get_ChannelPriority_m3418073750
q9f:_EqualityComparer_1__ctor_m1860346363_gshared
mle:_Selectable_StartColorTween_m3618813981
r$c:_BaseInputModule_HandlePointerExitAndEnter_m1705532066
I0d:_EventInfo__ctor_m3033129999
rJh:__ZL24UnresolvedVirtualCall_33P12Il2CppObjectiS0_S0_PK10MethodInfo
q2b:__ZN15ApplicationInfo16GetInstallerNameEv
$$b:__Z23ConvertIntegerToTypePtrItEbPvR14SafeBinaryRead
Crf:_Delegate_CombineImpl_m3572135514
IFd:_NumberFormatter_IntegerToString_m1679294587
HAf:_SHA256Managed_AddLength_m1060552216
C7g:_ReadOnlyCollection_1_System_Collections_IList_RemoveAt_m422909114_gshared
AC:__ZN7mecanim5human29HumanGetGoalOrientationOffsetENS0_4GoalE
Ud:_emscripten_glStencilFunc
CAj:__ZL78LayoutRebuilder_t541313304_CustomAttributesCacheGenerator_U3CU3Ef__amU24cache2P21CustomAttributesCache
Foh:_Dictionary_2_Do_CopyTo_TisKeyValuePair_2_t3699644050_TisRuntimeObject_m2224738096_gshared
SIh:__ZL23UnresolvedVirtualCall_6P12Il2CppObjectiPK10MethodInfo
LJh:__ZL24UnresolvedVirtualCall_53P12Il2CppObjectPK10MethodInfo
d3c:__Z46il2cpp_codegen_get_marshal_directive_exceptionPKc
Rie:_InputField_get_isFocused_m709836844
$d:_glGetActiveUniformBlockName
euj:__ZL90PointerEventData_t3807901092_CustomAttributesCacheGenerator_U3CpointerIdU3Ek__BackingFieldP21CustomAttributesCache
Kf:_emscripten_glUniform1fv
Jic:__Z39Quaternion_CUSTOM_INTERNAL_CALL_InverseRK11QuaternionfRS_
$Ta:__ZNK4PPtrI5FlareEcvPS0_Ev
dJ:__ZN4FMOD7Channel20set3DConeOrientationEP11FMOD_VECTOR
nn:FUNCTION_TABLE_iiifii
wWd:_AssemblyBuilder_not_supported_m1735277432
FNe:_InternalEnumerator_1_MoveNext_m1344185775_AdjustorThunk
Qoi:__ZN6il2cpp2vm12GenericClass11SetupEventsEP11Il2CppClass
CHc:_tt_delta_interpolate
aFc:_tt_cmap12_get_info
yki:__ZN6il2cpp2vm15ReboxIReferenceEP14Il2CppIUnknownP11Il2CppClass
Rgg:_Enumerator__ctor_m2029608698_AdjustorThunk
QSh:__ZN6il2cpp6icalls8mscorlib6System7Decimal14decimalCompareEP19il2cpp_decimal_reprS5_
B_e:_Dictionary_2_OnDeserialization_m4209543208_gshared
Pui:__ZThn4_N6il2cpp2vm13CachedCCWBaseINS0_13ManagedObjectEE7ReleaseEv
GJi:_GameObject_AddComponent_m136524825
s5i:__ZL62SoapMethodAttribute_t1935009310_CustomAttributesCacheGeneratorP21CustomAttributesCache
vxg:__Z100RuntimeInvoker_Void_t1185182177_RuntimeObject_Int32_t2950945753_Int32_t2950945753_UInt16_t2177724958PFvvEPK10MethodInfoPvPS4_
l1a:__ZNSt3__26__treeINS_12__value_typeIN9ShaderLab16FastPropertyNameE10ColorRGBAfEENS_19__map_value_compareIS3_S5_NS_4lessIS3_EELb1EEENS_9allocatorIS5_EEE12__find_equalIS3_EERPNS_16__tree_node_baseIPvEENS_21__tree_const_iteratorIS5_PNS_11__tree_nodeIS5_SF_EEiEESI_RKT_
BOj:_glCopyTexImage2D__wrapper
Isf:_Double_System_IConvertible_ToUInt32_m271206838
P7:__GLOBAL__sub_I_runtime_graphics_billboard_0_cpp
zHb:__Z18ClearByDrawingQuad13GfxClearFlagsRK10ColorRGBAffjR17ShaderPassContext
CAa:__ZN6prcoreL17RemapGenericFloatI14TexFormatRHalf15TexFormatRFloatEEvPKNS_9InnerInfoE
IAc:_cf2_getBlueValues
_Nb:__Z16ShouldUseShadowsb
kea:__ZN15DirectorManager21RebuildStageCallbacksEv
MHb:__ZN19RuntimeSceneManager9LoadSceneERKN4core12basic_stringIcNS0_20StringStorageDefaultIcEEEES6_S6_RK9UnityGUIDiNS_11LoadingModeE
Uta:__ZN7ApiGLES10DrawArraysE16GfxPrimitiveTypejjj
GFe:_InternalEnumerator_1_MoveNext_m154749640_gshared
AG:__ZN10SampleClip13LoadBaseSoundEv
amd:_SmallXmlParser_SkipWhitespaces_m4243606597
Tvf:_CompareInfo_IndexOf_m2631915198
cXd:_ConstructorBuilder_GetCustomAttributes_m2495332786
uce:_MethodCall__ctor_m3669645
Jsd:_Byte_CompareTo_m4285128861
K0c:_TriggerEvent__ctor_m87299207
Mvg:__Z48RuntimeInvoker_ExchangeAlgorithmType_t1320888206PFvvEPK10MethodInfoPvPS4_
lQ:__Z57AudioSource_CUSTOM_INTERNAL_CALL_ClearExtensionPropertiesP12Il2CppObjectRK12PropertyName
coi:__ZN15dense_hashtableINSt3__24pairIK10KeyWrapperIP12Il2CppObjectEN6il2cpp2gc9CachedCCWEEES5_NS7_5utils11PointerHashIS3_EEN14dense_hash_mapIS5_S9_SD_NS5_14EqualsComparerINS0_8equal_toIS4_EEEENS0_9allocatorISA_EEE9SelectKeyESI_SK_E15insert_noresizeERKSA_
bef:_CertificateValidationCallback2__ctor_m1685875113
Xca:__ZL50StaticRegisterSceneLoadedCallback_LightmapSettingsPv
n1a:__ZN22DeviceMVPMatricesStateC2ER9GfxDevice
BXi:__ZL48Double_t594665363_CustomAttributesCacheGeneratorP21CustomAttributesCache
Zm:FUNCTION_TABLE_iifii
H3h:_RaycastHit2D_t2279581989_marshal_pinvoke_back
jxd:_Comparer_Compare_m3984347512
y4a:__ZN21EnlightenSceneMapping8TransferI14SafeBinaryReadEEvRT_
Oai:__ZN6il2cpp2vm10Reflection12HasAttributeEP9FieldInfoP11Il2CppClass
Mm:FUNCTION_TABLE_iiffi
hc:invoke_viiifi
_3d:_MonoProperty_GetCustomAttributes_m3619796755
e2h:__ZNSt3__214__split_bufferIP11Il2CppClassRNS_9allocatorIS2_EEEC2EjjS5_
Hde:_MethodDictionary_System_Collections_IEnumerable_GetEnumerator_m4169036899
fmd:__ZN23InterfaceActionInvoker2IP8String_tP12Il2CppObjectE6InvokeEjP11Il2CppClassS3_S1_S3_
bMa:__ZNK11AssetBundle14GetPreloadDataEiR13dynamic_arrayIiLj4EE
Xyf:_RIPEMD160Managed_JJJ_m4161373884
I8d:_CrossContextChannel__ctor_m3755842292
u7f:_DefaultComparer_Equals_m3257444875_gshared
jf:_JS_Sound_SetPosition
hZa:__ZN19RenderBufferManager13GetTempBufferEii17DepthBufferFormat19RenderTextureFormatj22RenderTextureReadWrite14VRTextureUsagei23RenderTextureMemoryless
u_h:__ZL13GetSharedInstPK17Il2CppGenericInst
Iuj:__ZL98PointerEventData_t3807901092_CustomAttributesCacheGenerator_PointerEventData_get_delta_m1062010255P21CustomAttributesCache
nkb:__ZNK2UI13RectTransform23CalculateLocalPosition2Ev
VTc:__ZN22BaseUnityConnectClient17SaveSessionValuesEv
TGe:_InternalEnumerator_1_get_Current_m476140818_gshared
lQg:_List_1_Sort_m4240158523_gshared
eWi:_WaitForEndOfFrame__ctor_m1381314187
MTb:__Z24SetupActiveLightsContextR21ActiveLightingContextRK12ActiveLightsRK11CullResultsP14ShadowMapCacheRK10MinMaxAABB
D4c:_AnimationTriggers_set_disabledTrigger_m933056574
Sjc:__Z38Sprite_CUSTOM_INTERNAL_get_textureRectP12Il2CppObjectP5RectTIfE
A9h:__ZNK15dense_hashtableINSt3__24pairIK10KeyWrapperIPK22Il2CppGenericParameterEPK24MonoGenericParameterInfoEES6_N6il2cpp5utils11PointerHashIS4_EEN14dense_hash_mapIS6_SA_SF_NS6_14EqualsComparerINS0_8equal_toIS5_EEEENS0_9allocatorISB_EEE9SelectKeyESK_SM_E3endEv
YMg:_List_1_Add_m238442097_gshared
Udc:__ZN9TextAsset7SetTextERKN4core12basic_stringIcNS0_20StringStorageDefaultIcEEEE
JSa:__ZN6Camera8TransferI24GenerateTypeTreeTransferEEvRT_
_Mh:__ZL25UnresolvedVirtualCall_230P12Il2CppObjectPK10MethodInfo
Ha:invoke_iiiiiiif
Ea:invoke_iiiiiiii
blh:_Array_InternalArray__set_Item_TisByte_t1134296376_m3104140039_gshared
usg:__Z194RuntimeInvoker_Int32_t2950945753_RuntimeObject_Int32_t2950945753_Int32_t2950945753_RuntimeObject_Int32_t2950945753_SByte_t1669577662_Int32U26_t1369213839_BooleanU26_t4125257963_SByte_t1669577662PFvvEPK10MethodInfoPvPS4_
yvh:_PKCS12_GetBytes_m415958948
mgf:_Context_get_HandshakeState_m2425796590
cXb:__ZN8Renderer17PendingAddToSceneEv
E2g:_Collection_1_System_Collections_IList_set_Item_m2625856224_gshared
vSj:b122
ySj:b125
xSj:b124
FSj:b127
ASj:b126
KSj:b129
jjc:__Z52Register_UnityEngine_RectTransform_INTERNAL_get_rectv
cMi:_Mesh_SetSizedArrayForChannel_m2565120436
y_:__Z21PostprocessStacktracePKcRN4core12basic_stringIcNS1_20StringStorageDefaultIcEEEE
QKi:_ManagedStreamHelpers_ManagedStreamLength_m2930872960
Aeb:__ZN18StreamedBinaryReadILb0EE21TransferSTLStyleArrayI13dynamic_arrayI16SplashScreenLogoLj4EEEEvRT_17TransferMetaFlags
iuh:_BasicConstraintsExtension_Encode_m2009213240
wgc:__Z47Register_UnityEngine_Camera_get_allCamerasCountv
e6c:___clang_call_terminate
YTc:__ZN22BaseUnityConnectClient20StartEventDispatcherEv
Jbc:__ZNSt3__26vectorIj13stl_allocatorIjL18MemLabelIdentifier1ELi16EEE6assignIPKtEENS_9enable_ifIXaasr21__is_forward_iteratorIT_EE5valuesr16is_constructibleIjNS_15iterator_traitsIS9_E9referenceEEE5valueEvE4typeES9_S9_
lB:__ZN7mecanim9animation16EvaluateAvatarIKEPKNS0_14AvatarConstantEPKNS0_11AvatarInputEPNS0_12AvatarOutputEPNS0_12AvatarMemoryEPNS0_15AvatarWorkspaceEb
iCa:__ZL25ProgramUniformMatrix4x3fvPK7ApiGLESjiihPKv
s$b:__Z29StdTemplateConversionFunctionIsiEbPvR14SafeBinaryRead
wLb:__ZN12InputManager13InputEndFrameEv
r1h:__ZNSt3__26__treeIP11Il2CppClassNS_4lessIS2_EENS_9allocatorIS2_EEE25__emplace_unique_key_argsIS2_JRKS2_EEENS_4pairINS_15__tree_iteratorIS2_PNS_11__tree_nodeIS2_PvEEiEEbEERKT_DpOT0_
rMi:_Object_get_name_m4211327027
Vfi:__ZN6il2cpp2vm6Thread5SetupEP12Il2CppThread
u5g:_ReadOnlyCollection_1_System_Collections_IList_get_IsReadOnly_m1248651675_gshared
tUe:_Enumerator_System_Collections_IDictionaryEnumerator_get_Key_m2500634048_gshared
IPh:_TextGenerator_t3211863866_marshal_pinvoke_back
NEj:___munmap
ag:_localtime_r
FMb:__ZN22RenderingCommandBuffer13GetAndCheckRTE24BuiltinRenderTextureTypeRKN9ShaderLab16FastPropertyNameEPKcPP13RenderTexture
Mca:__ZN14GfxDoubleCacheIyP17VertexDeclaration14GfxGenericHashIyENSt3__28equal_toIyEEN31GfxDoubleCacheConcurrencyPolicy11LocklessGetE42GfxDoubleCacheDefaultEmptyDeletedGeneratorIyEEC2Ev
PJe:_InternalEnumerator_1_System_Collections_IEnumerator_Reset_m3619766341_AdjustorThunk
UW:__Z19free_alloc_internalPv10MemLabelId
p5i:__ZL56ReturnMessage_t1376985608_CustomAttributesCacheGeneratorP21CustomAttributesCache
$Vf:_UTF32Decoder_GetChars_m1925558948
dg:_strftime
$Ea:__ZN7Texture33SetStoredColorSpaceNoDirtyNoApplyE17TextureColorSpace
Y5d:_ResourceSet__ctor_m3618395942
Epf:_Decimal_System_IConvertible_ToDouble_m3125524987_AdjustorThunk
y1:__ZN12FileAccessorD2Ev
j7:__ZN10ColorRGBAf8TransferI18StreamedBinaryReadILb0EEEEvRT_
vWa:__ZN14VertexDataInfoC2Ev
uri:__ZN6il2cpp2gc16GarbageCollector14CollectALittleEv
Sjj:__ZL87Sprite_t280657092_CustomAttributesCacheGenerator_Sprite_INTERNAL_get_border_m3728071101P21CustomAttributesCache
s9b:__ZNK9HPlayable15GetPlayableTypeEv
eIg:__Z117RuntimeInvoker_Void_t1185182177_CustomAttributeTypedArgumentU5BU5DU26_t2503877664_Int32_t2950945753_Int32_t2950945753PFvvEPK10MethodInfoPvPS4_
fzb:__ZL17Transfer_GUIStyleI18StreamedBinaryReadILb1EELb1EEvRK29SerializationCommandArgumentsR31RuntimeSerializationCommandInfo
Dpe:_RectMask2D_IsRaycastLocationValid_m1652308696
M1h:__ZN6il2cpp6icalls8mscorlib6SystemL9IsPrivateEPK12PropertyInfo
Hvh:_X501_ToString_m1148552872
cRi:_RectTransform_add_reapplyDrivenProperties_m1374850920
X9:__ZN9shadertag10InitializeEv
MEg:__Z69RuntimeInvoker_Void_t1185182177_Int32_t2950945753_Color32_t2600501292PFvvEPK10MethodInfoPvPS4_
lOb:__ZN13BatchRenderer20RenderSingleWithPassER17ShaderPassContextPK18SharedMaterialDataP6ShaderPN9ShaderLab4PassEiPKNS7_10GrabPassesEjib15BatchBreakCause
CWh:__ZN15dense_hashtableINSt3__24pairIK10KeyWrapperIPK19Il2CppGenericMethodEPK26Il2CppGenericMethodIndicesEES6_N6il2cpp8metadata23Il2CppGenericMethodHashEN14dense_hash_mapIS6_SA_SE_NS6_14EqualsComparerINSD_26Il2CppGenericMethodCompareEEENS0_9allocatorISB_EEE9SelectKeyESI_SK_ED2Ev
O5a:__ZN15QualitySettings14QualitySetting8TransferI24GenerateTypeTreeTransferEEvRT_
SAi:__ZN6il2cpp5utils6Memory11AlignedFreeEPv
Uef:_Context_get_ClientWriteKey_m3174706656
Itj:__ZL77ExecuteEvents_t3484638744_CustomAttributesCacheGenerator_U3CU3Ef__mgU24cache7P21CustomAttributesCache
Wie:_InputField_get_textComponent_m948764648
Blc:__Z44Register_UnityEngine_Object_DestroyImmediatev
mDd:_Convert_ToSingle_m835189399
Kac:__ZN22BlockMemoryCacheWriter14LockCacheBlockEjPPhS1_
Vnc:__ZNSt3__218__insertion_sort_3IRPFbPKN5IMGUI9GUIWindowES4_EPPS2_EEvT0_SA_T_
Ygd:_CryptographicUnexpectedOperationException__ctor_m69881930
K7i:__ZL73TripleDESCryptoServiceProvider_t3595206342_CustomAttributesCacheGeneratorP21CustomAttributesCache
PXg:_Collection_1_SetItem_m1218178236_gshared
Qvc:__Z22TransferField_NonArrayI8JSONRead27Converter_SimpleNativeClassI8GUIStyleEEvRK23StaticTransferFieldInfoR31RuntimeSerializationCommandInfoRT0_
BXh:__ZN15dense_hashtableI10KeyWrapperIPK19Il2CppGenericMethodES4_N6il2cpp8metadata23Il2CppGenericMethodHashEN14dense_hash_setIS4_S7_NS4_14EqualsComparerINS6_26Il2CppGenericMethodCompareEEENSt3__29allocatorIS4_EEE8IdentityESB_SE_E16reset_thresholdsEv
Kg:_llvm_eh_typeid_for
E2b:__Z13RegisterClassI10GameObjectEvv
Kxd:_CollectionBase_OnClear_m883003723
MSe:_Enumerator__ctor_m2609246966_gshared
pde:_RemotingServices_FindInterfaceMethod_m2125212568
nz:__ZNK23AnimationPlayableOutput7GetTypeEv
tOd:_StreamWriter__cctor_m1229272693
ztf:_Enum_System_IConvertible_ToSByte_m779472798
J_f:_Type_get_IsInterface_m3284996719
CGe:_InternalEnumerator_1_MoveNext_m1543390728_gshared
tBb:__Z18Transfer_BlittableI18StreamedBinaryReadILb0EELb1E8Vector4fEvRK29SerializationCommandArgumentsR31RuntimeSerializationCommandInfo
Mxf:_SortKey_get_OriginalString_m1428586816
QEg:__Z51RuntimeInvoker_Void_t1185182177_Vector4_t3319028937PFvvEPK10MethodInfoPvPS4_
f7f:_Dictionary_2_U3CCopyToU3Em__0_m2023886030_gshared
fFg:__Z64RuntimeInvoker_Boolean_t97287965_RefEmitPermissionSet_t484390987PFvvEPK10MethodInfoPvPS4_
ZQj:_glBindVertexArray__wrapper
ted:_SerializationInfo__ctor_m2923079689
Q$a:__ZN8Material8TransferI14SafeBinaryReadEEvRT_
$1a:__ZN12CubemapArray17UploadToGfxDeviceEv
sdh:_Func_2__ctor_m1150804732_gshared
lFd:_Int32_JumpOverWhite_m208298144
Ffi:__ZN24dense_hashtable_iteratorINSt3__24pairIK10KeyWrapperIP11Il2CppClassES4_EES5_N6il2cpp8metadata16SZArrayClassHashEN14dense_hash_mapIS5_S4_SA_NS5_14EqualsComparerINS9_19SZArrayClassCompareEEENS0_9allocatorIS7_EEE9SelectKeyESE_SG_E30advance_past_empty_and_deletedEv
CQi:_RectOffset_get_bottom_m890891527
FGg:__Z53RuntimeInvoker_Int32_t2950945753_UIVertex_t4057497605PFvvEPK10MethodInfoPvPS4_
_Pj:_emscripten_glGetUniformiv__wrapper
Iui:__ZN6il2cpp2vm13ManagedObject14QueryInterfaceERK10Il2CppGuidPPv
YG:__ZN11AudioSource4StopEb
$qb:__ZN14SafeBinaryRead21TransferSTLStyleArrayI13dynamic_arrayI10Matrix4x4fLj4EEEEvRT_17TransferMetaFlags
vTa:__ZN15LODGroupManager26CollectAllLODGroupManagersERK16CoreCameraValuesR13dynamic_arrayIPS_Lj4EEb
szi:__ZN6il2cpp2os14WindowsRuntime13DeleteHStringEP15Il2CppHString__
t1f:_UInt32_System_IConvertible_ToUInt32_m1744564280_AdjustorThunk
BHa:__ZN18GlslGpuProgramGLESD2Ev
rZb:__ZN13RenderTexture14SetVolumeDepthEi
wS:__ZN11UnityEngine15CloudWebService14DataErrorEvent12ToJsonStringERN4core12basic_stringIcNS2_20StringStorageDefaultIcEEEEjPKc
Nwg:__Z86RuntimeInvoker_Void_t1185182177_UInt16_t2177724958_SByte_t1669577662_SByte_t1669577662PFvvEPK10MethodInfoPvPS4_
Xma:__Z22LoadGpuProgramFromDataPKhS0_Rj
uwc:__ZN10Matrix4x4f8TransferI8JSONReadEEvRT_
MJc:__ZN14SafeBinaryRead21TransferSTLStyleArrayI13dynamic_arrayIN4core17string_with_labelILi35EEELj4EEEEvRT_17TransferMetaFlags
mpe:_PositionAsUV1_ModifyMesh_m4231919476
oyd:_Hashtable__ctor_m1941859523
YEh:_WindowFunction__ctor_m2544237635
GRe:_Comparer_1_get_Default_m1947376189_gshared
cse:_ScrollRect_set_horizontalScrollbarSpacing_m2209919081
RY:__ZN17PersistentManager18ReadObjectThreadedEi
qEa:__ZN25TransformFeedbackSkinning31CleanupTransformFeedbackShadersEv
jTa:__Z22scripting_object_unbox18ScriptingObjectPtr
jce:_AsyncResult_get_NextSink_m1844209137
SKc:__ZNK20TextRenderingPrivate8FontImpl19GetCharacterAdvanceEjijfPj
sQf:_Array_InternalArray__ICollection_Add_TisUriScheme_t722425697_m3142345403_gshared
jDj:_fmt_u
xoh:_Dictionary_2_Do_CopyTo_TisDictionaryEntry_t3123975638_TisDictionaryEntry_t3123975638_m1126292988_gshared
B7a:__ZN10VertexData8TransferI18StreamedBinaryReadILb0EEEEvRT_
TYi:__ZL81RuntimeArray_CustomAttributesCacheGenerator_Array_GetValue_m116098292____indices0P21CustomAttributesCache
OQc:__ZN2UI29ResetVRScreenSpaceWarningFlagEv
hSd:_MonoType_get_Assembly_m4290914179
MYi:__ZL70RuntimeArray_CustomAttributesCacheGenerator_Array_GetValue_m1062368071P21CustomAttributesCache
Rna:__ZN9ShaderLab7ProgramC2E10MemLabelIdi10ShaderType
DZb:__ZN14PreloadManager16UpdatePreloadingEv
k2:__ZN12BaseRendererD2Ev
tHf:_String_LastIndexOf_m95398196
Zlh:_Array_InternalArray__set_Item_TisUILineInfo_t4195266810_m2313892078_gshared
fNe:_InternalEnumerator_1_System_Collections_IEnumerator_Reset_m3355902602_AdjustorThunk
PNi:_PlayableAsset__ctor_m2395156306
gvj:__ZL79StandaloneInputModule_t2760469101_CustomAttributesCacheGenerator_m_SubmitButtonP21CustomAttributesCache
s3h:__ZN6il2cpp2os4File4ReadEPNS0_10FileHandleEPciPi
TV:__ZNK21UnityDefaultAllocatorI17LowLevelAllocatorE8ContainsEPKv
b0h:__ZNSt3__213__vector_baseI6pollfdNS_9allocatorIS1_EEED2Ev
tfd:_RuntimeTypeHandle_Equals_m2857439487
Uh:_emscripten_get_main_loop_timing
y7d:_SafeHandle_Finalize_m3866180675
N5a:__ZN24GenerateTypeTreeTransfer21TransferSTLStyleArrayINSt3__26vectorIN15QualitySettings14QualitySettingENS1_9allocatorIS4_EEEEEEvRT_17TransferMetaFlags
YMd:_MemoryStream_ToArray_m3911744835
UTe:_Enumerator_System_Collections_IDictionaryEnumerator_get_Entry_m859540448_AdjustorThunk
oDg:__Z72RuntimeInvoker_Boolean_t97287965_RaycastHitU26_t2429360258_RuntimeObjectPFvvEPK10MethodInfoPvPS4_
LCi:__ZN6il2cpp2os5Event4WaitEjb
k$f:_Type_GetHashCode_m1947148725
Xrg:__Z91RuntimeInvoker_Void_t1185182177_RuntimeObject_RuntimeObject_RuntimeObject_SByte_t1669577662PFvvEPK10MethodInfoPvPS4_
Kjb:__ZNK2UI13RectTransform22GetTypeVirtualInternalEv
ep:getTempRet0
ZDf:_StrongName_get_Version_m4243032012
cKe:_InternalEnumerator_1_MoveNext_m2234422530_gshared
Bqj:__ZL73GUISettings_t1774757634_CustomAttributesCacheGenerator_m_CursorFlashSpeedP21CustomAttributesCache
L$c:_BaseRaycaster_OnEnable_m2678466030
eTe:_Enumerator_get_CurrentKey_m627428048_AdjustorThunk
UIi:_UnityEventBase__ctor_m1851535676
Xnh:_Array_Sort_TisVector4_t3319028937_m2797285308_gshared
Lhf:_HandshakeMessage_Update_m2417837686
C2g:_Collection_1_System_Collections_IList_get_Item_m3314684800_gshared
rhi:__ZN6il2cpp6icalls8mscorlib6System9ThreadingL21lookup_cached_cultureEP12Il2CppThreadi
pIi:_NetFxCoreExtensions_CreateDelegate_m751211712
DUb:__ZN18DeferredRenderLoopD2Ev
ZRh:_AnimationLayerMixerPlayable__cctor_m4086299972
K2:__ZNK16TypeTreeIterator4NameEv
C0g:_Collection_1_CopyTo_m756458445_gshared
Y0:__ZN15FileSystemEntry3SetEPKc
XWd:_ConstructorBuilder_Invoke_m3010446651
F4c:_AspectRatioFitter_get_aspectMode_m3735191157
xfc:__Z52Register_UnityEngine_Application_set_targetFrameRatev
C1e:_IPv6Address_set_ScopeId_m3907190992
A4g:_ReadOnlyCollection_1_System_Collections_Generic_IListU3CTU3E_Insert_m568455025_gshared
OI:__ZN20SoundChannelInstance15ParameterBuffer5ApplyEPN4FMOD7ChannelE
q1e:_IPv6Address__ctor_m4117281080
dij:__ZL88GameObject_t1113636619_CustomAttributesCacheGenerator_GameObject_SendMessage_m3720186693P21CustomAttributesCache
PKc:__ZN20TextRenderingPrivate19NativeTextGenerator9InsertTabEv
CHj:_sbrk
WAg:__Z66RuntimeInvoker_Boolean_t97287965_Vector2_t2156229523_RuntimeObjectPFvvEPK10MethodInfoPvPS4_
a_g:_Collection_1_System_Collections_Generic_ICollectionU3CTU3E_get_IsReadOnly_m1032650589_gshared
Ghg:_Enumerator_VerifyState_m3474272061_AdjustorThunk
eYi:__ZL70IntPtr_t_CustomAttributesCacheGenerator_IntPtr_op_Explicit_m2520637223P21CustomAttributesCache
Ei:_glIsEnabled
ijb:__ZN15CacheWriterBaseD2Ev
BWd:_DerivedType__ctor_m1853298054
Qpb:__Z25scripting_class_get_image17ScriptingClassPtr
ixd:_CaseInsensitiveComparer_Compare_m1224120810
rjg:_List_1_RemoveAt_m2730968292_gshared
hgb:__ZNSt3__26vectorIN4core12basic_stringIcNS1_20StringStorageDefaultIcEEEE13stl_allocatorIS5_L18MemLabelIdentifier13ELi16EEEC2INS_11__wrap_iterIPS5_EEEET_SE_RKS8_PNS_9enable_ifIXaasr21__is_forward_iteratorISE_EE5valuesr16is_constructibleIS5_NS_15iterator_traitsISE_E9referenceEEE5valueEvE4typeE
Ii:_emscripten_glDrawElementsInstanced
ay:__ZN26AnimatorControllerPlayable27SetupStateMachineBehavioursEv
vMf:_Array_InternalArray__IEnumerable_GetEnumerator_TisSlot_t3975888750_m1869932007_gshared
Ame:_LayoutGroup_get_preferredWidth_m3816902260
rXa:__ZN18JobBatchDispatcherD2Ev
Fjb:__ZN9Transform17MainThreadCleanupEv
zxi:_GC_clear_hdr_marks
VRj:_emscripten_glCreateShader__wrapper
Zyc:_cff_fd_select_get
kve:_Text_set_resizeTextForBestFit_m4095249125
z3e:_OidEnumerator_MoveNext_m3138911739
qFg:__Z53RuntimeInvoker_Boolean_t97287965_Keyframe_t4206410242PFvvEPK10MethodInfoPvPS4_
Ti:_emscripten_glGetShaderiv
OJ:__ZN4FMOD6System10getVersionEPj
_Nc:__ZN2UI6Canvas23VirtualRedirectTransferER24GenerateTypeTreeTransfer
tte:_Selectable_set_animationTriggers_m2970345687
m1g:_Collection_1_CopyTo_m4271769704_gshared
Ytc:__ZN9JSONWrite8TransferIN4math12int2_storageEEEvRT_PKc17TransferMetaFlags
yJc:__ZN13TextRendering4Font13AwakeFromLoadE17AwakeFromLoadMode
Zvf:_CompareInfo_LastIndexOf_m2688553706
ntf:_Enum__ctor_m3602080049
gqa:__ZN9GfxDevice21ReleaseSharedMeshDataEP14SharedMeshData
B2c:_MouseState__ctor_m1467839005
bDh:_Uri_IsDomainAddress_m2867513594
qdb:__ZNSt3__27__sort5IRNS_6__lessINS_4pairIPKN5Unity4TypeE7Hash128EES8_EEPS8_EEjT0_SC_SC_SC_SC_T_
Daj:__ZL79Convert_t2465617642_CustomAttributesCacheGenerator_Convert_ToDouble_m2949593046P21CustomAttributesCache
D9c:_Dropdown_CreateItem_m2954407740
Gwi:_GC_unreachable_finalize_mark_proc
W4e:_X509Chain_ProcessCrlExtensions_m236234529
cyi:_maybe_finalize
wVh:__ZN6il2cpp2vm5Class40GetInterfaceInvokeDataFromVTableSlowPathEPK12Il2CppObjectPK11Il2CppClassj
MOf:_Array_InternalArray__IndexOf_TisLabelData_t360167391_m1826525656_gshared
bjc:__Z43RectTransform_CUSTOM_INTERNAL_get_anchorMaxP12Il2CppObjectP13Vector2fIcall
PPh:_TextGenerator_INTERNAL_CALL_Populate_Internal_cpp_m4171649399
Fae:_RealProxy_get_ObjectIdentity_m2790771985
S9d:_RemotingConfiguration_RegisterChannelTemplate_m3105688054
i4a:__ZN8Material28UpdateHashesOnPropertyChangeEN9ShaderLab16FastPropertyNameE
TYg:_Collection_1_System_Collections_IList_get_Item_m1368877441_gshared
y1i:__ZL56MethodBuilder_t2807316753_CustomAttributesCacheGeneratorP21CustomAttributesCache
o9e:_Locale_GetText_m3520169047
Ljc:__Z53Register_UnityEngine_SortingLayer_GetLayerValueFromIDv
Bij:__ZL85RectOffset_t1369453676_CustomAttributesCacheGenerator_RectOffset_set_right_m807318764P21CustomAttributesCache
Iob:__Z18Transfer_BlittableI14SafeBinaryReadLb1E8Vector4fEvRK29SerializationCommandArgumentsR31RuntimeSerializationCommandInfo
p2h:_SessionStateChanged_EndInvoke_m3128001178
ZL:__ZN11AudioSource12AddToManagerEv
Os:__ZN8Animator23VirtualRedirectTransferER19StreamedBinaryWriteILb0EE
Jz:__ZN11UnityEngine9Animation32CreateAnimatorGenericBindingsOptERKNS0_20AnimationSetBindingsER9TransformPKN7mecanim9animation14AvatarConstantEPKNS0_21AvatarBindingConstantEbRNS6_6memory9AllocatorER8Animator
tli:__ZN6il2cpp2vm5Image13ClassFromNameEPK11Il2CppImagePKcS6_
fIj:dynCall_vdddddd
Gka:__ZN24GenerateTypeTreeTransfer21TransferSTLStyleArrayINSt3__26vectorIN9ShaderLab14SerializedPassENS1_9allocatorIS4_EEEEEEvRT_17TransferMetaFlags
vaa:__ZL32MarkLevelGameManagerDependenciesR27GarbageCollectorThreadState
Esa:__ZNK13GfxDeviceGLES26HasActiveRandomWriteTargetEv
TKh:__ZL25UnresolvedVirtualCall_115P12Il2CppObjectsaaaPK10MethodInfo
b_i:__ZL54_MemberInfo_t3922476713_CustomAttributesCacheGeneratorP21CustomAttributesCache
PMj:_glGetActiveUniformsiv__wrapper
Ijc:__Z43Register_UnityEngine_Material_EnableKeywordv
vMi:_Mesh_GetIndices_m2873123901
j_:__ZN13MonoBehaviour19SetupScriptingCacheE17ScriptingClassPtrP10MonoScript
u0h:__ZNSt3__214__split_bufferIP12Il2CppThreadRNS_9allocatorIS2_EEED2Ev
cs:__Z20AnimationEventToMonoRK14AnimationEventR18MonoAnimationEvent
hDg:__Z106RuntimeInvoker_Void_t1185182177_Single_t1397266774_Single_t1397266774_Single_t1397266774_Int32_t2950945753PFvvEPK10MethodInfoPvPS4_
Q7c:_FloatTween_set_targetValue_m3604919944_AdjustorThunk
yZ:__ZN17PersistentManager29ReadAndActivateObjectThreadedEiRK26SerializedObjectIdentifierP14SerializedFilebb
Hud:_ArrayList_get_IsReadOnly_m913775115
p2c:_PointerEventData_get_dragging_m746831934
Y_f:_Type_get_TypeHandle_m160082026
jah:_ReadOnlyCollection_1_System_Collections_IEnumerable_GetEnumerator_m2781605075_gshared
_da:__ZZN15DirectorManager15InitializeClassEvEN52PreLateUpdateDirectorUpdateAnimationBeginRegistrator7ForwardEv
fJf:_Array_get_swapper_TisCustomAttributeNamedArgument_t287865710_m4254011335_gshared
Ibd:_Graphic_RegisterDirtyMaterialCallback_m106898453
nFh:_GUILayoutEntry_get_margin_m3174861737
pKa:__ZN4PPtrI6SpriteE8TransferI14SafeBinaryReadEEvRT_
I9f:_EqualityComparer_1_System_Collections_IEqualityComparer_Equals_m1672604045_gshared
Jei:__ZN15dense_hashtableINSt3__24pairIK10KeyWrapperIP11Il2CppClassES4_EES5_N6il2cpp8metadata16SZArrayClassHashEN14dense_hash_mapIS5_S4_SA_NS5_14EqualsComparerINS9_19SZArrayClassCompareEEENS0_9allocatorIS7_EEE9SelectKeyESE_SG_E16reset_thresholdsEv
XRg:_List_1_GetEnumerator_m2095602005_gshared
Yja:__ZNSt3__26vectorIN9ShaderLab14SerializedPassENS_9allocatorIS2_EEE8__appendEj
hja:__ZNSt3__26vectorIN9ShaderLab20SerializedSubProgram13BufferBindingENS_9allocatorIS3_EEEC2INS_11__wrap_iterIPS3_EEEET_SB_RKS5_PNS_9enable_ifIXaasr21__is_forward_iteratorISB_EE5valuesr16is_constructibleIS3_NS_15iterator_traitsISB_E9referenceEEE5valueEvE4typeE
UKg:__Z37RuntimeInvoker_Enumerator_t3436819725PFvvEPK10MethodInfoPvPS4_
lOi:_PlayableOutputHandle_op_Equality_m388301694
YTf:_Encoding_get_ISOLatin1_m2107621369
vaf:_BigInteger_op_Inequality_m2697143438
ojj:__ZL89Mathf_t3464937446_CustomAttributesCacheGenerator_Mathf_SmoothDamp_m394423605____maxSpeed4P21CustomAttributesCache
aYi:__ZL72IntPtr_t_CustomAttributesCacheGenerator_IntPtr_op_Inequality_m3063970704P21CustomAttributesCache
qvh:_SafeBag_get_ASN1_m2293701606
R3a:__ZN9Texture2D23VirtualRedirectTransferER18StreamedBinaryReadILb0EE
vlf:_DateTime_System_IConvertible_ToDouble_m2116720007_AdjustorThunk
_wd:_BitArrayEnumerator__ctor_m2359341397
Tfg:_Enumerator_MoveNext_m1177880931_gshared
U1a:__ZNK12CubemapArray12GetDataWidthEv
eQe:_DefaultComparer__ctor_m3288720761_gshared
VFg:__Z102RuntimeInvoker_Int32_t2950945753_RuntimeObject_Vector2_t2156229523_Int32_t2950945753_Int32_t2950945753PFvvEPK10MethodInfoPvPS4_
vWh:__ZN30dense_hashtable_const_iteratorINSt3__24pairIK10KeyWrapperIPKcEP11Il2CppClassEES5_N6il2cpp5utils11StringUtils12StringHasherIS4_EEN14dense_hash_mapIS5_S8_SE_NS5_14EqualsComparerINSB_13VmStringUtils21CaseSensitiveComparerEEENS0_9allocatorIS9_EEE9SelectKeyESJ_SL_E30advance_past_empty_and_deletedEv
Doj:__ZL73g_UnityEngine_TextRenderingModule_Assembly_CustomAttributesCacheGeneratorP21CustomAttributesCache
G$:__ZN16ScriptingManager27NativeTypeForScriptingClassE17ScriptingClassPtr
U1f:_UInt64_System_IConvertible_ToDateTime_m3434604642
T_f:_Type_get_IsSerializable_m1040556850
NDc:_get_sfnt_table
Wmh:_Array_Resize_TisUIVertex_t4057497605_m1219201596_gshared
a1i:__ZL55StreamWriter_t1266378904_CustomAttributesCacheGeneratorP21CustomAttributesCache
X3f:_Dictionary_2_System_Collections_ICollection_get_IsSynchronized_m256515291_gshared
vX:__ZN8Renderer20RendererAddedToSceneEv
YVb:__ZL22ScheduleSceneNodesJobsP25ScheduleSceneNodesJobDataj
Jk:_emscripten_set_canvas_size
Lad:_Graphic_SetVerticesDirty_m2124914069
awf:_CultureInfo__ctor_m3285927757
poe:_MaskableGraphic_get_rootCanvasRect_m3492154629
Rmh:_Array_Resize_TisRaycastResult_t3360306849_m1811054291_gshared
h5g:_ReadOnlyCollection_1_System_Collections_Generic_ICollectionU3CTU3E_get_IsReadOnly_m3152485890_gshared
Cja:__ZNSt3__26vectorIN9ShaderLab20SerializedSubProgramENS_9allocatorIS2_EEE8__appendEj
BW:__ZN20DynamicHeapAllocatorI17LowLevelAllocatorE8AllocateEji
LGh:_Locale_GetText_m2427493201
SOb:__ZN20DynamicPropertySheet15SetVectorQueuedERKN9ShaderLab16FastPropertyNameERK8Vector4fN19ShaderPropertySheet8SetFlagsE
wA:__ZN7mecanim9animation22EvaluateAvatarRetargetEPKNS0_14AvatarConstantEPKNS0_11AvatarInputEPNS0_12AvatarOutputEPNS0_12AvatarMemoryEPNS0_15AvatarWorkspaceEb
pNe:_InternalEnumerator_1_System_Collections_IEnumerator_Reset_m996811230_AdjustorThunk
$Xa:__ZN14RenderSettings23VirtualRedirectTransferER19StreamedBinaryWriteILb0EE
NWd:_ConstructorBuilder_get_TypeBuilder_m2755629087
vsc:__ZL26Transfer_SimpleNativeClassI9JSONWrite10RectOffsetLb0EEvRK29SerializationCommandArgumentsR31RuntimeSerializationCommandInfo
_wi:_GC_push_conditional
Hwa:__ZN17GenericDynamicVBO10AllocateVBEjR21DynamicVBOChunkHandle
Uof:_DBNull_ToString_m3638608738
wmi:__ZN30dense_hashtable_const_iteratorI10KeyWrapperIP18Il2CppGenericClassES3_N6il2cpp8metadata22Il2CppGenericClassHashEN14dense_hash_setIS3_S6_NS3_14EqualsComparerINS5_25Il2CppGenericClassCompareEEENSt3__29allocatorIS3_EEE8IdentityESA_SD_EppEv
Xwd:_BitArray_Clone_m3537018332
ihe:_ObjectRecord_UnchainFixup_m3191243952
Fth:_TlsStream_get_CanWrite_m16389328
Yxg:__Z65RuntimeInvoker_RuntimeObject_RuntimeObject_Vector3U26_t3464235976PFvvEPK10MethodInfoPvPS4_
hl:_glMapBufferRange
J3a:__ZN9Texture2D8TransferI18StreamedBinaryReadILb0EEEEvRT_
bic:__Z31Input_CUSTOM_GetMouseButtonDowni
A9b:__ZN13PlayableGraph4PlayEv
V8b:__Z29AddCanvasIntermediateRendererPN2UI6CanvasEPNS_13CanvasBuffersEP17VertexDeclarationjRK10Matrix4x4ftRK4AABB4PPtrI8MaterialEi17ShadowCastingModebP6Camerab
eNb:__ZNK9Transform16GetLocalPositionEv
XSf:_EncoderExceptionFallbackBuffer_get_Remaining_m1573636148
kSd:_MonoType_get_BaseType_m1098640416
vLa:__ZN13LoadOperation19IntegrateTimeSlicedEi
Yth:_TlsStream_Read_m3392972801
Psa:__ZN13GfxDeviceGLES22DispatchComputeProgramE12ObjectHandleI18ComputeProgram_TagPvE15ComputeBufferIDj
mRi:_Transform_get_localToWorldMatrix_m4155710351
XJb:__ZN20DefaultGfxDeviceImpl32InitStereoGlobalsBuffersPlatformEiijPKv
FUf:_Latin1Encoding_GetString_m254210343
Mhb:__Z17TransformAABBSlowRK4AABBRK10Matrix4x4fRS_
spd:_Array_combsort_m4052486289
j7a:__ZN15SerializeTraitsI13dynamic_arrayI12SpriteVertexLj4EEE19ResizeSTLStyleArrayERS2_i
WLg:_List_1_System_Collections_ICollection_get_SyncRoot_m314215814_gshared
Zha:__ZN9ShaderLab21SerializedShaderState8TransferI14SafeBinaryReadEEvRT_
puf:_Environment_GetWindowsFolderPath_m1738399646
MWg:_Queue_1_System_Collections_Generic_IEnumerableU3CTU3E_GetEnumerator_m2263220760_gshared
aUg:_List_1_Sort_m378918663_gshared
_zc:_cf2_stack_pushInt
HD:__ZN7mecanim9animation20DestroyLayerConstantEPNS0_13LayerConstantERNS_6memory9AllocatorE
nA:__ZN8Animator19FireAnimationEventsERNS_11AnimatorJobE
Q1d:_Module_GetCustomAttributes_m76573271
Qgd:_CryptoConfig_EncodeOID_m2635914623
Ika:__ZN15SerializeTraitsINSt3__24pairIN4core12basic_stringIcNS2_20StringStorageDefaultIcEEEES6_EEE8TransferI24GenerateTypeTreeTransferEEvRS7_RT_
oPj:b89
nPj:b88
POj:b81
OOj:b80
lFa:__ZN7ApiGLES19CreateSparseTextureEjj14GraphicsFormatiiiiRiS1_S1_
o0:__ZN18ResourceImageGroup7CleanupEv
gPj:b85
fPj:b84
iPj:b87
hPj:b86
Ap:__ZN11Quaternionf8TransferI24GenerateTypeTreeTransferEEvRT_
uee:_RemotingSurrogateSelector_GetSurrogate_m3900875713
Kwg:__Z69RuntimeInvoker_Boolean_t97287965_UInt16_t2177724958_Int16_t2552820387PFvvEPK10MethodInfoPvPS4_
G7g:_ReadOnlyCollection_1_System_Collections_IList_get_IsReadOnly_m3626439112_gshared
Udf:_CertificateValidationCallback_Invoke_m1014111289
ZYa:__ZN8Playable19SetOutputConnectionEPS_i
O2g:__ZN23InterfaceActionInvoker2Ii19Vector2_t2156229523E6InvokeEjP11Il2CppClassP12Il2CppObjectiS0_
MVh:__ZN15dense_hashtableINSt3__24pairIK10KeyWrapperIPK11Il2CppClassEPKcEES6_N6il2cpp5utils11PointerHashIS3_EEN14dense_hash_mapIS6_S9_SE_NS6_14EqualsComparerINS0_8equal_toIS5_EEEENS0_9allocatorISA_EEE9SelectKeyESJ_SL_EC2ERKSO_j
Wl:_glDeleteShader
KAa:__ZN6prcoreL17RemapGenericFloatI15TexFormatRGHalf16TexFormatRGFloatEEvPKNS_9InnerInfoE
Inh:_Array_Sort_TisUICharInfo_t75501106_m128665067_gshared
rCc:_otv_GSUB_validate
Yzf:_RSAPKCS1SignatureDeformatter_SetHashAlgorithm_m1602190713
rtf:_Enum_System_IConvertible_ToByte_m1219166845
s_e:_Dictionary_2_CopyToCheck_m45332585_gshared
DRg:_List_1_System_Collections_ICollection_get_IsSynchronized_m3630704857_gshared
$Ge:_InternalEnumerator_1_System_Collections_IEnumerator_Reset_m4239728915_AdjustorThunk
_dc:__Z27scripting_add_internal_callPKcPKv
K1g:__ZN21InterfaceFuncInvoker1Ib20UIVertex_t4057497605E6InvokeEjP11Il2CppClassP12Il2CppObjectS0_
gai:__ZN13Il2CppHashMapINSt3__24pairIPK9EventInfoP11Il2CppClassEEj17ReflectionMapHashIS7_ENS0_8equal_toIS7_EENS0_9allocatorINS1_IK10KeyWrapperIS7_EjEEEEEC2EjRKS9_RKSB_
mni:__GLOBAL__sub_I_GarbageCollector_cpp
d5:__Z17GetPlayerSettingsv
WA:__ZN34BlobWriteTransferSTLStyleArrayImplI22OffsetPtrArrayTransferIiEEclERS1_17TransferMetaFlagsR9BlobWrite
hKi:_Input_get_inputString_m1307069105
I2d:_MonoField_get_FieldHandle_m3729647377
Bre:_ScrollRect_get_content_m2477524320
aUe:_Enumerator_MoveNext_m1556953412_AdjustorThunk
jt:__ZN26AnimatorControllerPlayable18SetLayerAutoWeightEv
qTc:__Z44Register_UnityEngine_Canvas_get_pixelPerfectv
$Bh:_Literal_GetAnchorInfo_m810577400
olj:__ZL101RectTransform_t3704657025_CustomAttributesCacheGenerator_RectTransform_INTERNAL_set_pivot_m1160676233P21CustomAttributesCache
zQc:__ZN2UI14CanvasRenderer12SyncMaterialENS0_8SyncFlagE
FOd:_StreamWriter_Write_m1660535366
qHg:__Z66RuntimeInvoker_Void_t1185182177_Int32_t2950945753_Link_t3209266973PFvvEPK10MethodInfoPvPS4_
WAi:__ZN6il2cpp2vm9Parameter30GetDefaultParameterValueObjectEPK10MethodInfoPK13ParameterInfoPb
yWf:_UTF8Encoding_GetByteCount_m4152118078
UGg:__Z71RuntimeInvoker_Void_t1185182177_CustomAttributeNamedArgument_t287865710PFvvEPK10MethodInfoPvPS4_
EBe:_KeyPairPersistence__CanSecure_m3516574278
o4f:_Dictionary_2_make_pair_m3116882385_gshared
Gsg:__Z95RuntimeInvoker_Void_t1185182177_RuntimeObject_RuntimeObject_Int32_t2950945753_SByte_t1669577662PFvvEPK10MethodInfoPvPS4_
ojd:_MD5CryptoServiceProvider_Dispose_m3502499818
__g:_Collection_1_System_Collections_IList_get_Item_m2422562729_gshared
Hzg:__Z87RuntimeInvoker_Void_t1185182177_RuntimeObject_StringU26_t181565287_StringU26_t181565287PFvvEPK10MethodInfoPvPS4_
WRe:_Comparer_1_get_Default_m1596450988_gshared
YYi:__ZL74RuntimeArray_CustomAttributesCacheGenerator_Array_BinarySearch_m3171087170P21CustomAttributesCache
xYi:__ZL72Enum_t4135868527_CustomAttributesCacheGenerator_Enum_ToObject_m122225012P21CustomAttributesCache
AEc:_UNITY_tt_face_done_kern
Zef:_SecurityParameters_get_ServerWriteMAC_m3430427271
Oqj:__ZL90GUIStyle_t3956901511_CustomAttributesCacheGenerator_GUIStyle_get_stretchHeight_m4172805773P21CustomAttributesCache
zEe:_ArrayReadOnlyList_1_RemoveAt_m2104218585_gshared
Bab:__ZN12BoneWeights48TransferI24GenerateTypeTreeTransferEEvRT_
MMf:_Array_InternalArray__IEnumerable_GetEnumerator_TisParameterModifier_t1461694466_m3675077728_gshared
PBj:_InputBuffer_GetCurrentInputLine_m3377313537
iyj:__ZL60RawImage_t3182918964_CustomAttributesCacheGenerator_m_UVRectP21CustomAttributesCache
CGb:__Z19scripting_gc_enablev
LNe:_InternalEnumerator_1_get_Current_m2907722321_gshared
DKb:__ZZ23InitPlayerLoopCallbacksvEN41InitializationPlayerUpdateTimeRegistrator7ForwardEv
Kdc:__ZN11UTF16StringC2ERKS_10MemLabelId
X_b:__Z29StdTemplateConversionFunctionIihEbPvR14SafeBinaryRead
WOe:_InternalEnumerator_1_get_Current_m3792939945_AdjustorThunk
rSc:__Z55Register_UnityEngine_CanvasRenderer_DisableRectClippingv
aab:__ZN14SafeBinaryRead21TransferSTLStyleArrayI13dynamic_arrayI11ColorRGBA32Lj4EEEEvRT_17TransferMetaFlags
Dub:__ZL26Transfer_SimpleNativeClassI24GenerateTypeTreeTransfer8GradientLb0EEvRK29SerializationCommandArgumentsR31RuntimeSerializationCommandInfo
Oxj:__ZL118U3CCaretBlinkU3Ec__Iterator0_t2589889038_CustomAttributesCacheGenerator_U3CCaretBlinkU3Ec__Iterator0_Reset_m1547565867P21CustomAttributesCache
OIa:__ZN9GfxDevice22UploadTextureCubeArrayE9TextureIDPKhjii14GraphicsFormati18TextureUploadFlags
AIe:_InternalEnumerator_1_System_Collections_IEnumerator_get_Current_m888718134_gshared
Aog:__Z175RuntimeInvoker_Void_t1185182177_SByte_t1669577662_SByte_t1669577662_SByte_t1669577662_SByte_t1669577662_SByte_t1669577662_SByte_t1669577662_SByte_t1669577662_SByte_t1669577662PFvvEPK10MethodInfoPvPS4_
jNi:_Object_Destroy_m3118546832
lmf:_DateTime_FromTicks_m4059645178_AdjustorThunk
a_i:__ZL67ICustomAttributeProvider_t1530824137_CustomAttributesCacheGeneratorP21CustomAttributesCache
T9d:_ConfigHandler_ParseTime_m1787834288
Ima:__ZN9ShaderLab7Program27CreateFromSerializedProgramERKNS_17SerializedProgramE10ShaderTypeiP16PropertyNamesSetPK6Shader
OUd:_Assembly_Load_m3487507613
UWa:__ZNSt3__27__sort4IRNS_6__lessIN4core12basic_stringIcNS2_20StringStorageDefaultIcEEEES6_EEPS6_EEjT0_SA_SA_SA_T_
LIj:dynCall_viiiifii
K8h:__ZN6il2cpp2gc19AppendOnlyGCHashMapINSt3__24pairIPK11Il2CppImageP11Il2CppClassEEP22Il2CppReflectionModule17ReflectionMapHashIS9_ENS2_8equal_toIS9_EEEC2Ev
OY:__Z20GetPersistentManagerv
QHc:_UNITY_TT_Set_Var_Design
l8:__ZN21SystemInfoStringCache16StaticInitializeEPv
Baj:__ZL80Convert_t2465617642_CustomAttributesCacheGenerator_Convert_ToDecimal_m1695757674P21CustomAttributesCache
ute:_Selectable_get_targetGraphic_m559777690
B4g:_ReadOnlyCollection_1_System_Collections_Generic_ICollectionU3CTU3E_Remove_m1100818788_gshared
tni:__ZNK10KeyWrapperIP12Il2CppObjectE14EqualsComparerINSt3__28equal_toIS1_EEEclERKS2_S9_
bja:__ZNSt3__26vectorIN9ShaderLab20SerializedSubProgram15StructParameterENS_9allocatorIS3_EEE6assignIPS3_EENS_9enable_ifIXaasr21__is_forward_iteratorIT_EE5valuesr16is_constructibleIS3_NS_15iterator_traitsISA_E9referenceEEE5valueEvE4typeESA_SA_
K3g:_Collection_1_IsSynchronized_m2291009199_gshared
RDb:__ZNK13MonoBehaviour7GetNameEv
Pib:__ZN19ScriptingInvocation28AdjustArgumentsToMatchMethodEv
yjh:_IndexedSet_1_Contains_m1525966688_gshared
rmj:__ZL97Mesh_t3648964284_CustomAttributesCacheGenerator_Mesh_SetTriangles_m2205169959____calculateBounds2P21CustomAttributesCache
zG:__Z15_CheckFMODError11FMOD_RESULTPKciS1_
Dgi:__ZN6il2cpp6icalls8mscorlib6SystemL16ThrowInvalidCastEPK11Il2CppClassS5_
BVa:__Z20RenderMultipleMeshesRK15RenderNodeQueueRK18RenderMultipleData17ShaderChannelMask
hbg:_EqualityComparer_1_get_Default_m79107703_gshared
SXc:__ZN11UnityEngine15PlatformWrapper20GetPlayerPrefsStringERKN4core12basic_stringIcNS1_20StringStorageDefaultIcEEEES5_
loe:_MaskableGraphic_get_maskable_m1260382606
$Tf:_Latin1Encoding__ctor_m498920120
Ubi:__ZN6il2cpp2vm4Type19GetGenericParameterEPK10Il2CppType
dOd:_StreamReader_Peek_m2272511193
fnf:_DateTimeFormatInfo_FillAllDateTimePatterns_m2683124783
SRc:__Z51Register_UnityEngine_CanvasGroup_get_blocksRaycastsv
dTd:_NumberFormatter_get_IsFloatingSource_m3714711779
m0g:_Collection_1_System_Collections_IList_Add_m1403891193_gshared
fIe:_InternalEnumerator_1_System_Collections_IEnumerator_Reset_m169899350_AdjustorThunk
z$f:_Type_GetConstructor_m1195697116
sd:_glBeginQuery
r0i:__ZL104RegionInfo_t1090270226_CustomAttributesCacheGenerator_RegionInfo_t1090270226____DisplayName_PropertyInfoP21CustomAttributesCache
sQh:_Canvas_get_scaleFactor_m3314757802
fMb:__ZN6Camera12RenderStereoENS_10RenderFlagE8CullFlagPNS_24PerformEyeRenderFunctionE
Rlb:__ZN20LocalFileSystemPosix10ToAbsoluteEPKc
pVa:__ZN20TierGraphicsSettings8TransferI19StreamedBinaryWriteILb0EEEEvRT_
kSj:b111
S7:__GLOBAL__sub_I_runtime_input_0_cpp
_ti:__ZN6il2cpp2vm13ComObjectBase16DisconnectObjectEj
Icg:_GenericComparer_1__ctor_m3652072706_gshared
Bm:f0
dKa:__ZN9BehaviourD0Ev
RUa:__Z32TransferEnumWithNameForceIntSizeI14SafeBinaryRead7HDRModeEvRT_RT0_PKc17TransferMetaFlags
jEj:_getcwd
GKa:__ZN25ThreadsafeLinearAllocatorD2Ev
bhb:__Z21SendMessageToEveryoneRK17MessageIdentifier11MessageData
Gca:__ZN21BillboardBatchManager16StaticInitializeEPv
clf:_DateTime_AbsoluteDays_m4235097773
y9:__ZN12_GLOBAL__N_138ArchiveRedirectFileSystemStaticDestroyEPv
OZi:__ZL126U3CGetEnumeratorU3Ec__Iterator0_t1202911786_CustomAttributesCacheGenerator_U3CGetEnumeratorU3Ec__Iterator0_Dispose_m2078994225P21CustomAttributesCache
Mjg:__Z74RuntimeInvoker_RuntimeObject_RuntimeObject_RuntimeObject_SByte_t1669577662PFvvEPK10MethodInfoPvPS4_
YZi:__ZL69Type_t_CustomAttributesCacheGenerator_Type_GetConstructor_m1195697116P21CustomAttributesCache
E8c:_DefaultControls_CreateScrollView_m3842770629
Y1a:__ZN12CubemapArray34UpdateFileTextureUploadInstructionEP26FileAssetUploadInstructionj
l1i:__ZL94EnumBuilder_t2400448213_CustomAttributesCacheGenerator_EnumBuilder_GetConstructors_m3294436155P21CustomAttributesCache
xIg:__Z55RuntimeInvoker_TableRange_t3332867892_Int32_t2950945753PFvvEPK10MethodInfoPvPS4_
sLe:_InternalEnumerator_1_MoveNext_m1020308708_gshared
kFa:__Z23CreateSparseTextureGLES9TextureIDii14GraphicsFormati
ZCc:_otv_Anchor_validate
oyf:_Guid_CompareTo_m243656946_AdjustorThunk
$uf:_CCMath_mod_m3631663509
b_f:_TimeSpan_Negate_m1889505500_AdjustorThunk
Y7g:_ReadOnlyCollection_1_System_Collections_ICollection_CopyTo_m2715087453_gshared
lsj:__ZL84Canvas_t3310196443_CustomAttributesCacheGenerator_Canvas_get_scaleFactor_m3314757802P21CustomAttributesCache
wVe:_Transform_1__ctor_m2810088858_gshared
xLc:__ZNSt3__23mapIN20TextRenderingPrivate7FontRefEP11FT_FaceRec_NS_4lessIS2_EENS_9allocatorINS_4pairIKS2_S4_EEEEEixERS9_
aNa:__ZN17ArchiveFileSystem10AddStorageEP20ArchiveStorageReader
W_h:__ZN6il2cpp2vm13MetadataCache37GetParameterDefaultValueDataFromIndexEi
Zci:_il2cpp_class_get_assemblyname
wtg:__Z50RuntimeInvoker_SByte_t1669577662_SByte_t1669577662PFvvEPK10MethodInfoPvPS4_
rbd:_Graphic_OnFillVBO_m1026749972
_Th:__ZN6il2cpp2vm5Class15GetEnumBaseTypeEP11Il2CppClass
ehf:_Context_set_WriteSequenceNumber_m942577065
Xd:_glVertexAttrib4fv
rui:__ZNK6il2cpp5utils13VmStringUtils23CaseInsensitiveComparerclERKNSt3__212basic_stringIcNS3_11char_traitsIcEENS3_9allocatorIcEEEEPKc
M5c:_CanvasScaler_SetScaleFactor_m3006968999
DKg:__Z78RuntimeInvoker_Boolean_t97287965_Navigation_t3049316579_Navigation_t3049316579PFvvEPK10MethodInfoPvPS4_
_2a:__ZNK9Texture2D16GetNpotTexelSizeEv
$Sd:_NumberFormatter_Init_m3576155222
yMa:__ZL33FileEntryInfoListToFolderContentsRKN4core12basic_stringIcNS_20StringStorageDefaultIcEEEERK19dynamic_block_arrayI13FileEntryInfoLj32EERNSt3__23setIS3_NSB_4lessIS3_EENSB_9allocatorIS3_EEEE
Ane:_LayoutUtility_GetLayoutProperty_m714717302
yCj:_Terminal_NotifyCommandHandlers_m909296863
a3f:__ZN23InterfaceActionInvoker1IP39UnhandledExceptionEventArgs_t2886101344E6InvokeEjP11Il2CppClassP12Il2CppObjectS1_
T$c:_EventSystem_set_sendNavigationEvents_m983981895
Wpa:__ZN9GfxDevice22GetDefaultVertexBufferE26GfxDefaultVertexBufferTypej
LJf:_Array_InternalArray__ICollection_Contains_TisInt64_t3736567304_m2911357929_gshared
aMb:__ZNK6Camera16GetTargetDisplayEv
l$g:_Collection_1_Remove_m3022471627_gshared
BEj:___fseeko_unlocked
JTd:_Object_ToString_m1740002499
tEj:_sscanf
q1c:_ExecuteEvents_GetEventChain_m2404658789
BHb:__Z17BeginSplashScreenv
Vmh:_Array_Resize_TisUILineInfo_t4195266810_m3763058392_gshared
kgd:_SByte_ToString_m3584531119_AdjustorThunk
zla:__ZN9ShaderLab16SerializedShader8TransferI19StreamedBinaryWriteILb0EEEEvRT_
TC:__ZN7mecanim9animation18CreateAvatarMemoryEPKNS0_14AvatarConstantERNS_6memory9AllocatorE
utd:_Convert_ToInt32_m1876369743
V9e:_ModulusRing__ctor_m2420310199
KBd:_Convert_ToDateTime_m626620011
vUe:_Enumerator_System_Collections_IDictionaryEnumerator_get_Key_m2500634048_AdjustorThunk
FB:__ZN7mecanim8skeleton16SkeletonPoseCopyIN4math4trsXENS2_7affineXEEEvPKNS0_13SkeletonPoseTIT_EEPNS5_IT0_EE
Swb:__Z18Transfer_BlittableI19StreamedBinaryWriteILb0EELb0EaEvRK29SerializationCommandArgumentsR31RuntimeSerializationCommandInfo
tig:_List_1_Remove_m3037048099_gshared
pwa:__ZN18GfxFramebufferGLES18GetFramebufferNameERK20GfxRenderTargetSetup
hbi:__ZN6il2cpp2vm14TypeNameParser12ParseVersionERKNSt3__212basic_stringIcNS2_11char_traitsIcEENS2_9allocatorIcEEEERtSB_SB_SB_
Oke:_InputField_MoveDown_m1455948167
Joc:__Z30Event_Get_Custom_PropCharacterP12Il2CppObject
tea:__ZN13PlayableGraph27SchedulePlayableDestructionERK9HPlayable
iCc:_cff_get_mm_var
RLj:_glGetFramebufferAttachmentParameteriv__wrapper
F8d:_ChannelServices_GetCurrentChannelInfo_m3041604116
iYc:__Z13RegisterClassI20UnityConnectSettingsEvv
kOe:_InternalEnumerator_1__ctor_m2635640285_AdjustorThunk
Npb:__Z22scripting_array_length17ScriptingArrayPtr
ROd:_SynchronizedReader_Peek_m148942882
ung:__Z95RuntimeInvoker_Void_t1185182177_RuntimeObject_Int32_t2950945753_Int32_t2950945753_RuntimeObjectPFvvEPK10MethodInfoPvPS4_
j2a:__ZN14SafeBinaryRead20TransferTypelessDataEjPvi
gJc:_Horizontal_Sweep_Init
sN:__ZN13dynamic_arrayI12SoundChannelLj4EE9push_backERKS0_
a5:__Z19GetActiveColorSpacev
aEc:_UNITY_tt_face_load_kern
k2d:_MonoMethodInfo_GetDeclaringType_m2924452727
NIb:__ZN13sorted_vectorINSt3__24pairIiN17InstancingBatcher12PropertyTypeEEEN10vector_mapIiS3_NS0_4lessIiEE13stl_allocatorIS4_L18MemLabelIdentifier1ELi16EEE13value_compareESA_E21sort_clear_duplicatesEv
D$:__Z6StrCmpPKcS0_
tGd:_NumberFormatter_AppendIntegerString_m2257376141
Qna:__Z21CheckGpuProgramUsable20ShaderGpuProgramType
Z4b:__ZN13ProduceHelperI14Texture2DArrayLb0EE7ProduceE10MemLabelId18ObjectCreationMode
Zqi:__ZN6il2cpp2os9Directory20GetFileSystemEntriesERKNSt3__212basic_stringIcNS2_11char_traitsIcEENS2_9allocatorIcEEEESA_iiPi
cod:_Array_System_Collections_IList_Add_m1063688101
byj:__ZL66Navigation_t3049316579_CustomAttributesCacheGenerator_m_SelectOnUpP21CustomAttributesCache
HKc:__ZN20TextRenderingPrivate19NativeTextGenerator5SetupEv
lTb:__ZNK15SharedLightData24GetFinalShadowResolutionEv
dzh:_PatternCompiler_EmitAlternationEnd_m2444359097
bij:__ZL91GameObject_t1113636619_CustomAttributesCacheGenerator_GameObject_get_activeSelf_m1767405923P21CustomAttributesCache
r$i:__ZL57CollectionBase_t2727926298_CustomAttributesCacheGeneratorP21CustomAttributesCache
xeb:__ZN12AspectRatios8TransferI18StreamedBinaryReadILb0EEEEvRT_
O8b:__ZN10GameObject14CopyPropertiesERS_
xpc:__Z44Register_UnityEngine_GUIStyle_get_fixedWidthv
IKf:_Array_InternalArray__ICollection_Remove_TisLink_t544317964_m1280781374_gshared
vqi:__ZNSt3__214__split_bufferIN6il2cpp2os10ThreadImpl10APCRequestERNS_9allocatorIS4_EEEC2EjjS7_
zqd:_BitConverter_DoubleWordsAreSwapped_m1474345095
B6a:__ZNK13ScreenManager12IsFullScreenEv
Rvd:_FixedSizeArrayListWrapper_set_Capacity_m4221053039
WEj:_rand
tMj:_emscripten_glFramebufferRenderbuffer__wrapper
Vbc:__ZN13MeshScripting10CreateMeshE21ScriptingObjectOfTypeI4MeshE
wkh:_ListPool_1__cctor_m3480273184_gshared
xzg:__Z56RuntimeInvoker_Void_t1185182177_PropertyName_t3749835189PFvvEPK10MethodInfoPvPS4_
Y0c:__ZN23InterfaceActionInvoker1IP25BaseEventData_t3903027533E6InvokeEjP11Il2CppClassP12Il2CppObjectS1_
Jqb:__ZN14SafeBinaryRead21TransferSTLStyleArrayINSt3__26vectorI17AnimationCurveTplIfE13stl_allocatorIS4_L18MemLabelIdentifier1ELi16EEEEEEvRT_17TransferMetaFlags
uwd:_SynchronizedArrayListWrapper_Contains_m3809499313
VKf:_Array_InternalArray__ICollection_Remove_TisLabelData_t360167391_m3556246844_gshared
P6h:__ZN15dense_hashtableINSt3__24pairIK10KeyWrapperINS1_IPK11Il2CppImageP11Il2CppClassEEEjEES9_17ReflectionMapHashIS8_EN14dense_hash_mapIS9_jSD_NS9_14EqualsComparerINS0_8equal_toIS8_EEEENS0_9allocatorISB_EEE9SelectKeyESI_SK_E12expand_arrayEjN21dense_hash_map_traits17integral_constantIbLb0EEE
Oid:_HMACSHA256__ctor_m346174875
hFh:_GUIContent_set_tooltip_m738967743
HVb:__Z22PrepareOptimizedPlanesPK5PlaneiPKN4math7_float4E
nIe:_InternalEnumerator_1__ctor_m1559487635_gshared
pV:__ZN11UnityEngine15CloudWebService17WebFileDownloaderINS0_20WebRequestRestClientENS0_23WebRequestRestHeaderMapEE10InitializeERKN4core12basic_stringIcNS5_20StringStorageDefaultIcEEEE
Eca:__ZN17UniqueIDGenerator15CreatePureIndexEv
zr:__ZN11UnityEngine9Animation28GenericAnimationBindingCache15DidReloadDomainEv
j4b:__Z48InitializeRectTransformAnimationBindingInterfacev
MLh:__ZL25UnresolvedVirtualCall_162P12Il2CppObject39CustomAttributeNamedArgument_t287865710S1_PK10MethodInfo
nfb:__ZNSt3__26vectorIN15ResourceManager10DependencyE13stl_allocatorIS2_L18MemLabelIdentifier52ELi16EEE6assignINS_11__wrap_iterIPS2_EEEENS_9enable_ifIXaasr21__is_forward_iteratorIT_EE5valuesr16is_constructibleIS2_NS_15iterator_traitsISC_E9referenceEEE5valueEvE4typeESC_SC_
nTh:__ZN15dense_hashtableINSt3__24pairIK10KeyWrapperIPK22Il2CppGenericParameterEP11Il2CppClassEES6_N6il2cpp5utils11PointerHashIS4_EEN14dense_hash_mapIS6_S9_SE_NS6_14EqualsComparerINS0_8equal_toIS5_EEEENS0_9allocatorISA_EEE9SelectKeyESJ_SL_E14squash_deletedEv
d$a:__ZN9ShaderLabL27GetDesiredRenderTextureDescEPK6Camera
p7i:__ZL131RSACryptoServiceProvider_t2683512874_CustomAttributesCacheGenerator_RSACryptoServiceProvider_t2683512874____PublicOnly_PropertyInfoP21CustomAttributesCache
xSf:_Array_InternalArray__Insert_TisMark_t3471605523_m2854535880_gshared
$ya:__ZN6prcoreL29inner_stretch_rgb565_bilinearEPKNS_9InnerInfoE
Tmc:__Z14GUIClipTextureP9Texture2DPhiiii
kpj:__ZL52HumanBone_t2465339518_CustomAttributesCacheGeneratorP21CustomAttributesCache
bee:_MethodReturnDictionary__cctor_m278392388
wY:__ZNK9Transform18TransformDirectionERK8Vector3f
Jsh:_SslStreamBase_get_CanWrite_m1622082918
ONa:__ZNK17ArchiveFileSystem12GetAssetGUIDERK13FileEntryData
Ina:__ZNSt3__26vectorIN9ShaderLab20SerializedSubProgram15MatrixParameterENS_9allocatorIS3_EEE21__push_back_slow_pathIKS3_EEvRT_
Jzj:__ZL80CanvasScaler_t2767979955_CustomAttributesCacheGenerator_m_ReferencePixelsPerUnitP21CustomAttributesCache
KCc:_otv_MarkLigPos_validate
$ye:_PrimalityTests_RabinMillerTest_m1471415870
vfg:_Enumerator_MoveNext_m2114485647_gshared
UZd:_GenericTypeParameterBuilder_GetCustomAttributes_m580748276
EZh:__ZN15dense_hashtableINSt3__24pairIK10KeyWrapperIPK11Il2CppClassEPKcEES6_N6il2cpp5utils11PointerHashIS3_EEN14dense_hash_mapIS6_S9_SE_NS6_14EqualsComparerINS0_8equal_toIS5_EEEENS0_9allocatorISA_EEE9SelectKeyESJ_SL_E12resize_deltaEjj
FGj:__ZNK10__cxxabiv120__si_class_type_info27has_unambiguous_public_baseEPNS_19__dynamic_cast_infoEPvi
_9e:_Kernel_LeftShift_m4140742987
BUd:_Assembly_GetManifestResourceInternal_m1224391897
Lwa:__Z30AddDefaultStreamsToMeshBuffersR9GfxDeviceR11MeshBuffersj17ShaderChannelMaskS3_
h9:__ZL16GetInterfaceImpl18UnityInterfaceGUID
rUh:__ZN6il2cpp2vmL17SetupFieldOffsetsENS0_15FieldLayoutKindEP11Il2CppClassjRKNSt3__26vectorIjNS4_9allocatorIjEEEE
Pti:__ZN6il2cpp6icalls8mscorlib6System15MonoCustomAttrs27GetCustomAttributesInternalEP12Il2CppObjectP20Il2CppReflectionTypeb
Wb:invoke_viifi
lIc:_UNITY_TT_Set_MM_Blend
T7:__GLOBAL__sub_I_runtime_math_random_0_cpp
Lrh:_InternalAsyncResult_get_FromWrite_m4228047810
Kqg:__Z53RuntimeInvoker_MonoEventInfo_t346866618_RuntimeObjectPFvvEPK10MethodInfoPvPS4_
Y1g:_Collection_1_CopyTo_m955200729_gshared
OHb:__ZN14PreloadManager35WaitForAllAsyncOperationsToCompleteEv
Vag:_EqualityComparer_1__ctor_m1138336971_gshared
D_:__ZNK18ScriptingObjectPtr17ToScriptingStringEv
gI:__ZL31InitializeAudioScriptingClassesv
$Mb:__Z14SortGUIByDepthP10GUIElementS0_
D8:__ZN13RuntimeStaticI13dynamic_arrayIPK31TransferFunctionScriptingTraitsLj4EELb0EE16StaticInitializeEPv
Bvg:__Z69RuntimeInvoker_UInt32_t2560061978_Int32_t2950945753_SByte_t1669577662PFvvEPK10MethodInfoPvPS4_
qC:__ZN12_GLOBAL__N_120ProcessRootMotionMixER33AnimationPlayableEvaluationOutputR35AnimationPlayableEvaluationConstantR32AnimationPlayableEvaluationInputS1_f
LDh:_UriParser__cctor_m3655686731
qne:_LayoutRebuilder_U3Cs_RebuildersU3Em__0_m589488547
$Jg:__Z53RuntimeInvoker_KeyValuePair_2_t71524366_RuntimeObjectPFvvEPK10MethodInfoPvPS4_
rmb:__ZNK20LocalFileSystemPosix21GetAvailableDiskSpaceEPKcRy
r8:__ZNSt3__26__treeIiNS_4lessIiEENS_9allocatorIiEEE7destroyEPNS_11__tree_nodeIiPvEE
ppa:__ZNK9GfxDevice14GetWorldMatrixEv
Pvc:__ZN8JSONRead8TransferI8Vector2fEEvRT_PKc17TransferMetaFlagsb
hUi:_Transform_set_parent_m786917804
Hsi:__ZN15dense_hashtableINSt3__24pairIK10KeyWrapperIPK19Il2CppGenericMethodEP10MethodInfoEES6_N6il2cpp8metadata23Il2CppGenericMethodHashEN14dense_hash_mapIS6_S9_SD_NS6_14EqualsComparerINSC_26Il2CppGenericMethodCompareEEENS0_9allocatorISA_EEE9SelectKeyESH_SJ_E13set_empty_keyERKSA_
mue:_Slider_get_value_m739683640
Hkb:__Z19scripting_array_new17ScriptingClassPtrjj
gN:__ZN11SoundHandle13CreateChannelEb
wYf:_WaitCallback_BeginInvoke_m3012509827
A4a:__ZN14SafeBinaryRead21TransferSTLStyleArrayI13dynamic_arrayI12LightmapDataLj4EEEEvRT_17TransferMetaFlags
Kja:__ZNSt3__26vectorIN9ShaderLab20SerializedSubProgram16TextureParameterENS_9allocatorIS3_EEE6assignIPS3_EENS_9enable_ifIXaasr21__is_forward_iteratorIT_EE5valuesr16is_constructibleIS3_NS_15iterator_traitsISA_E9referenceEEE5valueEvE4typeESA_SA_
fYh:__ZN13Il2CppHashMapIN6il2cpp5utils13dynamic_arrayIPK10Il2CppTypeLj4EEEPFvvENS0_8metadata19Il2CppSignatureHashENS9_22Il2CppSignatureCompareENSt3__29allocatorINSC_4pairIK10KeyWrapperIS6_ES8_EEEEEC2EjRKSA_RKSB_
Vng:__Z122RuntimeInvoker_Void_t1185182177_RuntimeObject_RuntimeObject_ContractionU5BU5DU26_t2277527001_Level2MapU5BU5DU26_t359320357PFvvEPK10MethodInfoPvPS4_
q9h:__ZN15dense_hashtableINSt3__24pairIK10KeyWrapperIPK22Il2CppGenericParameterEPK24MonoGenericParameterInfoEES6_N6il2cpp5utils11PointerHashIS4_EEN14dense_hash_mapIS6_SA_SF_NS6_14EqualsComparerINS0_8equal_toIS5_EEEENS0_9allocatorISB_EEE9SelectKeyESK_SM_E15set_deleted_keyERKSB_
igd:_SByte_TryParse_m2431806379
Pcj:__ZL64ObjectDisposedException_t21392786_CustomAttributesCacheGeneratorP21CustomAttributesCache
O1b:__ZN6prcoreL11inner_clearILj2EEEvPhjjj
Jhj:__ZL92Debug_t3317548046_CustomAttributesCacheGenerator_Debug_LogWarningFormat_m1153215311____args2P21CustomAttributesCache
Mhd:_DSACryptoServiceProvider_get_KeySize_m786836990
zWh:__ZNSt3__218uninitialized_fillIPNS_4pairIK10KeyWrapperIPKcEP11Il2CppClassEES9_EEvT_SB_RKT0_
Ig:_emscripten_exit_fullscreen
o4b:__ZZL31RegisterRectTransformPropertiesR22GenericPropertyBindingEN39Wrapper_RectTransformAnchoredPositiony113GetFloatValueEPv
ITd:_Object_MemberwiseClone_m1474068832
Gpi:__ZN6il2cpp6icalls8mscorlib6System6String19InternalAllocateStrEi
Wwc:__Z29Transfer_Blittable_ArrayFieldI8JSONRead11QuaternionfEvRT_R9ArrayInfoRK23StaticTransferFieldInfo
_lb:__ZN20LocalFileSystemPosix8SetFlagsER13FileEntryDatajj
rgc:__Z45Register_UnityEngine_Camera_get_targetDisplayv
Z6b:__ZNK24RendererAnimationBinding15GenerateBindingERKN4core12basic_stringIcNS0_20StringStorageDefaultIcEEEEbRN11UnityEngine9Animation14GenericBindingE
G1e:_IPv6Address__ctor_m3704187391
uNb:__Z15GetFlareManagerv
o2b:__ZN15ApplicationInfo24GetApplicationIdentifierEv
_Ja:__ZN9Behaviour8TransferI18StreamedBinaryReadILb0EEEEvRT_
Hz:__ZN8Animator13GetAvatarRootEv
hQf:_Array_InternalArray__ICollection_Add_TisResourceCacheItem_t51292791_m3851804827_gshared
WCj:___toread
VFb:__ZNSt3__26vectorI10vector_mapIiiNS_4lessIiEE13stl_allocatorINS_4pairIiiEEL18MemLabelIdentifier38ELi16EEES4_IS9_LS7_38ELi16EEE26__swap_out_circular_bufferERNS_14__split_bufferIS9_RSA_EE
w9e:_BigInteger_get_Rng_m3283260184
gHj:___cxa_is_pointer_type
TE:__ZN8Animator22ScriptingStringToCRC32ERK11ICallString
ydj:__ZL55EventHandler_t1348719766_CustomAttributesCacheGeneratorP21CustomAttributesCache
sC:__ZN7mecanim9animation16EvaluateAvatarDXEPKNS0_14AvatarConstantEPKNS0_11AvatarInputEPNS0_12AvatarMemoryEPNS0_15AvatarWorkspaceEPNS0_12AvatarOutputE
m3c:_RaycastResult_ToString_m2678663776_AdjustorThunk
Uph:_Array_InternalArray__get_Item_TisKeyValuePair_2_t2530217319_m2886833132_gshared
Hse:_ScrollRect_OnEndDrag_m3202230060
Xkc:__Z34Transform_CUSTOM_SetAsFirstSiblingP12Il2CppObject
e4h:__ZNK15dense_hashtableINSt3__24pairIK10KeyWrapperINS1_IPK14Il2CppAssemblyP11Il2CppClassEEEjEES9_17ReflectionMapHashIS8_EN14dense_hash_mapIS9_jSD_NS9_14EqualsComparerINS0_8equal_toIS8_EEEENS0_9allocatorISB_EEE9SelectKeyESI_SK_E10test_emptyEj
Ong:__Z63RuntimeInvoker_Void_t1185182177_RuntimeObject_SByte_t1669577662PFvvEPK10MethodInfoPvPS4_
Ylj:__ZL57SetupCoroutine_t2062820429_CustomAttributesCacheGeneratorP21CustomAttributesCache
Dke:_InputField_Delete_m3471899192
Qbj:__ZL79Convert_t2465617642_CustomAttributesCacheGenerator_Convert_ToUInt64_m1627266664P21CustomAttributesCache
x4i:__ZL91UrlAttribute_t221584584_CustomAttributesCacheGenerator_UrlAttribute_IsContextOK_m1228378186P21CustomAttributesCache
S8d:_RemotingConfiguration_get_ProcessId_m2180277012
m3:__ZN17PersistentManager40GlobalToLocalSerializedFileIndexInternalERK26SerializedObjectIdentifier
mS:__ZN11UnityEngine15CloudWebService17SessionEventQueue14ParseEventDataERKN4core12basic_stringIcNS2_20StringStorageDefaultIcEEEE
Pua:__ZN13TranslateGLES4InitERK12GraphicsCaps16GfxDeviceLevelGL
OCb:__Z29Transfer_Blittable_ArrayFieldI18StreamedBinaryReadILb0EE10ColorRGBAfEvRT_R9ArrayInfoRK23StaticTransferFieldInfo
v$h:_NativeTypeAttribute_set_CodegenOptions_m3839252515
T9f:_EqualityComparer_1_get_Default_m180770000_gshared
dId:_Int64_System_IConvertible_ToUInt16_m848637338_AdjustorThunk
Wwj:__ZL74GraphicRaycaster_t2999697109_CustomAttributesCacheGenerator_m_BlockingMaskP21CustomAttributesCache
zOf:_Array_InternalArray__IndexOf_TisLink_t544317964_m455584088_gshared
vWg:_Enumerator_get_Current_m2282646120_AdjustorThunk
M7g:_ReadOnlyCollection_1_IndexOf_m2539022912_gshared
CCe:_KeyGeneratedEventHandler__ctor_m1990062371
Ryj:__ZL66Selectable_t3250028441_CustomAttributesCacheGenerator_m_TransitionP21CustomAttributesCache
ABi:__ZN6il2cpp2os6Memory12AlignedAllocEjj
sve:_Text_set_alignByGeometry_m3828822280
lvi:__ZN6il2cpp8metadataL7CompareEPK10Il2CppTypeS3_
Jsb:__Z18Transfer_BlittableI17RemapPPtrTransferLb0E11ColorRGBA32EvRK29SerializationCommandArgumentsR31RuntimeSerializationCommandInfo
N_e:_HybridDictionary__ctor_m1681134385
Z1:__ZN21ScalableBufferManager11GetInstanceEv
eBb:__Z18Transfer_BlittableI18StreamedBinaryReadILb0EELb1E10ColorRGBAfEvRK29SerializationCommandArgumentsR31RuntimeSerializationCommandInfo
Q1a:__ZN12CubemapArray23VirtualRedirectTransferER17RemapPPtrTransfer
l_f:_TimeSpan_op_LessThan_m1594498345
eec:__ZL27GetComponentsImplementationILb0ELi0EEbR10GameObjectbRK17CompareParametersRK39GetComponentsImplementation_ReturnValue
DEb:__ZN9Scripting36IsSystemCollectionsGenericDictionaryE17ScriptingClassPtr
Cih:_UnityEvent_1_FindMethod_Impl_m322741469_gshared
$4i:__ZL92ConstructionCallDictionary_t686578562_CustomAttributesCacheGenerator_U3CU3Ef__switchU24map24P21CustomAttributesCache
lzj:__ZL64Slider_t3903728902_CustomAttributesCacheGenerator_m_WholeNumbersP21CustomAttributesCache
xUi:_Enumerator_get_Current_m2591725252
S0:__ZL16ReadTypeTreeImplILb0EEbR8TypeTreeRK16TypeTreeIteratorRPKhS6_i
Y8e:_Interval_Contains_m110351300_AdjustorThunk
BCd:_Convert_ToInt32_m3048308591
RAj:__ZL77LayoutUtility_t2745813735_CustomAttributesCacheGenerator_U3CU3Ef__amU24cache6P21CustomAttributesCache
Hpe:_RectMask2D_OnCanvasHierarchyChanged_m3195492255
hof:_DateTimeOffset_Equals_m3030958070
qYa:__ZNK22BuiltinResourceManager21GetResourceInstanceIDEPKN5Unity4TypeERKN4core12basic_stringIcNS4_20StringStorageDefaultIcEEEE
Sra:__ZN9GfxDevice15BeginFrameStatsEv
Whc:__Z42Register_UnityEngine_RectOffset_set_bottomv
gpc:__Z28GUIStyleState_CUSTOM_CleanupP12Il2CppObject
Tlf:_DateTimeFormatInfo_GetMonthName_m2034512315
ePb:__ZN28LightProbeProxyVolumeContext8CopyFromERKS_
Szb:__ZN18StreamedBinaryReadILb1EE8TransferI13dynamic_arrayI8BitFieldLj4EEEEvRT_PKc17TransferMetaFlags
u8g:_ReadOnlyCollection_1_System_Collections_Generic_IListU3CTU3E_Insert_m2489506856_gshared
D6:__ZN23TransformChangeDispatch32QueueTransformChangeIfHasChangedER18TransformHierarchy
Twe:_SimpleCollator_ToDashTypeValue_m6184468
HDa:__ZN7ApiGLES18DeleteRenderbufferERj
jCa:__ZL23ProgramUniformMatrix4fvPK7ApiGLESjiihPKv
QDa:__ZN7ApiGLES13CreateTextureEjj14GraphicsFormatiiiii
xpd:_Array_new_gap_m262136975
oja:__ZN9ShaderLab20SerializedSubProgram15MatrixParameter8TransferI14SafeBinaryReadEEvRT_
gec:__ZL27GetComponentsImplementationILb0ELi1EEbR10GameObjectbRK17CompareParametersRK39GetComponentsImplementation_ReturnValue
$4e:_X509Store__ctor_m275383717
yxe:_SimpleCollator_LastIndexOfOrdinalIgnoreCase_m2984667899
WGc:_Round_Down_To_Grid
CEa:__ZN13RenderTexture7ReleaseEv
tuc:__Z18Transfer_BlittableI8JSONReadLb1EN4math12int3_storageEEvRK29SerializationCommandArgumentsR31RuntimeSerializationCommandInfo
wbb:__ZN10MeshFilter23VirtualRedirectTransferER14SafeBinaryRead
qAj:__ZL64LayoutGroup_t2436138090_CustomAttributesCacheGenerator_m_PaddingP21CustomAttributesCache
wld:_X509CertificateEnumerator_MoveNext_m2269241175
Gbb:__ZN12MeshRenderer17MainThreadCleanupEv
cUh:__ZN6il2cpp2vmL10InitLockedEP11Il2CppClassRKNS_2os12FastAutoLockE
wHa:__ZN22CreateGpuProgramOutput12CreateParamsEv
rJ:__ZN10ObjectPoolIN4FMOD7ChannelENS0_8ChannelIEE7GetFreeEi
qLg:__Z96RuntimeInvoker_RuntimeObject_CustomAttributeNamedArgument_t287865710_RuntimeObject_RuntimeObjectPFvvEPK10MethodInfoPvPS4_
Y9c:_FontData_get_font_m2720086288
cJe:_InternalEnumerator_1_System_Collections_IEnumerator_get_Current_m548105685_gshared
Fua:__ZNK14GfxContextGLES13GetDefaultFBOEv
oIg:__Z99RuntimeInvoker_Void_t1185182177_UILineInfoU5BU5DU26_t2468919161_Int32_t2950945753_Int32_t2950945753PFvvEPK10MethodInfoPvPS4_
Xrd:_Byte_System_IConvertible_ToType_m2251112646
l1g:_Collection_1_Contains_m692247505_gshared
pCg:__Z81RuntimeInvoker_Char_t3634460470_RuntimeObject_Int32_t2950945753_Int16_t2552820387PFvvEPK10MethodInfoPvPS4_
qmf:_DateTime_get_Hour_m4153505178_AdjustorThunk
FOh:_AudioExtensionManager_WriteExtensionProperties_m3028464154
BDf:_Evidence_Equals_m1478353107
uxh:_CostDelegate__ctor_m4027655829
Yac:__Z13GetImagePixelI10ColorRGBAfET_PKhii13TextureFormat15TextureWrapModeS5_ii
OPg:_List_1_System_Collections_IList_set_Item_m1842844683_gshared
Fkh:_ObjectPool_1__ctor_m2535233435_gshared
ijh:_EventFunction_1__ctor_m4292798223_gshared
$fi:__ZN6il2cpp2vm6Thread49CheckCurrentThreadForInterruptAndThrowIfNecessaryEv
Cwf:_CultureInfo_construct_datetime_format_m1928121315
i5:__ZNSt3__23mapIN9ShaderLab16FastPropertyNameEN18UnityPropertySheet11UnityTexEnvENS_4lessIS2_EENS_9allocatorINS_4pairIKS2_S4_EEEEEixERS9_
KCa:__ZNK13TranslateGLES25GetTextureTargetDimensionEj
nUd:_RankException__ctor_m3453633632
_bh:_Comparison_1__ctor_m533218197_gshared
uIg:__Z96RuntimeInvoker_Void_t1185182177_Vector3U5BU5DU26_t3038522815_Int32_t2950945753_Int32_t2950945753PFvvEPK10MethodInfoPvPS4_
T5g:_ReadOnlyCollection_1_System_Collections_IList_Remove_m1842121503_gshared
TKd:_File_OpenRead_m2936789020
mkc:__Z47Texture2D_CUSTOM_INTERNAL_CALL_GetPixelBilinearP12Il2CppObjectffR10ColorRGBAf
oAd:_Enumerator_get_Entry_m3561948123
$zg:__Z94RuntimeInvoker_Void_t1185182177_RuntimeObject_PlayableGraph_t3515989261_RuntimeObject_IntPtr_tPFvvEPK10MethodInfoPvPS4_
Ji:_emscripten_glVertexAttrib4f
hPe:_InternalEnumerator_1_System_Collections_IEnumerator_Reset_m4072625129_AdjustorThunk
lna:__ZNSt3__26vectorIN20GpuProgramParameters14ConstantBufferENS_9allocatorIS2_EEE8__appendEj
J5e:_X509CertificateCollection_AddRange_m3683116910
dMe:_InternalEnumerator_1_Dispose_m1837758743_AdjustorThunk
$8d:_SinkProviderData__ctor_m1624738837
qQb:__ZN11HaloManager21ReleaseGeometryJobMemEP25DynamicVBOGeometryJobData
HKd:_DirectoryNotFoundException__ctor_m1689636868
LBg:__Z88RuntimeInvoker_RuntimeObject_RuntimeObject_SByte_t1669577662_RuntimeObject_RuntimeObjectPFvvEPK10MethodInfoPvPS4_
l6g:_ReadOnlyCollection_1_System_Collections_Generic_IListU3CTU3E_get_Item_m978644313_gshared
g2g:_Collection_1_get_Item_m2253972692_gshared
c0d:_RefEmitPermissionSet_t484390987_marshal_pinvoke_cleanup
cWd:_CustomAttributeTypedArgument_Equals_m2261980307
Gx:__ZN7mecanim12statemachine24CreateStateMachineMemoryEPKNS0_20StateMachineConstantERNS_6memory9AllocatorE
Xra:__ZN9GfxDevice18SetGlobalDepthBiasEff
L0h:__ZN6il2cpp6icalls8mscorlib6System8MonoType12get_AssemblyEP20Il2CppReflectionType
FMd:_IsolatedStorageException__ctor_m3386787868
w0d:_TypeBuilder_MakeGenericType_m2799607032
so:FUNCTION_TABLE_vi
cbh:_ReadOnlyCollection_1_IndexOf_m3669095250_gshared
Xi:_emscripten_glGetPointerv
Noh:_Dictionary_2_Do_CopyTo_TisKeyValuePair_2_t3842366416_TisRuntimeObject_m1564656153_gshared
fC:__ZN8Animator22ApplyBuiltinRootMotionEv
qmi:__ZN15dense_hashtableI10KeyWrapperIP18Il2CppGenericClassES3_N6il2cpp8metadata22Il2CppGenericClassHashEN14dense_hash_setIS3_S6_NS3_14EqualsComparerINS5_25Il2CppGenericClassCompareEEENSt3__29allocatorIS3_EEE8IdentityESA_SD_E5clearEv
pHb:__Z26ApplyMaterialPassWithCacheRK18SharedMaterialDataR17ShaderPassContextP6ShaderPN9ShaderLab4PassEibPKNS6_10GrabPassesEPNS6_11SubProgramsEPK22DeviceRenderStateBlock
bug:__Z55RuntimeInvoker_DateTime_t3738529785_TimeSpan_t881159249PFvvEPK10MethodInfoPvPS4_
GSd:_MulticastDelegate_KPM_m22863605
KMe:_InternalEnumerator_1_get_Current_m1897120917_AdjustorThunk
eSd:_MonoType_ReorderParamArrayArguments_m2458683451
Ige:_FormatterConverter_ToInt16_m4282804414
Lrg:__Z81RuntimeInvoker_Void_t1185182177_Int64_t3736567304_RuntimeObject_Int64_t3736567304PFvvEPK10MethodInfoPvPS4_
S3c:_StandaloneInputModule_ProcessTouchPress_m4019232747
OKd:_FileStream__ctor_m3151488352
wpd:_Array_swap_m547389985
z3:__ZN8Renderer23VirtualRedirectTransferER14SafeBinaryRead
L1f:_UInt32_ToString_m2420423038
MMg:_List_1_System_Collections_IList_Add_m634558835_gshared
Xah:_ReadOnlyCollection_1_System_Collections_IList_get_IsFixedSize_m1923250479_gshared
Ssj:__ZL105CanvasRenderer_t2598313366_CustomAttributesCacheGenerator_CanvasRenderer_set_popMaterialCount_m1224846275P21CustomAttributesCache
qLd:_FileStream_get_Length_m426703983
$Xe:_Enumerator__ctor_m1558933899_AdjustorThunk
Kdj:__ZL88BigInteger_t2902905090_CustomAttributesCacheGenerator_BigInteger_op_Implicit_m3414367033P21CustomAttributesCache
mUh:__ZN6il2cpp2vmL15GetBitmapNoInitEP11Il2CppClassPjRjj
XTg:_List_1_Remove_m2092085040_gshared
y0b:__ZL13MotionHandleriPK27EmscriptenDeviceMotionEventPv
OH:__ZN12AudioManager5ResetEv
Ukg:__Z67RuntimeInvoker_Boolean_t97287965_RuntimeObject_SByteU26_t3619038962PFvvEPK10MethodInfoPvPS4_
Zlg:__Z143RuntimeInvoker_Boolean_t97287965_RuntimeObject_Int32_t2950945753_RuntimeObject_SByte_t1669577662_DoubleU26_t1739162597_ExceptionU26_t3600731591PFvvEPK10MethodInfoPvPS4_
j9b:__ZN15DirectorManager18ScheduleGraphStartERK14HPlayableGraph
d6g:_ReadOnlyCollection_1_get_Count_m1336304542_gshared
ZAj:__ZL111LayoutUtility_t2745813735_CustomAttributesCacheGenerator_LayoutUtility_U3CGetPreferredHeightU3Em__6_m3049688934P21CustomAttributesCache
NB:__ZN7mecanim5human14RetargetToTDoFEPKNS0_5HumanEPNS0_9HumanPoseEPNS_8skeleton13SkeletonPoseTIN4math4trsXEEESB_
d9h:__ZNK15dense_hashtableINSt3__24pairIK10KeyWrapperIPK14Il2CppAssemblyEPK22Il2CppMonoAssemblyNameEES6_N6il2cpp5utils11PointerHashIS4_EEN14dense_hash_mapIS6_SA_SF_NS6_14EqualsComparerINS0_8equal_toIS5_EEEENS0_9allocatorISB_EEE9SelectKeyESK_SM_E10test_emptyEj
Qri:__ZN6il2cpp6icalls8mscorlib6System11Environment20GetWindowsFolderPathEi
eBd:_Convert_ToBoolean_m2833752130
uw:__ZN7mecanim5human18HumanPoseBlendNodeERNS0_9HumanPoseEPS1_f
dBc:_UNITY_FT_RoundFix
yR:__ZN23CloudWebServicesManager23VirtualRedirectTransferER17RemapPPtrTransfer
zyi:_GC_is_heap_ptr
Qze:_ASN1_DecodeTLV_m1200977460
$Ii:_UnityEventBase_PrepareInvoke_m1785382128
y8g:_ReadOnlyCollection_1_System_Collections_Generic_IListU3CTU3E_set_Item_m1584697503_gshared
Q0d:__ZN23InterfaceActionInvoker2IP12Il2CppObjectP20Delegate_t1188392813E6InvokeEjP11Il2CppClassS1_S1_S3_
Ibb:__ZNK12MeshRenderer22GetTypeVirtualInternalEv
Htd:_Char_System_IConvertible_ToUInt32_m3901815580
Mqe:_Scrollbar_set_onValueChanged_m346467699
jug:__Z157RuntimeInvoker_Int32_t2950945753_RuntimeObject_Int32_t2950945753_Int32_t2950945753_Int32_t2950945753_SByte_t1669577662_SByte_t1669577662_Int32U26_t1369213839PFvvEPK10MethodInfoPvPS4_
jkh:_ListPool_1_Release_m957266927_gshared
N5i:__ZL105ConfigHandler_t4192437216_CustomAttributesCacheGenerator_ConfigHandler_ValidatePath_m3895556516____paths1P21CustomAttributesCache
uK:__ZN4FMOD6System17setSoftwareFormatEi17FMOD_SOUND_FORMATii18FMOD_DSP_RESAMPLER
Rha:__ZN14SafeBinaryRead19TransferSTLStyleMapINSt3__23mapIN4core12basic_stringIcNS3_20StringStorageDefaultIcEEEES7_NS1_4lessIS7_EE13stl_allocatorINS1_4pairIKS7_S7_EEL18MemLabelIdentifier1ELi16EEEEEEvRT_17TransferMetaFlags
bQc:__ZN2UI6Canvas27UpdateEventIndexesRecursiveERi
sS:__ZN11UnityEngine15CloudWebService16SessionContainer21PrepareDataErrorEventERN4core12basic_stringIcNS2_20StringStorageDefaultIcEEEE
e1c:_ExecuteEvents_get_pointerUpHandler_m3515704212
Cud:_ArrayList_set_Item_m2003485935
Fsi:__ZNSt3__218uninitialized_copyIPNS_4pairIK10KeyWrapperIPK19Il2CppGenericMethodEP10MethodInfoEESB_EET0_T_SD_SC_
l6d:_SatelliteContractVersionAttribute__ctor_m3630863995
Nbj:__ZL79Convert_t2465617642_CustomAttributesCacheGenerator_Convert_ToUInt64_m3102114524P21CustomAttributesCache
Z2c:_MouseButtonEventData_PressedThisFrame_m1060658845
F_c:_AxisEventData_get_moveVector_m270528189
mxb:__Z19TransferField_ArrayI19StreamedBinaryWriteILb0EE27Converter_SimpleNativeClassI8GUIStyleEEvRK23StaticTransferFieldInfoR31RuntimeSerializationCommandInfoRT0_
RMb:__Z27SetClippingPlaneShaderPropsR9GfxDevice
k6g:_ReadOnlyCollection_1_System_Collections_Generic_IListU3CTU3E_RemoveAt_m3969985996_gshared
WGh:_SymmetricTransform_CFB_m1755507252
FOj:_emscripten_glCopyTexSubImage2D__wrapper
u6a:__ZNK13ScreenManager12GetIsFocusedEv
Vbd:_GraphicRegistry_GetGraphicsForCanvas_m4219276355
Wkj:__ZL106Transform_t3600365921_CustomAttributesCacheGenerator_Transform_INTERNAL_get_localToWorldMatrix_m1917635696P21CustomAttributesCache
uMd:__ZN23InterfaceActionInvoker3IP22ByteU5BU5D_t4116647657iiE6InvokeEjP11Il2CppClassP12Il2CppObjectS1_ii
sGd:_NumberFormatter_FastToDecHex_m699829267
huc:__Z35Transfer_Blittable_FixedBufferFieldI8JSONReadiEvRK29SerializationCommandArgumentsR31RuntimeSerializationCommandInfo
Xla:__ZN15SerializeTraitsIN9ShaderLab16FastPropertyNameEE8TransferI19StreamedBinaryWriteILb0EEEEvRS1_RT_
u6i:__ZL59StreamingContext_t3711869237_CustomAttributesCacheGeneratorP21CustomAttributesCache
O$h:__ZNSt3__213__vector_baseIN6il2cpp2os19SocketHandleWrapperENS_9allocatorIS3_EEED2Ev
d_i:__ZL48_Type_t3588564251_CustomAttributesCacheGeneratorP21CustomAttributesCache
Iwj:__ZL81FontUpdateTracker_t1839077620_CustomAttributesCacheGenerator_U3CU3Ef__mgU24cache0P21CustomAttributesCache
dc:invoke_viiffi
t0i:__ZL103RegionInfo_t1090270226_CustomAttributesCacheGenerator_RegionInfo_t1090270226____NativeName_PropertyInfoP21CustomAttributesCache
eId:_Int64_System_IConvertible_ToUInt32_m109903525
eC:__ZNSt3__227__insertion_sort_incompleteIRPFbPKN8Animator11AnimatorJobES4_EPS4_EEbT0_S9_T_
dS:__ZNSt3__26__treeINS_12__value_typeIN4core12basic_stringIcNS2_20StringStorageDefaultIcEEEEjEENS_19__map_value_compareIS6_S7_NS_4lessIS6_EELb1EEE13stl_allocatorIS7_L18MemLabelIdentifier88ELi16EEE4findIS6_EENS_15__tree_iteratorIS7_PNS_11__tree_nodeIS7_PvEEiEERKT_
Zpc:__ZN5Unity9rapidjson13GenericReaderINS0_4UTF8IcEES3_13JSONAllocatorE10ParseFalseILj0ENS0_19GenericStringStreamIS3_EENS0_15GenericDocumentIS3_S4_S4_EEEEvRT0_RT1_
pLi:_Mathf_CeilToInt_m432108984
N1a:__ZNK12CubemapArray20GetRuntimeMemorySizeEv
WZf:_TimeSpan_FromHours_m1109641064
mka:__Z14resize_trimmedINSt3__26vectorIN9ShaderLab18SerializedPropertyENS0_9allocatorIS3_EEEEEvRT_j
esb:__Z18Transfer_BlittableI17RemapPPtrTransferLb0EN4math12int3_storageEEvRK29SerializationCommandArgumentsR31RuntimeSerializationCommandInfo
mgj:__ZL92StaticAccessorAttribute_t2432663902_CustomAttributesCacheGenerator_U3CNameU3Ek__BackingFieldP21CustomAttributesCache
RNe:_InternalEnumerator_1__ctor_m4124630986_gshared
lZh:__ZN6il2cpp2vm13MetadataCache38GetMethodInfoFromMethodDefinitionIndexEi
R$c:_EventSystem_set_current_m38955169
Lhe:_TypeMetadata__ctor_m646635308
Axh:_CostDelegate_EndInvoke_m2797921932
s7a:__ZN10VertexData8TransferI24GenerateTypeTreeTransferEEvRT_
Usf:_Double_IsInfinity_m820013146
Tqd:__ZN21InterfaceFuncInvoker1I19Decimal_t2948259380P12Il2CppObjectE6InvokeEjP11Il2CppClassS2_S2_
ksi:__ZN13Il2CppHashMapIPK19Il2CppGenericMethodP10MethodInfoN6il2cpp8metadata23Il2CppGenericMethodHashENS6_26Il2CppGenericMethodCompareENSt3__29allocatorINS9_4pairIK10KeyWrapperIS2_ES4_EEEEEC2EjRKS7_RKS8_
AMg:_List_1_TrimExcess_m440552561_gshared
$Ri:_Screen_get_dpi_m495672463
xWf:_UTF8Encoding_InternalGetByteCount_m2120178851
bVb:__ZL10CullLightsRK22SceneCullingParametersR11CullResults
dEd:_Convert_ToUInt64_m3170916409
Bx:__ZN7mecanim12statemachine20GetBlendTreeConstantERKNS0_13StateConstantEi
THd:_Int64_System_IConvertible_ToInt16_m4062196970_AdjustorThunk
ASd:_MonoType_GetGenericTypeDefinition_m3201894896
J1b:__Z40GetTemporaryCachePathApplicationSpecificv
bqa:__ZN9GfxDevice16EndAsyncJobFrameEv
tDg:__Z99RuntimeInvoker_Int32_t2950945753_Ray_t3785851493_RuntimeObject_Single_t1397266774_Int32_t2950945753PFvvEPK10MethodInfoPvPS4_
A7h:__ZNK15dense_hashtableINSt3__24pairIK10KeyWrapperINS1_IPK12PropertyInfoP11Il2CppClassEEEjEES9_17ReflectionMapHashIS8_EN14dense_hash_mapIS9_jSD_NS9_14EqualsComparerINS0_8equal_toIS8_EEEENS0_9allocatorISB_EEE9SelectKeyESI_SK_E10test_emptyERK30dense_hashtable_const_iteratorISB_S9_SD_SM_SI_SK_E
VDc:_UNITY_tt_face_load_hhea
QXd:_DerivedType_get_Assembly_m2979298667
Tk:___syscall3
Wk:___syscall6
yra:__ZN9GfxDevice15GetNextCPUFenceEv
Yk:___syscall4
rT:__ZN11UnityEngine15CloudWebService20WebRequestRestClient17GetResponseStatusEv
wee:_ReturnMessage__ctor_m2352989078
mpg:__Z99RuntimeInvoker_Void_t1185182177_RuntimeObject_Int32_t2950945753_SByte_t1669577662_SByte_t1669577662PFvvEPK10MethodInfoPvPS4_
mnb:__ZNSt3__26__treeINS_12__value_typeIN4core12basic_stringIcNS2_20StringStorageDefaultIcEEEEPN16MemoryFileSystem4NodeEEENS_19__map_value_compareIS6_SA_NS_4lessIS6_EELb1EEE13stl_allocatorISA_L18MemLabelIdentifier55ELi16EEE7destroyEPNS_11__tree_nodeISA_PvEE
CYi:__ZL70RuntimeArray_CustomAttributesCacheGenerator_Array_get_Length_m21610649P21CustomAttributesCache
_ni:__ZN6il2cpp2vm3RCW14QueryInterfaceILb1EEEP14Il2CppIUnknownP15Il2CppComObjectRK10Il2CppGuid
qgf:_TlsServerCertificateRequest__ctor_m1334974076
DCd:_Convert_ToInt32_m1613163543
WIg:__Z52RuntimeInvoker_TimeSpan_t881159249_Int32_t2950945753PFvvEPK10MethodInfoPvPS4_
goe:_MatEntry__ctor_m1949610076
M5g:_ReadOnlyCollection_1_System_Collections_ICollection_CopyTo_m3127175806_gshared
ml:_emscripten_glShaderBinary
Znj:__ZL80Logger_t274032455_CustomAttributesCacheGenerator_U3ClogEnabledU3Ek__BackingFieldP21CustomAttributesCache
FT:__ZN15DownloadHandler19OnFinishReceiveDataEv
S0f:_UInt16_ToString_m760649087
jmb:__ZNK20LocalFileSystemPosix6ExistsERK13FileEntryData
Mug:__Z21RuntimeInvoker_Guid_tPFvvEPK10MethodInfoPvPS4_
Kvg:__Z46RuntimeInvoker_CipherAlgorithmType_t1174400495PFvvEPK10MethodInfoPvPS4_
xFi:_Camera_GetAllCameras_m668492922
BTc:__Z58Register_UnityEngine_Canvas_GetETC1SupportedCanvasMaterialv
k_f:_TimeSpan_op_Inequality_m2467851530
Lzb:__ZN17AnimationCurveTplIfE8TransferI18StreamedBinaryReadILb1EEEEvRT_
Zce:__ZN28GenericInterfaceFuncInvoker1IP12Il2CppObjectP23HeaderU5BU5D_t204812840E6InvokeEPK10MethodInfoS1_S3_
Nnh:_Array_Sort_TisUIVertex_t4057497605_m3996333845_gshared
PBf:_ToBase64Transform_get_CanReuseTransform_m702204640
YVc:__ZN18UnityConnectClientD2Ev
vzg:__Z53RuntimeInvoker_PropertyName_t3749835189_RuntimeObjectPFvvEPK10MethodInfoPvPS4_
Qpd:_Swapper_BeginInvoke_m1688449973
nci:_il2cpp_set_data_dir
jQa:__ZN16LevelGameManager23VirtualRedirectTransferER19StreamedBinaryWriteILb0EE
Ovg:__Z81RuntimeInvoker_Void_t1185182177_RuntimeObject_Int32_t2950945753_Int64_t3736567304PFvvEPK10MethodInfoPvPS4_
n7a:__Z32TransferEnumWithNameForceIntSizeI14SafeBinaryRead16GfxPrimitiveTypeEvRT_RT0_PKc17TransferMetaFlags
Q0:__ZN13dynamic_arrayIcLj1EE6insertEPcPKcS3_
smj:__ZL92Mesh_t3648964284_CustomAttributesCacheGenerator_Mesh_SetTriangles_m2205169959____baseVertex3P21CustomAttributesCache
CGg:__Z52RuntimeInvoker_Int32_t2950945753_HitInfo_t3229609740PFvvEPK10MethodInfoPvPS4_
nsg:__Z86RuntimeInvoker_Boolean_t97287965_Int16_t2552820387_Int16_t2552820387_Int32_t2950945753PFvvEPK10MethodInfoPvPS4_
kaj:__ZL80Convert_t2465617642_CustomAttributesCacheGenerator_Convert_ToBoolean_m2807110707P21CustomAttributesCache
kYi:__ZL72Enum_t4135868527_CustomAttributesCacheGenerator_Enum_GetName_m2151614395P21CustomAttributesCache
Cjh:_IndexedSet_1_IndexOf_m241693686_gshared
Q3g:_Collection_1_System_Collections_IList_Add_m1802516464_gshared
aVc:__ZN11UnityEngine15PlatformWrapper30GetGraphicsDriverLibraryStringEv
nfd:_RuntimeMethodHandle_Equals_m3301340296_AdjustorThunk
h2f:_UInt64_System_IConvertible_ToSingle_m925613075_AdjustorThunk
yJh:__ZL24UnresolvedVirtualCall_40P12Il2CppObjectS0_PK10MethodInfo
Ekh:_ListPool_1__cctor_m704263611_gshared
fBb:__Z18Transfer_BlittableI18StreamedBinaryReadILb0EELb0E4AABBEvRK29SerializationCommandArgumentsR31RuntimeSerializationCommandInfo
sfb:__ZN24GenerateTypeTreeTransfer19TransferSTLStyleMapINSt3__28multimapIN4core12basic_stringIcNS3_20StringStorageDefaultIcEEEE4PPtrI6ObjectENS1_4lessIS7_EE13stl_allocatorINS1_4pairIKS7_SA_EEL18MemLabelIdentifier52ELi16EEEEEEvRT_17TransferMetaFlags
QD:__ZN16MecanimAnimation24DeleteAnimatedPropertiesERP26IAnimatedPropertyEvaluator
fRh:_CanvasRenderer_SetMaterial_m824577244
ILb:__Z14DrawGUITextureRK5RectTIfEP7Texture11ColorRGBA32P8Materiali
xij:__ZL84RectOffset_t1369453676_CustomAttributesCacheGenerator_RectOffset_Cleanup_m2552807639P21CustomAttributesCache
g6g:_ReadOnlyCollection_1_System_Collections_Generic_ICollectionU3CTU3E_Add_m2686599243_gshared
SA:__ZN9BlobWrite8TransferI22OffsetPtrArrayTransferIKN4math7_float4EEEEvRT_PKc17TransferMetaFlags
yMb:__ZN22RenderingCommandBuffer20ExecuteCommandBufferER17ShaderPassContextR15RenderNodeQueuejP13dynamic_arrayINSt3__24pairIN9ShaderLab16FastPropertyNameEP13RenderTextureEELj4EE16ComputeQueueTypeSA_
tUi:_Transform_IsChildOf_m224006092
g_a:__ZN15TextureSettings8TransferI24GenerateTypeTreeTransferEEvRT_
Stc:__ZN9JSONWrite8TransferI4AABBEEvRT_PKc17TransferMetaFlags
zOa:__ZN25MultiBlocksMemoryFileData9SetLengthEy
hig:_List_1_Clear_m2154023298_gshared
RJh:__ZL24UnresolvedVirtualCall_59P12Il2CppObjectiPK10MethodInfo
A_c:_AbstractEventData_get_used_m2991176710
EDg:__Z94RuntimeInvoker_Void_t1185182177_ObjectU5BU5DU26_t712384779_Int32_t2950945753_Int32_t2950945753PFvvEPK10MethodInfoPvPS4_
Ioh:_Dictionary_2_Do_ICollectionCopyTo_TisRuntimeObject_m1855083806_gshared
pHh:_Aes__ctor_m178909601
Q2a:__ZNK9Texture2D20GetRuntimeMemorySizeEv
Jlc:__ZN11Marshalling39CreateNullExceptionForUnityEngineObjectE18ScriptingObjectPtr
Ypc:__ZN5Unity9rapidjson13GenericReaderINS0_4UTF8IcEES3_13JSONAllocatorE9ParseTrueILj0ENS0_19GenericStringStreamIS3_EENS0_15GenericDocumentIS3_S4_S4_EEEEvRT0_RT1_
mVi:_Vector2_op_Implicit_m4260192859
um:_emscripten_glUniform2iv
Ddg:_Enumerator_Dispose_m1204547613_AdjustorThunk
Ayc:_UNITY_FT_Outline_Transform
vef:_CipherSuite_get_ExchangeAlgorithmType_m1633709183
dgj:__ZL118NativeMethodAttribute_t4187428193_CustomAttributesCacheGenerator_NativeMethodAttribute_set_HasExplicitThis_m2961870915P21CustomAttributesCache
FUh:__ZN6il2cpp2vm5Class10GetMethodsEP11Il2CppClassPPv
mZc:__ZNK25UnityWebRequestJavaScript17GetUploadProgressEv
$Qb:__Z30AddDefaultStreamsToMeshBuffersR9GfxDeviceR11MeshBuffersRK16DrawBuffersRange17ShaderChannelMaskS6_
hOg:_List_1_GetEnumerator_m1430071802_gshared
VCa:__ZN7ApiGLES17DeleteFramebufferERN2gl6HandleILNS0_10ObjectTypeE9EEES3_
yGa:__ZN15UniformTFMethod13MapBoneBufferEj
YOc:__ZN2UI14CanvasRendererD2Ev
lqh:_Array_InternalArray__get_Item_TisParameterModifier_t1461694466_m29553316_gshared
jId:_Int64_CompareTo_m1928360444_AdjustorThunk
nGb:__Z9SetupArgviPPKc
TCd:_Convert_ToInt64_m2075031821
Zhb:__ZN13dynamic_arrayIP10UnitySceneLj4EE9push_backERKS1_
zKe:_InternalEnumerator_1__ctor_m236665673_gshared
xPj:_glTexParameteri__wrapper
i3:__ZN12ImmediatePtrI10GameObjectE8TransferI19StreamedBinaryWriteILb0EEEEvRT_
R1a:__ZN12CubemapArray23VirtualRedirectTransferER24GenerateTypeTreeTransfer
w1:__ZN12FileAccessor4OpenER15FileSystemEntry14FilePermission16FileAutoBehavior
ZUa:__ZNSt3__26vectorI4PPtrI6ShaderE13stl_allocatorIS3_L18MemLabelIdentifier53ELi16EEE8__appendEj
Yqi:__ZN6il2cpp2os9Directory6CreateERKNSt3__212basic_stringIcNS2_11char_traitsIcEENS2_9allocatorIcEEEEPi
cla:__ZN4PPtrI6ShaderE8TransferI18StreamedBinaryReadILb0EEEEvRT_
C6:__ZN23TransformChangeDispatch32QueueTransformChangeIfHasChangedERK15TransformAccess
Z0a:__ZNSt3__26vectorINS_4pairIN9ShaderLab16FastPropertyNameEN18UnityPropertySheet11UnityTexEnvEEENS_9allocatorIS6_EEE21__push_back_slow_pathIKS6_EEvRT_
iOa:__ZN15ArchiveReadFile5WriteEyPKvPy
xUd:_Assembly_get_FullName_m293988418
B:tempValue
K$b:__Z29StdTemplateConversionFunctionIaiEbPvR14SafeBinaryRead
kCi:__ZN6il2cpp8metadata24Il2CppGenericContextHash4HashEPK20Il2CppGenericContext
SKe:_InternalEnumerator_1_get_Current_m356936020_AdjustorThunk
l2g:_Collection_1_CheckWritable_m1583234367_gshared
yHd:_Int32_ToString_m141394615_AdjustorThunk
Gvd:_ArrayListWrapper_CopyTo_m498486826
lKd:_Directory_GetCurrentDirectory_m219218555
dmd:_SmallXmlParser_UnexpectedEndError_m1914362401
_x:__ZN26AnimatorControllerPlayable18DeallocateBindingsEv
$5i:__ZL61FormatterTypeStyle_t3400733584_CustomAttributesCacheGeneratorP21CustomAttributesCache
Mva:__ZN14DelayedDeletorI15dense_hashtableINSt3__24pairIK9TextureIDiEES3_14GfxGenericHashIS3_EN14GfxDoubleCacheIS3_iS7_NS1_8equal_toIS3_EEN31GfxDoubleCacheConcurrencyPolicy11LocklessGetE42GfxDoubleCacheDefaultEmptyDeletedGeneratorIS3_EE9SelectKeyESA_13stl_allocatorIS5_L18MemLabelIdentifier24ELi16EEEEclEv
xN:__ZN11AudioSource19CreateOpenALRolloffEfff
PDc:_UNITY_FT_Stream_ReadAt
jZf:_TimeSpan__ctor_m1896986612_AdjustorThunk
uYh:__ZN15dense_hashtableINSt3__24pairIK10KeyWrapperIN6il2cpp5utils13dynamic_arrayIPK10Il2CppTypeLj4EEEEPFvvEEESA_NS3_8metadata19Il2CppSignatureHashEN14dense_hash_mapISA_SD_SG_NSA_14EqualsComparerINSF_22Il2CppSignatureCompareEEENS0_9allocatorISE_EEE9SelectKeyESK_SM_E9set_valueEPSE_RKSE_
ykd:_ArgumentException__ctor_m1216717135
jPi:_Ray_ToString_m1732834890_AdjustorThunk
JNh:__ZL25UnresolvedVirtualCall_267P12Il2CppObject17Scene_t2348375561S1_PK10MethodInfo
md:_glReadBuffer
EPg:_List_1_System_Collections_IList_Contains_m3860993176_gshared
lO:__ZN11AudioModule22CreateAudioClipFromWWWEP10IWWWStreamPKcbbi
k6b:__ZN9Texture2DC2E10MemLabelId18ObjectCreationMode
Si:_emscripten_glRotatef
W0f:_UInt32_System_IConvertible_ToBoolean_m1763673183_AdjustorThunk
VIi:_UnityEvent_AddListener_m2276267359
eRc:__Z13RegisterClassIN2UI11CanvasGroupEEvv
ayg:__Z35RuntimeInvoker_RangeInt_t2094684618PFvvEPK10MethodInfoPvPS4_
Q1b:__ZN6prcoreL11inner_clearILj4EEEvPhjjj
of:_emscripten_glClear
xde:_MethodCall_get_Args_m148309537
_de:_DictionaryEnumerator_get_Value_m2166220004
bOh:_PCMReaderCallback_BeginInvoke_m3391809637
wcj:__ZL72LoaderOptimization_t1484956347_CustomAttributesCacheGenerator_DomainMaskP21CustomAttributesCache
Mmg:__Z74RuntimeInvoker_Void_t1185182177_RuntimeObject_StreamingContext_t3711869237PFvvEPK10MethodInfoPvPS4_
Txi:_GC_initialize_offsets
sea:__ZNK8Playable6HandleEv
bje:_SetPropertyUtility_SetColor_m2229203028
dHj:___cxa_guard_abort
BTe:_Enumerator_MoveNext_m481679286_gshared
C$:__ZN14MessageHandler28MessageIDToMessageIdentifierEi
O7a:__ZNK11SpriteAtlas20GetRuntimeRenderDataEPK6Sprite
bKd:_FileSystemInfo__ctor_m3035148496
ZDi:_AssetBundleCreateRequest_t3119663542_marshal_pinvoke_cleanup
QGd:_Int32_System_IConvertible_ToDecimal_m2190376994_AdjustorThunk
heg:_KeyValuePair_2_set_Key_m2121548577_AdjustorThunk
uJg:__Z46RuntimeInvoker_RefEmitPermissionSet_t484390987PFvvEPK10MethodInfoPvPS4_
zzg:__Z57RuntimeInvoker_PropertyName_t3749835189_Int32_t2950945753PFvvEPK10MethodInfoPvPS4_
qLc:__ZN20TextRenderingPrivate15DynamicFontData36GetFaceForCharacterIfAvailableInFontERKNS_7FontRefERK13dynamic_arrayI4PPtrIN13TextRendering4FontEELj4EEj
Yv:__ZN7mecanim14ValueArrayCopyILb0EEEvPKNS_10ValueArrayEPS1_
eF:__Z51Register_UnityEngine_Animator_get_hasBoundPlayablesv
JZg:_Collection_1_CopyTo_m3142835220_gshared
Ed:emscriptenWebGLGetUniform
to:FUNCTION_TABLE_iiiiiiiiiii
CEh:_GUI_CallWindowDelegate_m3309453386
_Ye:_ValueCollection_System_Collections_IEnumerable_GetEnumerator_m2535969909_gshared
gCc:_cff_set_mm_blend
NJb:__ZN19GfxThreadableDevice15OnDeviceCreatedEb
KWb:__ZL10CleanUpJobP20CullingGroupsJobData
_Qb:__Z20IsRunningNativeTestsv
YJd:_DirectoryInfo_get_Exists_m3142069876
Tcb:__ZN11TimeManager23VirtualRedirectTransferER17RemapPPtrTransfer
zLb:__ZN13RenderManager15BatchModeUpdateEv
jeh:_Predicate_1__ctor_m327447107_gshared
Y4e:_X509Chain_get_CertificateAuthorities_m804805415
Y6a:__ZN14SafeBinaryRead21TransferSTLStyleArrayI13dynamic_arrayI8Vector2fLj4EEEEvRT_17TransferMetaFlags
p1i:__ZL123GenericTypeParameterBuilder_t1988827940_CustomAttributesCacheGenerator_GenericTypeParameterBuilder_IsSubclassOf_m2266644074P21CustomAttributesCache
l3:__ZN17PersistentManager51InstanceIDToLocalSerializedObjectIdentifierInternalEiR31LocalSerializedObjectIdentifier
pRi:_Vector2_get_one_m738793577
_ac:__ZNK4Mesh14GetIndexFormatEv
pdg:_GenericEqualityComparer_1__ctor_m4072188982_gshared
PDh:_UriParser_set_DefaultPort_m4007715058
qni:__ZN14dense_hash_mapI10KeyWrapperIP12Il2CppObjectEN6il2cpp2gc9CachedCCWENS4_5utils11PointerHashIS1_EENS3_14EqualsComparerINSt3__28equal_toIS2_EEEENSB_9allocatorINSB_4pairIKS3_S6_EEEEE13set_empty_keyERSH_
hd:_glVertexAttribIPointer
VUf:_StringBuilder_ToString_m3317489284
mCa:__ZN13dynamic_arrayI21ComputeShaderResourceLj4EE9push_backERKS0_
lbc:__ZNK6Sprite10GetPaddingE20SpriteRenderDataMode
iLf:_Array_InternalArray__ICollection_Remove_TisUInt32_t2560061978_m733727733_gshared
Dgd:_CryptographicException__ctor_m503735289
Dce:_ConstructionCall_get_CallSiteActivationAttributes_m3498917408
LLd:_Stream_EndRead_m1896469262
dkg:__Z93RuntimeInvoker_Boolean_t97287965_Int32_t2950945753_SByte_t1669577662_ExceptionU26_t3600731591PFvvEPK10MethodInfoPvPS4_
VOb:__ZN14qsort_internal5QSortIP15RODataDepthPassi17ROSorterDepthPassEEvT_S4_T0_T1_
zEc:_UNITY_ft_glyphslot_alloc_bitmap
Qjf:_RSASslSignatureDeformatter_SetHashAlgorithm_m895570787
Qwh:_X509CrlEntry__ctor_m4013514048
hXh:__ZN15dense_hashtableI10KeyWrapperIPK17Il2CppGenericInstES4_N6il2cpp8metadata21Il2CppGenericInstHashEN14dense_hash_setIS4_S7_NS4_14EqualsComparerINS6_24Il2CppGenericInstCompareEEENSt3__29allocatorIS4_EEE8IdentityESB_SE_E16reset_thresholdsEv
ezg:__Z87RuntimeInvoker_Color_t2555686324_Color_t2555686324_Color_t2555686324_Single_t1397266774PFvvEPK10MethodInfoPvPS4_
sJc:_ft_raster1_render
njc:__Z57Register_UnityEngine_RectTransform_INTERNAL_set_anchorMaxv
oqa:__ZN9GfxDevice27UpdateComputeSkinPoseBufferEP9GfxBufferP12SkinMeshInfo
Pgg:_Enumerator_get_Current_m3382684163_AdjustorThunk
nGe:_InternalEnumerator_1_System_Collections_IEnumerator_Reset_m3677481164_AdjustorThunk
PFj:__ZNKSt3__221__basic_string_commonILb1EE20__throw_length_errorEv
zag:_EqualityComparer_1_System_Collections_IEqualityComparer_Equals_m245992594_gshared
Wtg:__Z52RuntimeInvoker_UInt64_t4134040092_Single_t1397266774PFvvEPK10MethodInfoPvPS4_
ROf:_Array_InternalArray__IndexOf_TisParameterModifier_t1461694466_m1227120810_gshared
WDa:__ZN18GfxFramebufferGLES13ReadbackImageER14ImageReferenceiiiiii
Aqc:__ZN5Unity9rapidjson6WriterI16TempBufferWriterNS0_4UTF8IcEES4_13JSONAllocatorE11WriteStringEPKcj
xed:_SerializationInfo_SetType_m3923964808
zza:__ZN6prcoreL12RemapGenericI17TexFormatARGB888815TexFormatRGB565EEvPKNS_9InnerInfoE
$I:__ZN4FMOD7Channel19setReverbPropertiesEPK29FMOD_REVERB_CHANNELPROPERTIES
$Nd:_StreamReader_Dispose_m156389394
m_:__ZN13MonoBehaviour22GetScriptFullClassNameEv
Edi:_il2cpp_object_get_class
IBf:_SymmetricAlgorithm_get_Padding_m1011382560
D3b:__ZN13ProduceHelperI11MonoManagerLb0EE7ProduceE10MemLabelId18ObjectCreationMode
Wyf:_RIPEMD160Managed_JJ_m112143231
rOb:__ZN13BatchRendererC2ER15RenderLoopStatsRK15RenderNodeQueuebb
HRe:_Comparer_1__ctor_m191896560_gshared
Uxe:_PreviousInfo_t2148130204_marshal_pinvoke_back
dnb:__ZNK16MemoryFileSystem9EnumerateEPKcP19dynamic_block_arrayI13FileEntryInfoLj32EEbPPv19FileEnumerationFlag
lEb:__ZN13MonoBehaviour9CallAwakeEv
KYa:__ZN20SphericalHarmonicsL211AddWeightedERKS_f
fng:__Z82RuntimeInvoker_RuntimeObject_Int64_t3736567304_Int64_t3736567304_Int64_t3736567304PFvvEPK10MethodInfoPvPS4_
rtb:__Z19TransferField_ArrayI17RemapPPtrTransfer27Converter_SimpleNativeClassI8GUIStyleEEvRK23StaticTransferFieldInfoR31RuntimeSerializationCommandInfoRT0_
Vga:__ZL22StaticInitializeShaderPv
krc:__ZN9JSONWrite8TransferI10ColorRGBAfEEvRT_PKc17TransferMetaFlags
uOe:_InternalEnumerator_1__ctor_m3913006324_AdjustorThunk
w$:__Z25scripting_method_get_name18ScriptingMethodPtr
$jf:_SslCipherSuite_ComputeKeys_m661027754
XOe:_InternalEnumerator_1__ctor_m3322594868_gshared
oNi:_Object_set_name_m291480324
iBd:_Convert_ToBoolean_m481380807
uqf:_Decimal_Equals_m2486655999
Vxi:_GC_exit_check
jVd:_AssemblyName_SetPublicKeyToken_m582470133
szg:__Z52RuntimeInvoker_Boolean_t97287965_HitInfo_t3229609740PFvvEPK10MethodInfoPvPS4_
dM:__ZNK4PPtrI9AudioClipEcvPS0_Ev
XY:__Z20UnlockObjectCreationv
och:__ZN16VirtFuncInvoker2Ii19Color32_t2600501292S0_E6InvokeEjP12Il2CppObjectS0_S0_
W2d:_MonoField_ToString_m2518484388
TAe:_DSAManaged_get_Random_m923751780
WVe:_Transform_1_Invoke_m2385719192_gshared
yVi:_Vector3_set_Item_m1772472431_AdjustorThunk
R7e:_Interpreter_PopulateGroup_m4042796257
lqb:__ZN15SerializeTraitsI13dynamic_arrayIyLj8EEE19ResizeSTLStyleArrayERS1_i
A_b:__ZNSt3__26vectorINS_4pairIN4core12basic_stringIcNS2_20StringStorageDefaultIcEEEES6_EE13stl_allocatorIS7_L18MemLabelIdentifier38ELi16EEE6insertENS_11__wrap_iterIPKS7_EERSD_
uJi:_RenderPipelineManager_DoRenderLoop_Internal_m3799666479
Rjj:__ZL78Sprite_t280657092_CustomAttributesCacheGenerator_Sprite_get_packed_m1179604684P21CustomAttributesCache
JA:__ZN9BlobWrite8TransferI22OffsetPtrArrayTransferI9OffsetPtrIN7mecanim12statemachine18StateMachineMemoryEEEEEvRT_PKc17TransferMetaFlags
iZ:__ZN4core8hash_mapIiP6ObjectNS_4hashIiEENSt3__28equal_toIiEEE4growEi
hZ:__ZN4core8hash_mapIiP6ObjectNS_4hashIiEENSt3__28equal_toIiEEE4growEv
E$g:_Collection_1_System_Collections_IList_IndexOf_m3894953546_gshared
avh:_PKCS12_get_Certificates_m26161562
z$e:_NameObjectCollectionBase_Init_m2525481323
Fti:__ZN6il2cpp2vm6String8NewUtf16EPKDsi
zfd:_SByte_System_IConvertible_ToByte_m2268214252_AdjustorThunk
tqi:__ZN6il2cpp2os10ThreadImpl12QueueUserAPCEPFvPvES2_
RF:__Z32TransferEnumWithNameForceIntSizeI14SafeBinaryReadN10SampleClip17CompressionFormatEEvRT_RT0_PKc17TransferMetaFlags
eCh:_RegularExpression__ctor_m119502265
OVc:__ZN22BaseUnityConnectClient10QueueEventERN11UnityEngine15CloudWebService17CloudServiceEventEPKcjb
h6g:_ReadOnlyCollection_1_System_Collections_Generic_ICollectionU3CTU3E_Clear_m522482168_gshared
FXd:_DerivedType_IsByRefImpl_m2585680005
S$a:__ZN13dynamic_arrayI11ShaderTagIDLj4EE9push_backERKS0_
Fce:_ConstructionCall_InitMethodProperty_m2021094586
pHc:_UNITY_FT_Hypot
FGe:_InternalEnumerator_1__ctor_m2636293838_gshared
Xoj:__ZL95TextGenerator_t3211863866_CustomAttributesCacheGenerator_TextGenerator_get_lineCount_m916872812P21CustomAttributesCache
Qzj:__ZL74CanvasScaler_t2767979955_CustomAttributesCacheGenerator_m_DefaultSpriteDPIP21CustomAttributesCache
Rci:_il2cpp_class_is_abstract
yf:_emscripten_glGetError
V8h:__ZN15dense_hashtableINSt3__24pairIK10KeyWrapperIPK14Il2CppAssemblyEPK22Il2CppMonoAssemblyNameEES6_N6il2cpp5utils11PointerHashIS4_EEN14dense_hash_mapIS6_SA_SF_NS6_14EqualsComparerINS0_8equal_toIS5_EEEENS0_9allocatorISB_EEE9SelectKeyESK_SM_E14squash_deletedEv
MJ:__Z14FMOD_FILE_SeekPvjS_
Boe:_MaskableGraphic_OnDisable_m1757789159
uZa:__ZN7TextureC2E10MemLabelId18ObjectCreationMode
qme:_LayoutGroup__ctor_m2162961217
f3f:_ValueType_t3640485471_marshal_pinvoke_cleanup
LXb:__ZNK13RenderTexture32CalculateNeedsInvertedProjectionEv
O0b:__ZN10systeminfo18GetOperatingSystemEv
Gf:emscriptenWebGLGet
Maa:__Z19CanReplaceComponentRN5Unity9ComponentEPKNS_4TypeEPN4core12basic_stringIcNS5_20StringStorageDefaultIcEEEE
$Pd:_UnmanagedMemoryStream_Flush_m1540584491
v_g:_Collection_1_GetEnumerator_m3986802482_gshared
oEd:_GuidParser_ParseGuid2_m1914838819
d6b:__ZN12CubemapArray11InitTextureEiii13TextureFormatb
WMg:_List_1_System_Collections_IList_get_Item_m1112579679_gshared
sDd:_Convert_ToSingle_m3983149863
sFe:_InternalEnumerator_1_System_Collections_IEnumerator_get_Current_m55999184_gshared
IYe:_ValueCollection_System_Collections_Generic_ICollectionU3CTValueU3E_Contains_m1842955046_gshared
J5h:__ZN24dense_hashtable_iteratorINSt3__24pairIK10KeyWrapperIPK10Il2CppTypeEjEES6_N6il2cpp8metadata14Il2CppTypeHashEN14dense_hash_mapIS6_jSB_NS6_14EqualsComparerINSA_26Il2CppTypeEqualityComparerEEENS0_9allocatorIS8_EEE9SelectKeyESF_SH_E30advance_past_empty_and_deletedEv
Wad:_Graphic_get_depth_m815589653
eEh:_Event_set_displayIndex_m1342258734
a7c:_ContentSizeFitter_get_horizontalFit_m2773126143
Pjh:_U3CStartU3Ec__Iterator0__ctor_m2366347741_gshared
qB:__ZN7mecanim5human13HumanFixTwistEPKNS0_5HumanEPNS_8skeleton13SkeletonPoseTIN4math4trsXEEES9_iiRKf
JRb:__ZL24AssignProjectorQueuesJobP30AssignProjectorQueuesJobHeader
K5f:_KeyValuePair_2_get_Key_m1218836954_gshared
I4d:_ParameterModifier_t1461694466_marshal_pinvoke
BYh:__ZN15dense_hashtableINSt3__24pairIK10KeyWrapperIN6il2cpp5utils13dynamic_arrayIPK10Il2CppTypeLj4EEEEPFvvEEESA_NS3_8metadata19Il2CppSignatureHashEN14dense_hash_mapISA_SD_SG_NSA_14EqualsComparerINSF_22Il2CppSignatureCompareEEENS0_9allocatorISE_EEE9SelectKeyESK_SM_E4swapERSP_
TEd:_Int16_System_IConvertible_ToUInt32_m3410279543
tna:__ZN9ShaderLab20SerializedSubProgram14SetConstBufferEPKci
o3h:__ZN6il2cpp2os4File5CloseEPNS0_10FileHandleEPi
aYh:__ZNSt3__27__sort5IRN6il2cpp5utils11collections13ArrayValueMapIPK10Il2CppType17Il2CppInteropData26InteropDataToTypeConverterNS1_8metadata14Il2CppTypeLessENSA_26Il2CppTypeEqualityComparerEE12SortComparerEPS8_EEjT0_SH_SH_SH_SH_T_
qTi:_Touch_get_fingerId_m859576425_AdjustorThunk
YEg:__Z48RuntimeInvoker_Boolean_t97287965_Link_t544317964PFvvEPK10MethodInfoPvPS4_
Voe:_Navigation_get_selectOnDown_m1912812616_AdjustorThunk
GEg:__Z53RuntimeInvoker_UIVertex_t4057497605_Int32_t2950945753PFvvEPK10MethodInfoPvPS4_
A0f:_UInt16_CompareTo_m2664746316_AdjustorThunk
RYe:_ValueCollection_GetEnumerator_m616748621_gshared
bX:__Z40DebugStringToFilePostprocessedStacktraceRK21DebugStringToFileData
Yvc:__Z29Transfer_Blittable_ArrayFieldI8JSONReadjEvRT_R9ArrayInfoRK23StaticTransferFieldInfo
_9g:_ReadOnlyCollection_1_get_Item_m679165083_gshared
$xi:_GC_check_finalizer_nested
mg:__setLetterbox
k1a:__ZNSt3__26__treeINS_12__value_typeIN9ShaderLab16FastPropertyNameEfEENS_19__map_value_compareIS3_S4_NS_4lessIS3_EELb1EEENS_9allocatorIS4_EEE12__find_equalIS3_EERPNS_16__tree_node_baseIPvEENS_21__tree_const_iteratorIS4_PNS_11__tree_nodeIS4_SE_EEiEESH_RKT_
Cse:_ScrollRect_OnScroll_m3861066534
F_e:_Dictionary_2_ToTKey_m224697230_gshared
voj:__ZL72FormerlySerializedAsAttribute_t2859083114_CustomAttributesCacheGeneratorP21CustomAttributesCache
Rpc:__ZN8JSONRead32GetValueForKeyWithNameConversionEPKN5Unity9rapidjson12GenericValueINS1_4UTF8IcEE13JSONAllocatorEEPKc
Vyh:_PatternCompiler_EmitFastRepeat_m3012952683
sab:__ZNSt3__26vectorI17BlendShapeChannelNS_9allocatorIS1_EEE6assignINS_11__wrap_iterIPS1_EEEENS_9enable_ifIXaasr21__is_forward_iteratorIT_EE5valuesr16is_constructibleIS1_NS_15iterator_traitsISA_E9referenceEEE5valueEvE4typeESA_SA_
H0b:__ZN11TimeManager11GetRealtimeEv
Gij:__ZL91RectOffset_t1369453676_CustomAttributesCacheGenerator_RectOffset_get_horizontal_m2663785949P21CustomAttributesCache
qNi:_Object_GetHashCode_m1944636947
RJd:_BinaryReader_ReadUInt32_m2210658763
eK:__ZN29AudioEffectInternalDefinitionC2EP26UnityAudioEffectDefinitionb
Tah:_ReadOnlyCollection_1_System_Collections_IList_Remove_m2434650390_gshared
T0f:_UInt16_ToString_m3056878594_AdjustorThunk
wD:__ZN4PPtrI6AvatarE8TransferI18StreamedBinaryReadILb0EEEEvRT_
D6f:_Dictionary_2_System_Collections_Generic_ICollectionU3CSystem_Collections_Generic_KeyValuePairU3CTKeyU2CTValueU3EU3E_Contains_m2803718146_gshared
mBi:__ZN6il2cpp2os9FastMutexD2Ev
O8e:_Interval_get_IsSingleton_m3386290029
kci:__ZNSt3__2plIcNS_11char_traitsIcEENS_9allocatorIcEEEENS_12basic_stringIT_T0_T1_EERKS9_PKS6_
mTi:_Time_get_unscaledDeltaTime_m4270080131
Vbb:__ZN4Mesh14GetMeshBuffersER11MeshBuffers17ShaderChannelMaskPS_b
MAf:_SHA384Managed__ctor_m3220477113
yya:_stbir_resize
cOf:_Array_IndexOf_TisCustomAttributeTypedArgument_t2723150157_m3158556463_gshared
$9f:_EqualityComparer_1_System_Collections_IEqualityComparer_GetHashCode_m360549782_gshared
kuf:_Environment_GetOSVersionString_m407782784
RIf:_DecoderExceptionFallback_Equals_m1082173956
Ybg:_EqualityComparer_1_System_Collections_IEqualityComparer_GetHashCode_m345188086_gshared
X1i:__ZL69Assembly_t_CustomAttributesCacheGenerator_Assembly_GetName_m981771927P21CustomAttributesCache
lmj:__ZL93Mesh_t3648964284_CustomAttributesCacheGenerator_Mesh_GetAllocArrayFromChannelImpl_m3084065604P21CustomAttributesCache
Bbb:__ZN4PPtrI4MeshE8TransferI14SafeBinaryReadEEvRT_
FOa:__Z37ReadDirectoryInfo_UnityWebAndUnityRawR12FileAccessorRKN20ArchiveStorageHeader6HeaderERNS1_13DirectoryInfoE
IMh:__ZL25UnresolvedVirtualCall_212P12Il2CppObjectS0_S0_PK10MethodInfo
V9:__ZNSt3__26__treeINS_12__value_typeIPKciEENS_19__map_value_compareIS3_S4_15compare_tstringIS3_ELb1EEENS_9allocatorIS4_EEE7destroyEPNS_11__tree_nodeIS4_PvEE
hSf:_Array_InternalArray__Insert_TisIntPtr_t_m189626842_gshared
b4e:_X509Certificate2_get_IssuerName_m1277209535
Tve:_Locale_GetText_m3374010885
c3g:_Collection_1_System_Collections_IEnumerable_GetEnumerator_m1598238343_gshared
Yjd:_RijndaelManaged_CreateEncryptor_m263736311
SYf:_WaitCallback__ctor_m1893321019
TOb:__ZN20DynamicPropertySheet14SetValueQueuedEN9ShaderLab16FastPropertyNameEN19ShaderPropertySheet12PropertyTypeEjNS2_8SetFlagsE
MPc:__ZN2UI6Canvas26MarkAllNestedCanvasesDirtyEv
xki:__ZN6il2cpp2vm12ReboxIfBoxedEP14Il2CppIUnknownP11Il2CppClass
NFb:__ZN25PathNamePersistentManagerD2Ev
QY:__ZN17PersistentManager48IntegrateObjectAndUnlockIntegrationMutexInternalEi
Kga:__ZZ29InitializeSortingGroupManagerPvEN44PostLateUpdateSortingGroupsUpdateRegistrator7ForwardEv
ytj:__ZL55EventTrigger_t1076084509_CustomAttributesCacheGeneratorP21CustomAttributesCache
sEf:_SecurityElement_SearchForChildByTag_m900466299
mp:__ZN6Object12SetHideFlagsENS_9HideFlagsE
lDd:_Convert_ToSingle_m3227075028
uMj:_emscripten_glGetFramebufferAttachmentParameteriv__wrapper
cMb:__ZN13RendererScene15InitializeUmbraEv
PWe:__ZN21InterfaceFuncInvoker2I26KeyValuePair_2_t2401056908P12Il2CppObjectiE6InvokeEjP11Il2CppClassS2_S2_i
BXa:__Z28CalculateGlobalMatrixInverse23TransformAccessReadOnly
DMi:_MonoBehaviour__ctor_m1579109191
Urj:__ZL59GUITargetAttribute_t25796337_CustomAttributesCacheGeneratorP21CustomAttributesCache
cdg:_GenericEqualityComparer_1_Equals_m3457564127_gshared
Q9e:_BigInteger_ModInverse_m2426215562
jHe:_InternalEnumerator_1_System_Collections_IEnumerator_Reset_m2386791007_AdjustorThunk
NIf:_DecoderExceptionFallback__ctor_m4044614564
bJe:_InternalEnumerator_1_System_Collections_IEnumerator_Reset_m3011999097_AdjustorThunk
lgi:__ZN6il2cpp2vm6Thread17FullMemoryBarrierEv
eQd:_LocalDataStoreSlot__cctor_m644942532
Qrj:__ZL80GUISkin_t1244372282_CustomAttributesCacheGenerator_m_verticalScrollbarDownButtonP21CustomAttributesCache
K3d:_MonoProperty_CachePropertyInfo_m2968057423
WUc:__ZN11UnityEngine15PlatformWrapper18GetWin8ScalingModeEv
lZc:__ZNK25UnityWebRequestJavaScript18GetDownloadedBytesEv
hPi:_Ray_GetPoint_m1852405345_AdjustorThunk
o0i:__ZL53RegionInfo_t1090270226_CustomAttributesCacheGeneratorP21CustomAttributesCache
tsj:__ZL85Canvas_t3310196443_CustomAttributesCacheGenerator_Canvas_get_sortingOrder_m1860900812P21CustomAttributesCache
AXi:__ZL74Single_t1397266774_CustomAttributesCacheGenerator_Single_IsNaN_m4024467661P21CustomAttributesCache
iJf:_Array_get_swapper_TisColor32_t2600501292_m2310851009_gshared
dZc:__ZN12HeaderHelper14SetUnvalidatedERKN4core12basic_stringIcNS0_20StringStorageDefaultIcEEEES6_b
cG:__ZN4FMOD6SoundI7releaseEv
zNh:__ZL25UnresolvedVirtualCall_257P12Il2CppObjecti19Vector3_t3722313464PK10MethodInfo
UAc:_cff_parse_num
hPa:__ZN10MemoryFile9SetLengthEy
wvb:__ZN5RectTIiE8TransferI24GenerateTypeTreeTransferEEvRT_
G4a:__ZN14SafeBinaryRead21TransferSTLStyleArrayI13dynamic_arrayI7Hash128Lj8EEEEvRT_17TransferMetaFlags
PEb:__Z28scripting_class_is_interface17ScriptingClassPtr
Dh:_glTexStorage2D
yzd:_SyncHashtable_get_Item_m2686606216
Qma:__ZNK9ShaderLab10SubProgram14EnsureCompiledEv
U_d:_MethodBuilder_GetGenericArguments_m1765425737
Kmf:_DateTime_CompareTo_m3687348273
Qwi:_GC_push_marked
Snf:_DateTime_ToUniversalTime_m1945318289_AdjustorThunk
Dye:_Kernel_modInverse_m668448880
ktf:_Enum_t4135868527_marshal_pinvoke
m$:__Z18BuildScriptClassId17ScriptingClassPtr
MPh:_TextGenerator_Init_m1168488231
pCe:_RSAManaged_Finalize_m3915335854
qq:__ZNK16LevelGameManager7GetNameEv
IMa:__ZL31DeleteLastPathNameComponentImplRKN4core12basic_stringIcNS_20StringStorageDefaultIcEEEEPKc
B2b:__Z13RegisterClassI18DelayedCallManagerEvv
$Vc:__ZN18UnityConnectClient15GetCloudServiceEv
Ftb:__Z18Transfer_BlittableI24GenerateTypeTreeTransferLb0EiEvRK29SerializationCommandArgumentsR31RuntimeSerializationCommandInfo
RJe:_InternalEnumerator_1_get_Current_m2698009637_gshared
TXe:_Enumerator_System_Collections_IEnumerator_Reset_m278261807_gshared
IEb:__ZL28SerializationCommandGroupForRK31TransferFunctionScriptingTraits17ScriptingClassPtr17ScriptingFieldPtrRK20CoreScriptingClasses
ORa:__ZN10TagManager32RegisterDefaultTagsAndLayerMasksEv
dZf:_WaitHandle_Dispose_m738127030
DSg:_List_1_System_Collections_IList_get_IsReadOnly_m1729002068_gshared
jtg:__Z50RuntimeInvoker_Double_t594665363_Int32_t2950945753PFvvEPK10MethodInfoPvPS4_
meh:_Predicate_1_EndInvoke_m1490920825_gshared
xcj:__ZL78LoaderOptimization_t1484956347_CustomAttributesCacheGenerator_DisallowBindingsP21CustomAttributesCache
E6f:_Dictionary_2_System_Collections_Generic_ICollectionU3CSystem_Collections_Generic_KeyValuePairU3CTKeyU2CTValueU3EU3E_CopyTo_m3122240003_gshared
QBg:__Z104RuntimeInvoker_Void_t1185182177_Color_t2555686324_Single_t1397266774_SByte_t1669577662_SByte_t1669577662PFvvEPK10MethodInfoPvPS4_
bSg:_List_1_Remove_m3853969205_gshared
fhg:_Enumerator_System_Collections_IEnumerator_get_Current_m1540440674_gshared
nFf:_Single_System_IConvertible_ToInt16_m809233024_AdjustorThunk
aEj:_fmodf
tie:_InputField_UpdateLabel_m1837760870
Oua:__ZN4gles8InitCapsEP7ApiGLESP12GraphicsCapsR16GfxDeviceLevelGL
Sya:__ZN6prcore14BlitImageFloatERK14ImageReferenceRS0_NS0_8BlitModeE
fXa:__Z24CalculateVertexLightDataRK15SharedLightDataR14GfxVertexLight
li:_glEnable
yMe:_InternalEnumerator_1_MoveNext_m973048327_gshared
Nma:__ZNK9ShaderLab7Program28BeginReadUnsupportedVariantsEv
m6:__ZN12CachedWriter11Align4WriteEv
$fb:__ZNSt3__26vectorIN30RuntimeInitializeOnLoadManager9ClassInfoE13stl_allocatorIS2_L18MemLabelIdentifier13ELi16EEE7reserveEj
xrc:__Z35Transfer_Blittable_FixedBufferFieldI9JSONWriteiEvRK29SerializationCommandArgumentsR31RuntimeSerializationCommandInfo
CSh:_HumanBone_t2465339518_marshal_pinvoke_cleanup
sdg:_Enumerator__ctor_m1590062855_AdjustorThunk
T9h:__ZN14dense_hash_mapI10KeyWrapperINSt3__24pairIPK10MethodInfoP11Il2CppClassEEEj17ReflectionMapHashIS8_ENS9_14EqualsComparerINS1_8equal_toIS8_EEEENS1_9allocatorINS2_IKS9_jEEEEEC2EjRKSB_RKSF_
Sx:__ZN26AnimatorControllerPlayable17ProcessRootMotionEP35AnimationPlayableEvaluationConstantP32AnimationPlayableEvaluationInputP33AnimationPlayableEvaluationOutput
S5i:__ZL54SoapServices_t133988723_CustomAttributesCacheGeneratorP21CustomAttributesCache
FPd:_UnexceptionalStreamReader_Peek_m1842169584
AUc:__ZN11UnityEngine7Connect15DeviceInfoEvent16CollectExtraInfoEv
rWi:_TypeInferenceRuleAttribute__ctor_m2736695831
CEi:_Bounds_GetHashCode_m1844059663_AdjustorThunk
Ugd:_CryptographicException__ctor_m1422015889
WVi:_Vector4_Equals_m1779210055_AdjustorThunk
eEd:_Convert_ChangeType_m739676612
lFj:_atoi
VGd:_Int32_System_IConvertible_ToInt32_m265310525_AdjustorThunk
mFj:_atol
Rui:__ZThn8_N6il2cpp2vm13CachedCCWBaseINS0_13ManagedObjectEE6AddRefEv
Idf:_Alert_GetAlertMessage_m1942367141
Yyj:__ZL88Selectable_t3250028441_CustomAttributesCacheGenerator_U3CisPointerDownU3Ek__BackingFieldP21CustomAttributesCache
yae:_RemotingServices_GetRealProxy_m2081098851
sAe:_BlockProcessor_Core_m189015002
BWh:__ZN15dense_hashtableINSt3__24pairIK10KeyWrapperIPKcEP11Il2CppClassEES5_N6il2cpp5utils11StringUtils12StringHasherIS4_EEN14dense_hash_mapIS5_S8_SE_NS5_14EqualsComparerINSB_13VmStringUtils21CaseSensitiveComparerEEENS0_9allocatorIS9_EEE9SelectKeyESJ_SL_EC2EjRKSE_RKSJ_RKSN_
CMj:_emscripten_glScissor__wrapper
yo:FUNCTION_TABLE_viifi
zo:FUNCTION_TABLE_viiff
Fkd:_X501__cctor_m1166912714
tuj:__ZL102PointerEventData_t3807901092_CustomAttributesCacheGenerator_PointerEventData_set_lastPress_m2928324031P21CustomAttributesCache
Koe:_MaskUtilities_GetRectMasksForClip_m532898711
GHc:_UNITY_tt_face_free_hdmx
cFi:_Bounds_ToString_m4208690781
kei:__ZN15dense_hashtableINSt3__24pairIK10KeyWrapperINS1_IP11Il2CppClassjEEES4_EES6_N6il2cpp8metadata14ArrayClassHashEN14dense_hash_mapIS6_S4_SB_NS6_14EqualsComparerINSA_17ArrayClassCompareEEENS0_9allocatorIS8_EEE9SelectKeyESF_SH_E5clearEv
_Vh:__ZNSt3__218uninitialized_copyIPNS_4pairIK10KeyWrapperIPK11Il2CppClassEPKcEESB_EET0_T_SD_SC_
Sai:__ZN6il2cpp2vm14TypeNameParser5ParseEb
vQd:_Math_Sqrt_m1297338011
sOd:_StreamWriter_Initialize_m3490883444
C$f:_Type_GetGenericArguments_m3500465462
gYc:__ZN23UnityPurchasingSettingsC2Ev
NGj:__ZNSt9bad_allocD0Ev
T1d:_Module_IsDefined_m2423524910
sXd:_DerivedType_create_unmanaged_type_m747846525
lrj:__ZL60EventType_t3528516131_CustomAttributesCacheGenerator_repaintP21CustomAttributesCache
STa:__ZN17GPUFenceInternals7ReleaseEv
Qyj:__ZL66Selectable_t3250028441_CustomAttributesCacheGenerator_m_NavigationP21CustomAttributesCache
d5d:_ResolveEventHandler__ctor_m1911137231
Z0g:_Collection_1_System_Collections_IList_Contains_m2393482847_gshared
MXb:__ZL10RenderFaceR9GfxDeviceR18MaterialStateCacheP13RenderTextureiif
bOf:_Array_IndexOf_TisCustomAttributeNamedArgument_t287865710_m2817957199_gshared
zja:__ZN15SerializeTraitsI13dynamic_arrayIN9ShaderLab21SerializedBindChannelELj4EEE19ResizeSTLStyleArrayERS3_i
puh:_ExtendedKeyUsageExtension_ToString_m2116504780
Uib:__ZNK5Unity9Component38MarkGameObjectAndComponentDependenciesER27GarbageCollectorThreadState
BJd:_BinaryReader_Read_m3708759962
AZc:__ZN20UnityWebRequestProtoI24UnityWebRequestTransport16AtomicRefCounter14RedirectHelper14ResponseHelper15DownloadHandler13UploadHandler12HeaderHelper14AsyncOperationED0Ev
ON:__ZNK7Texture21GetShadowSamplingModeEv
I6a:__ZN13ScreenManager21OnWindowRegainedFocusEv
WBb:__Z18Transfer_BlittableI18StreamedBinaryReadILb0EELb1EdEvRK29SerializationCommandArgumentsR31RuntimeSerializationCommandInfo
tua:__ZN9GfxDevice26CreateDefaultVertexBuffersEv
VNj:_emscripten_glVertexAttrib2fv__wrapper
c_c:__ZN13RuntimeStaticINSt3__26vectorIPN5physx15PxVehicleWheelsENS0_9allocatorIS4_EEEELb0EE13StaticDestroyEPv
TOd:_SynchronizedReader_ReadToEnd_m2160105378
Hsf:_Double_System_IConvertible_ToUInt16_m4132603953_AdjustorThunk
Mxa:__ZN4crnd12symbol_codec32decode_receive_static_data_modelERNS_25static_huffman_data_modelE
d1b:__ZN18ScriptingArguments8AddFloatEf
zTi:_TouchScreenKeyboard_Open_m3325559252
add:_Image_set_fillOrigin_m469806249
oUc:__ZN11UnityEngine15PlatformWrapper16GetVRRenderScaleEv
xsc:__Z18Transfer_BlittableI9JSONWriteLb0EaEvRK29SerializationCommandArgumentsR31RuntimeSerializationCommandInfo
OR:__ZN11UnityEngine15CloudWebService14DataDispatcher34OnSessionContainerArchivedAndReadyERNS0_16SessionContainerE
SMi:_ConnectionChangeEvent__ctor_m764126802
caf:_Kernel_Multiply_m193213393
rRd:_IntComparer__ctor_m2901422390
e5d:_ResolveEventHandler_Invoke_m1337322179
X6i:__ZL50HMACMD5_t2742219965_CustomAttributesCacheGeneratorP21CustomAttributesCache
ZQe:_Comparer_1__ctor_m1078828713_gshared
$vb:__Z18Transfer_BlittableI19StreamedBinaryWriteILb0EELb0E8Vector3fEvRK29SerializationCommandArgumentsR31RuntimeSerializationCommandInfo
Zfg:_Enumerator_VerifyState_m2621680056_gshared
$Ch:_UriParser_InternalRegister_m3643767086
Toj:__ZL106TextGenerator_t3211863866_CustomAttributesCacheGenerator_TextGenerator_INTERNAL_get_rectExtents_m183810018P21CustomAttributesCache
Xha:__ZN14SafeBinaryRead19TransferSTLStyleMapINSt3__23mapIN4core12basic_stringIcNS3_20StringStorageDefaultIcEEEEiNS1_4lessIS7_EENS1_9allocatorINS1_4pairIKS7_iEEEEEEEEvRT_17TransferMetaFlags
Enf:_DateTimeFormatInfo_get_RawAbbreviatedDayNames_m1257850285
Gzf:_RSACryptoServiceProvider_EncryptValue_m944137256
L6h:__ZN15dense_hashtableINSt3__24pairIK10KeyWrapperINS1_IPK11Il2CppImageP11Il2CppClassEEEjEES9_17ReflectionMapHashIS8_EN14dense_hash_mapIS9_jSD_NS9_14EqualsComparerINS0_8equal_toIS8_EEEENS0_9allocatorISB_EEE9SelectKeyESI_SK_ED2Ev
SFc:_gray_move_to
Pof:_DBNull_System_IConvertible_ToSingle_m13713620
yAj:__ZL127U3CDelayedSetDirtyU3Ec__Iterator0_t3170500204_CustomAttributesCacheGenerator_U3CDelayedSetDirtyU3Ec__Iterator0_Reset_m160466733P21CustomAttributesCache
JFi:_CameraCallback__ctor_m899467377
m5g:_ReadOnlyCollection_1_System_Collections_IList_Contains_m1327645028_gshared
ndd:_Image_GetDrawingDimensions_m3060965396
Loj:__ZL69FontTextureRebuildCallback_t2467502454_CustomAttributesCacheGeneratorP21CustomAttributesCache
V$f:_TypeLoadException__ctor_m1154572625
Wec:__Z30RegisterValidateMethodCallbackiPF18ScriptingMethodPtrS_17ScriptingClassPtrP6ObjectEPKc
Glb:__ZN20LocalFileSystemPosixD0Ev
JXi:__ZL75Decimal_t2948259380_CustomAttributesCacheGenerator_Decimal__ctor_m593929528P21CustomAttributesCache
dhf:_Context_get_WriteSequenceNumber_m1115956887
Wmd:_Activator_CreateInstanceInternal_m1337209899
Voh:_Dictionary_2_Do_ICollectionCopyTo_TisKeyValuePair_2_t2401056908_m1169495264_gshared
E$d:_OpCodes__cctor_m3821715395
$6c:_ContentSizeFitter__ctor_m2349275633
yej:__ZL56TypeConverter_t2249118273_CustomAttributesCacheGeneratorP21CustomAttributesCache
J0g:_Collection_1_RemoveAt_m3506636491_gshared
dFc:_tt_cmap_init
Pwc:__ZN8JSONRead8TransferI9BoundsIntEEvRT_PKc17TransferMetaFlagsb
Ia:invoke_viidi
wnh:_Array_Sort_TisOrderBlock_t1585977831_m2922111197_gshared
Nad:_Graphic_OnRectTransformDimensionsChange_m3695755375
Bfd:_SByte_System_IConvertible_ToChar_m1489191771_AdjustorThunk
FI:__ZN9AudioClip7CleanupEv
VHg:__Z76RuntimeInvoker_Void_t1185182177_Int32_t2950945753_PlayableBinding_t354260709PFvvEPK10MethodInfoPvPS4_
I8e:_Interval_t1802865632_marshal_pinvoke_cleanup
wfi:__ZNK15dense_hashtableINSt3__24pairIK10KeyWrapperIP11Il2CppClassES4_EES5_N6il2cpp8metadata16SZArrayClassHashEN14dense_hash_mapIS5_S4_SA_NS5_14EqualsComparerINS9_19SZArrayClassCompareEEENS0_9allocatorIS7_EEE9SelectKeyESE_SG_E12test_deletedEj
ibd:_Graphic_GraphicUpdateComplete_m1502194795
qvc:__Z18Transfer_BlittableI8JSONReadLb0EdEvRK29SerializationCommandArgumentsR31RuntimeSerializationCommandInfo
Mbe:_SynchronizationAttribute_EnterContext_m1660729920
uQh:_Canvas_get_referencePixelsPerUnit_m3420541976
s5g:_ReadOnlyCollection_1_System_Collections_ICollection_get_SyncRoot_m2522539235_gshared
iEh:_Event_get_current_m2393892120
rIh:_VertexHelper_Clear_m627349662
$$h:__ZN6il2cpp2vm21ThreadPoolCompartment13QueueWorkItemEP17Il2CppAsyncResult
qpa:__ZNK9GfxDevice13GetViewMatrixEv
aQd:_UnmanagedMemoryStream_Dispose_m2681886347
Uhb:__ZN17RemapPPtrTransferC2E24TransferInstructionFlagsb
_Bd:_Convert_ToDecimal_m889385228
K0:__ZN8TypeTree8BlobReadERPKhS1_ib
Ohj:__ZL87Display_t1387065949_CustomAttributesCacheGenerator_Display_GetSystemExtImpl_m2808197389P21CustomAttributesCache
opd:_Array_Reverse_m3714848183
h9c:_Dropdown_ClearOptions_m4085591601
m6c:_CanvasUpdateRegistry_InternalRegisterCanvasElementForGraphicRebuild_m3522560454
_5f:_KeyValuePair_2__ctor_m880186442_gshared
wgb:__ZN18LoadSceneOperation23GetAllowSceneActivationEv
mSa:__ZN6CameraD0Ev
wfa:__ZN31CanvasBatchIntermediateRenderer16StaticInitializeEPv
g3g:_Collection_1_System_Collections_IList_IndexOf_m837396833_gshared
ix:__ZN7mecanim12AndValueMaskILb0EEEvPKNS_14ValueArrayMaskEPS1_
Pfb:__ZN14SafeBinaryRead21TransferSTLStyleArrayINSt3__26vectorIi13stl_allocatorIiL18MemLabelIdentifier13ELi16EEEEEEvRT_17TransferMetaFlags
bTf:_EncoderFallback__cctor_m3806755293
QGe:_InternalEnumerator_1__ctor_m962177456_AdjustorThunk
PLc:_raccess_guess_apple_double
RBa:__ZL18ProgramUniform1uivPK7ApiGLESjiihPKv
n6b:__ZN14Texture2DArray13RebuildMipMapEv
AVh:__ZN13Il2CppHashSetIPK17Il2CppGenericInstN6il2cpp8metadata21Il2CppGenericInstHashENS4_24Il2CppGenericInstCompareENSt3__29allocatorI10KeyWrapperIS2_EEEEC2EjRKS5_RKS6_
apb:__Z18Transfer_BlittableI14SafeBinaryReadLb1EaEvRK29SerializationCommandArgumentsR31RuntimeSerializationCommandInfo
Bri:__ZN6il2cpp2gc16GarbageCollector14RemoveWeakLinkEPPv
una:__ZN9ShaderLab20SerializedSubProgram14AddVectorParamEPKcii15ShaderParamTypei
ePg:_List_1_GetEnumerator_m563931292_gshared
yRc:__ZN2UI14CanvasRenderer12CleanupClassEv
GAd:_Enumerator__ctor_m3362421874
lAg:__Z117RuntimeInvoker_CSSSize_t3377836552_IntPtr_t_Single_t1397266774_Int32_t2950945753_Single_t1397266774_Int32_t2950945753PFvvEPK10MethodInfoPvPS4_
YRj:_emscripten_glIsFramebuffer__wrapper
Aoi:__ZN6il2cpp2vm6Object3BoxEP11Il2CppClassPv
kgi:__ZN6il2cpp2vm6Thread7SetNameEP12Il2CppThreadP12Il2CppString
pp:__ZN6Object23VirtualRedirectTransferER19StreamedBinaryWriteILb1EE
VGb:__ZN13ScreenManager18SetAllowCursorLockEb
gT:__ZN11UnityEngine15CloudWebService10RestClientINS0_23WebRequestRestHeaderMapEE16SetRequestHeaderERKN4core12basic_stringIcNS4_20StringStorageDefaultIcEEEESA_
Ufb:__ZN30RuntimeInitializeOnLoadManager15ClassMethodInfo8TransferI14SafeBinaryReadEEvRT_
xce:_ConstructionCall_InitDictionary_m2824447813
V4d:_TargetException__ctor_m3701535709
JFg:__Z86RuntimeInvoker_Int32_t2950945753_Vector3_t3722313464_Vector3_t3722313464_RuntimeObjectPFvvEPK10MethodInfoPvPS4_
DP:__ZL22InitializeModule_Audiov
Smb:__ZN16MemoryFileSystem8IsLockedERK13FileEntryData
Dii:__ZN6il2cpp6icalls8mscorlib6System2IO6MonoIO5WriteEiP11Il2CppArrayiiPi
zLi:_Mathf_InverseLerp_m4155825980
wqg:__Z92RuntimeInvoker_RuntimeObject_RuntimeObject_RuntimeObject_SByte_t1669577662_SByte_t1669577662PFvvEPK10MethodInfoPvPS4_
Zk:_emscripten_glBindRenderbuffer
PMg:_List_1_System_Collections_IList_Insert_m1011775503_gshared
Qxi:_GC_dirty_init
Vli:__ZN6il2cpp2vm5Image33GetCachedMemoryMappedResourceFileEP24Il2CppReflectionAssembly
moi:__ZN6il2cpp2vm5Field14GetValueObjectEP9FieldInfoP12Il2CppObject
WQc:__ZNK2UI6Canvas16GetTargetDisplayEv
NEg:__Z69RuntimeInvoker_Void_t1185182177_Int32_t2950945753_Vector2_t2156229523PFvvEPK10MethodInfoPvPS4_
NZf:_TimeSpan_CompareTo_m3633415627_AdjustorThunk
mda:__ZN6Object17FindObjectsOfTypeEPKN5Unity4TypeER13dynamic_arrayIPS_Lj4EEb
fac:__ZNSt3__26vectorINS_4pairIiiEE13stl_allocatorIS2_L18MemLabelIdentifier1ELi16EEE21__push_back_slow_pathIKS2_EEvRT_
Coe:_MaskableGraphic_OnTransformParentChanged_m329502413
PZg:_Collection_1_Remove_m3611142372_gshared
fEb:__ZN13MonoBehaviour17RemoveFromManagerEv
wVi:_Vector3_get_Item_m668685504_AdjustorThunk
TSa:__ZN12ImageFilters14AddImageFilterERK11ImageFilter
Kae:_Context_NotifyDynamicSinks_m1841702879
KEh:_GUIUtility_get_pixelsPerPoint_m2369948084
eEf:_WindowsIdentity_System_Runtime_Serialization_IDeserializationCallback_OnDeserialization_m3428853631
rW:__ZN13MemoryManagerC2Ev
KFa:__ZN12SkinMeshInfo10DeallocateEPS_
oWh:__ZNK15dense_hashtableINSt3__24pairIK10KeyWrapperIPKcEP11Il2CppClassEES5_N6il2cpp5utils11StringUtils12StringHasherIS4_EEN14dense_hash_mapIS5_S8_SE_NS5_14EqualsComparerINSB_13VmStringUtils21CaseSensitiveComparerEEENS0_9allocatorIS9_EEE9SelectKeyESJ_SL_E8min_sizeEjj
dse:_ScrollRect_SetDirty_m214267968
wPa:__ZN20ArchiveStorageReader28AcquireAndPrefillUnusedBlockEjPNS_11CacheResultE
brd:_Boolean_System_IConvertible_ToDateTime_m603510836
h6b:__Z12NHxRoughnessIA4_tEvP9Texture2DPT_iiii
Vze:_ASN1_get_Value_m1857007406
JKh:__ZL25UnresolvedVirtualCall_105P12Il2CppObjecthPK10MethodInfo
Gda:__ZN18AsyncUploadManagerD2Ev
ukb:__ZN9Transform5ResetEv
Vqf:_Decimal_op_Explicit_m1842265407
Mvb:__Z22TransferField_NonArrayI24GenerateTypeTreeTransfer16Converter_StringEvRK23StaticTransferFieldInfoR31RuntimeSerializationCommandInfoRT0_
kRh:_CanvasRenderer_SetAlphaTexture_m2009567627
yBc:_UNITY_FT_CMap_New
EGe:_InternalEnumerator_1_get_Current_m4241643334_AdjustorThunk
HFe:_InternalEnumerator_1_MoveNext_m154749640_AdjustorThunk
OGb:__Z17MainLoopKeepalivePv
hzj:__ZL62Slider_t3903728902_CustomAttributesCacheGenerator_m_HandleRectP21CustomAttributesCache
lXh:__ZN15dense_hashtableI10KeyWrapperIPK17Il2CppGenericInstES4_N6il2cpp8metadata21Il2CppGenericInstHashEN14dense_hash_setIS4_S7_NS4_14EqualsComparerINS6_24Il2CppGenericInstCompareEEENSt3__29allocatorIS4_EEE8IdentityESB_SE_E12expand_arrayEjN21dense_hash_map_traits17integral_constantIbLb0EEE
UMe:_InternalEnumerator_1_get_Current_m1588647567_AdjustorThunk
fDj:_printf_core
D3i:__ZL51GCHandle_t3351438187_CustomAttributesCacheGeneratorP21CustomAttributesCache
Sie:_InputField_get_caretBlinkRate_m3620074524
OOb:__Z19SetupLODFadeKeywordR17ShaderPassContexti
aAf:_RSAPKCS1SignatureFormatter_CreateSignature_m3191980616
r$a:__ZN10builtintex16GetDefaultTexEnvE16TextureDimensionb
mFa:__ZL25CheckCopyTextureArgumentsRK7ApiGLESP11GLESTextureS3_
WMe:_InternalEnumerator_1__ctor_m362401472_AdjustorThunk
dNg:_List_1_AsReadOnly_m2400800347_gshared
LQj:_glDeleteShader__wrapper
jvb:__Z29Transfer_Blittable_ArrayFieldI24GenerateTypeTreeTransferyEvRT_R9ArrayInfoRK23StaticTransferFieldInfo
j3f:_ValueType_Equals_m1524437845
Ilj:__ZL71RuntimePlatform_t4159857903_CustomAttributesCacheGenerator_OSXWebPlayerP21CustomAttributesCache
qJ:__ZN4FMOD7SystemI9playSoundE17FMOD_CHANNELINDEXPNS_5SoundEbPPNS_7ChannelE
uDg:__Z123RuntimeInvoker_RuntimeObject_Ray_t3785851493_RuntimeObject_Single_t1397266774_Int32_t2950945753_RuntimeObject_RuntimeObjectPFvvEPK10MethodInfoPvPS4_
mId:_Int64_GetHashCode_m703091690
Dwf:_CultureInfo_set_DateTimeFormat_m1843682751
bxh:_X509CrlEntry_get_RevocationDate_m606796547
bEh:_Event_get_commandName_m4275147343
hx:__ZN27AnimationLayerMixerPlayable17LayerMixerProcessEP35AnimationPlayableEvaluationConstantP32AnimationPlayableEvaluationInputP33AnimationPlayableEvaluationOutputM17AnimationPlayableFvS1_S3_S5_EMS_FvS1_S3_S5_ESA_MS_FvS5_S1_S3_S5_ifE
arf:_Decimal_op_Implicit_m4256234411
RH:__ZN12AudioManager23VirtualRedirectTransferER18StreamedBinaryReadILb0EE
Zmg:__Z60RuntimeInvoker_RuntimeObject_RuntimeObject_Int16_t2552820387PFvvEPK10MethodInfoPvPS4_
veh:__ZN28GenericInterfaceFuncInvoker1Ib40CustomAttributeTypedArgument_t2723150157E6InvokeEPK10MethodInfoP12Il2CppObjectS0_
XNd:_StreamReader__ctor_m3941437302
clc:__Z57Register_UnityEngine_Transform_INTERNAL_get_localRotationv
u1e:_IPv6Address_get_Address_m1389170741
Hfb:__ZN30RuntimeInitializeOnLoadManager23VirtualRedirectTransferER17RemapPPtrTransfer
rJj:dynCall_viif
aVd:_AssemblyName_get_Flags_m1616840602
ls:__ZN7mecanim4hand8HandPoseC2Ev
Kjj:__ZL86Material_t340375123_CustomAttributesCacheGenerator_Material_DisableKeyword_m1245091008P21CustomAttributesCache
OOd:_StringReader_ReadLine_m2337102945
Rsb:__ZL26Transfer_SimpleNativeClassI17RemapPPtrTransfer8GradientLb0EEvRK29SerializationCommandArgumentsR31RuntimeSerializationCommandInfo
v4b:__ZZL31RegisterRectTransformPropertiesR22GenericPropertyBindingEN32Wrapper_RectTransformAnchorMaxx013SetFloatValueEPvf
Bzd:_SyncHashtable_Add_m3016107307
Uy:__ZN17AnimationPlayable26DisconnectNoTopologyChangeEPS_i
Krd:_Boolean_Equals_m2410333903_AdjustorThunk
sTg:_List_1_System_Collections_IList_Contains_m2131605266_gshared
i6i:__ZL61ISurrogateSelector_t3040401154_CustomAttributesCacheGeneratorP21CustomAttributesCache
_Ug:_List_1_ToArray_m1990123684_gshared
bU:__ZN13UploadHandlerD2Ev
PHj:dynCall_viiiiiffi
SBj:_Hacker__ctor_m518604791
zc:_emscripten_glBlendFuncSeparate
O$g:_Collection_1_Add_m809543251_gshared
F_:__Z20scripting_string_newPKc
Ajc:__Z43Material_CUSTOM_Internal_CreateWithMaterialP12Il2CppObjectS0_
jCh:_Parser_IsSingleline_m326238187
Fxd:_CollectionBase_get_Count_m1708965601
pid:_HMAC__ctor_m97939284
d7g:_ReadOnlyCollection_1_System_Collections_IList_get_Item_m1005238747_gshared
ali:__ZNK24NamespaceAndNamePairHashclERKNSt3__24pairIPKcS3_EE
i3f:_ValueType_DefaultEquals_m2927252100
Vqc:__ZN9JSONWrite12AppendToNodeEPN5Unity9rapidjson12GenericValueINS1_4UTF8IcEE13JSONAllocatorEEPKcRS6_
aAe:_ASN1_ToString_m1340204511
c5e:_X509Store_get_Certificates_m2149701265
q7f:_DefaultComparer_GetHashCode_m2865442331_gshared
nvj:__ZL144StandaloneInputModule_t2760469101_CustomAttributesCacheGenerator_StandaloneInputModule_t2760469101____allowActivationOnMobileDevice_PropertyInfoP21CustomAttributesCache
UUf:_StringBuilder_set_Chars_m3548656617
g3h:__ZN6il2cpp2os4File17GetFileAttributesERKNSt3__212basic_stringIcNS2_11char_traitsIcEENS2_9allocatorIcEEEEPi
sGg:__Z59RuntimeInvoker_Int32_t2950945753_X509ChainStatus_t133602714PFvvEPK10MethodInfoPvPS4_
_B:__ZNSt3__26__sortIRPFbPKN8Animator11AnimatorJobES4_EPS4_EEvT0_S9_T_
WG:__ZN17AudioCustomFilterD2Ev
yoc:__ZN11IMGUIModule26SetDeveloperConsoleVisibleEb
ZGg:__Z56RuntimeInvoker_Void_t1185182177_MonoResource_t4103430009PFvvEPK10MethodInfoPvPS4_
Bkb:__ZN9Transform16ResetReplacementEv
Jvi:_GC_unpromote_black_lists
V$i:__ZL64DebuggerBrowsableState_t747501856_CustomAttributesCacheGeneratorP21CustomAttributesCache
DDa:__ZN18GfxFramebufferGLES18ReleaseFramebufferEP17RenderSurfaceBaseP14GfxContextGLES
guc:__Z18Transfer_BlittableI8JSONReadLb1EiEvRK29SerializationCommandArgumentsR31RuntimeSerializationCommandInfo
fPd:_TextReader_Dispose_m4253712522
qV:__ZN19CloudServiceHandler34HandleSaveFileWebRequestPlayerLoopEv
Fdj:__ZL82BigInteger_t2902905090_CustomAttributesCacheGenerator_BigInteger__ctor_m2474659844P21CustomAttributesCache
Gy:__ZN7mecanim21ValueArrayReverseCopyEPKNS_18ValueArrayConstantEPKNS_10ValueArrayES2_PS3_PKi
EG:__Z31GetParentSampleClipFromInstancePN11SoundHandle8InstanceE
xsh:_InternalAsyncResult_get_BytesRead_m3975435112
Y3b:__ZNK28RectTransformPropertyBinding13GetFloatValueERKN11UnityEngine9Animation10BoundCurveE
hYb:__ZN6Camera22StandaloneCustomRenderENS_10RenderFlagEP6ShaderRKN4core12basic_stringIcNS3_20StringStorageDefaultIcEEEEPNS_21PerformRenderFunctionE
xOf:_Array_InternalArray__IndexOf_TisKeyValuePair_2_t2401056908_m4118889689_gshared
kfb:__ZNSt3__26vectorI4PPtrI6ObjectE13stl_allocatorIS3_L18MemLabelIdentifier52ELi16EEE6assignINS_11__wrap_iterIPS3_EEEENS_9enable_ifIXaasr21__is_forward_iteratorIT_EE5valuesr16is_constructibleIS3_NS_15iterator_traitsISD_E9referenceEEE5valueEvE4typeESD_SD_
W3g:_Collection_1_System_Collections_ICollection_get_IsSynchronized_m500240145_gshared
Wej:__ZL68X509CertificateCollection_t3399372417_CustomAttributesCacheGeneratorP21CustomAttributesCache
FCi:__ZN6il2cpp2os16ThreadLocalValue8GetValueEPPv
f4e:_X509Certificate2_get_PublicKey_m370665820
Lyc:_cff_slot_init
TZh:__ZN6il2cpp2vm13MetadataCache14GetGenericInstEPKPK10Il2CppTypej
GP:__ZN13AudioListener17ReadExtensionNameEi
Lb:invoke_iiidii
qZg:_Collection_1_System_Collections_Generic_ICollectionU3CTU3E_get_IsReadOnly_m1419845799_gshared
lP:__ZN9AudioClip15InitializeClassEv
cp:setThrew
Uee:_SoapMethodAttribute_get_XmlNamespace_m4029617514
_5b:__ZL21BuildEmptyCubeTexturePKci11ColorRGBA3217TextureColorSpace
wPh:_FontTextureRebuildCallback_BeginInvoke_m304512862
fSi:_SelectionBaseAttribute__ctor_m2749097321
_ha:__ZN14SafeBinaryRead21TransferSTLStyleArrayINSt3__26vectorIN9ShaderLab20SerializedSubProgramENS1_9allocatorIS4_EEEEEEvRT_17TransferMetaFlags
WOf:_Array_InternalArray__IndexOf_TisX509ChainStatus_t133602714_m48896230_gshared
$Na:__ZN19dynamic_block_arrayI13FileEntryInfoLj32EE4growEj
puc:__Z15Transfer_StringI8JSONReadLb1EEvRK29SerializationCommandArgumentsR31RuntimeSerializationCommandInfo
mAa:__ZN6prcoreL17RemapGenericFloatI17TexFormatRGBFloat15TexFormatRGHalfEEvPKNS_9InnerInfoE
qSh:_AnimatorControllerPlayable_Equals_m3421642688_AdjustorThunk
SDc:_sfnt_load_face
mLc:_UNITY_FT_Render_Glyph_Internal
Rhi:__ZNSt3__212basic_stringIDsNS_11char_traitsIDsEENS_9allocatorIDsEEE21__grow_by_and_replaceEjjjjjjPKDs
SBc:_UNITY_ft_service_list_lookup
NKh:__ZL25UnresolvedVirtualCall_109P12Il2CppObjectiaPK10MethodInfo
Ksb:__Z18Transfer_BlittableI17RemapPPtrTransferLb1E11ColorRGBA32EvRK29SerializationCommandArgumentsR31RuntimeSerializationCommandInfo
Xnc:__ZN5IMGUI21SelectReceivingWindowER8GUIStateb
Fid:_HMAC_Initialize_m3157696427
Tpf:_Decimal_System_IConvertible_ToUInt64_m1323635232
hEj:___strchrnul
vRg:_List_1_System_Collections_ICollection_CopyTo_m3643417403_gshared
SV:__ZN13BaseAllocator13TryDeallocateEPv
Pxb:__Z29Transfer_Blittable_ArrayFieldI19StreamedBinaryWriteILb0EEfEvRT_R9ArrayInfoRK23StaticTransferFieldInfo
Dkh:_ListPool_1_Release_m1363449253_gshared
_2e:_X509SubjectKeyIdentifierExtension__ctor_m2055934916
ngg:_Enumerator_Dispose_m2531396701_AdjustorThunk
Amb:__ZN16MemoryFileSystem5WriteER13FileEntryDatayPvPy
aUa:__ZNSt3__26vectorIN12FlareManager10FlareEntryENS_9allocatorIS2_EEE21__push_back_slow_pathIKS2_EEvRT_
bDj:_sprintf
Bnj:__ZL67NativeContainerAttribute_t2600515814_CustomAttributesCacheGeneratorP21CustomAttributesCache
Bec:__ZN9Scripting25CreateNullExceptionObjectE18ScriptingObjectPtr
kCe:_PrivateKeyInfo_DecodeRSA_m2889346634
yH:__ZN13AudioListener17RemoveFromManagerEv
td:_glAttachShader
k7c:_ContentSizeFitter_SetLayoutHorizontal_m2833273874
Ydf:__ZN28GenericInterfaceFuncInvoker1IbP22Int32U5BU5D_t385246372E6InvokeEPK10MethodInfoP12Il2CppObjectS1_
jY:__ZNK6Camera19GetProjectionMatrixEv
zxj:__ZL70InputField_t3762917431_CustomAttributesCacheGenerator_m_SelectionColorP21CustomAttributesCache
sje:_InputField_SetToCustomIfContentTypeIsNot_m2813459946
Qjg:__Z49RuntimeInvoker_DateTime_t3738529785_RuntimeObjectPFvvEPK10MethodInfoPvPS4_
Olj:__ZL70RuntimePlatform_t4159857903_CustomAttributesCacheGenerator_FlashPlayerP21CustomAttributesCache
vyf:_Guid_GetHashCode_m3042133858_AdjustorThunk
e_:__Z38PreallocateObjectFromPersistentManagerib
SDh:_Event_t2956885303_marshal_pinvoke_cleanup
zEf:_SecurityException_get_FirstPermissionThatFailed_m3934559164
Z7e:_Interpreter_Backtrack_m2828876822
X2a:__ZNK9Texture2D20GetUnscaledTextureIDEv
N1i:__ZL103TypeBuilder_t1073948154_CustomAttributesCacheGenerator_TypeBuilder_DefineDefaultConstructor_m2168449784P21CustomAttributesCache
Rfd:_SByte_System_IConvertible_ToType_m4075253447
aPj:_glFenceSync__wrapper
tTh:__ZNK15dense_hashtableINSt3__24pairIK10KeyWrapperIPK22Il2CppGenericParameterEP11Il2CppClassEES6_N6il2cpp5utils11PointerHashIS4_EEN14dense_hash_mapIS6_S9_SE_NS6_14EqualsComparerINS0_8equal_toIS5_EEEENS0_9allocatorISA_EEE9SelectKeyESJ_SL_E8min_sizeEjj
mUi:_Transform_INTERNAL_get_worldToLocalMatrix_m2730237241
Ike:_InputField_IsValidChar_m1928072643
kHg:__Z51RuntimeInvoker_Void_t1185182177_HitInfo_t3229609740PFvvEPK10MethodInfoPvPS4_
a3a:__ZNK9Texture2D26CanReuploadDataToGfxDeviceEv
NCb:__ZN18StreamedBinaryReadILb0EE21TransferSTLStyleArrayI13dynamic_arrayI4AABBLj4EEEEvRT_17TransferMetaFlags
e8i:__ZL63CodeAccessPermission_t2681295399_CustomAttributesCacheGeneratorP21CustomAttributesCache
ghb:__Z29ClearRepeatingLogMessageStatev
fLe:_InternalEnumerator_1_get_Current_m3191242573_gshared
Msd:_Byte_Equals_m1161982810_AdjustorThunk
DGg:__Z53RuntimeInvoker_Int32_t2950945753_UICharInfo_t75501106PFvvEPK10MethodInfoPvPS4_
Q4b:__ZN15QualitySettings12CleanupClassEv
Zjf:_SslCipherSuite_ComputeMasterSecret_m3963626850
YCi:__ZNK6il2cpp8metadata21Il2CppGenericInstHashclEPK17Il2CppGenericInst
BUg:_List_1_GrowIfNeeded_m278824317_gshared
HJa:__ZN7ApiGLESD2Ev
hRa:__ZN9Transform47ClearTransformHierarchyAndApplyToSerializedDataEv
Evc:__ZN8JSONRead21TransferSTLStyleArrayINSt3__26vectorI8MonoPPtr13stl_allocatorIS3_L18MemLabelIdentifier1ELi16EEEEEEvRT_17TransferMetaFlags
fJd:_IntPtr_op_Explicit_m536245531
sSa:__ZN6Camera23VirtualRedirectTransferER19StreamedBinaryWriteILb0EE
IJj:dynCall_fidi
G4h:__ZN15dense_hashtableINSt3__24pairIK10KeyWrapperINS1_IPK9FieldInfoP11Il2CppClassEEEjEES9_17ReflectionMapHashIS8_EN14dense_hash_mapIS9_jSD_NS9_14EqualsComparerINS0_8equal_toIS8_EEEENS0_9allocatorISB_EEE9SelectKeyESI_SK_E12resize_deltaEjj
xNg:_List_1_TrimExcess_m3433550210_gshared
VXi:__ZL63IntPtr_t_CustomAttributesCacheGenerator_IntPtr__ctor_m987082960P21CustomAttributesCache
OWh:__ZNK15dense_hashtableINSt3__24pairIK10KeyWrapperIPK19Il2CppGenericMethodEPK26Il2CppGenericMethodIndicesEES6_N6il2cpp8metadata23Il2CppGenericMethodHashEN14dense_hash_mapIS6_SA_SE_NS6_14EqualsComparerINSD_26Il2CppGenericMethodCompareEEENS0_9allocatorISB_EEE9SelectKeyESI_SK_E8min_sizeEjj
L4i:__ZL58IContextProperty_t840037424_CustomAttributesCacheGeneratorP21CustomAttributesCache
VEh:_GUILayoutEntry__ctor_m2229197035
wU:__ZN11UnityEngine15CloudWebService14RestDownloaderD2Ev
$Xd:_EnumBuilder_get_Assembly_m1175292766
e$b:__Z29StdTemplateConversionFunctionIjhEbPvR14SafeBinaryRead
m4:__ZN15dense_hashtableINSt3__24pairIKN9ShaderLab7Program23ShaderKeywordSetAndHashEPKNS2_10SubProgramEEES4_NS3_24ShaderKeywordHashFunctorEN14dense_hash_mapIS4_S8_SA_NS0_8equal_toIS4_EE13stl_allocatorIS9_L18MemLabelIdentifier67ELi16EEE9SelectKeyESD_SG_E15insert_noresizeERKS9_
aoh:_Array_swap_TisCustomAttributeNamedArgument_t287865710_TisCustomAttributeNamedArgument_t287865710_m881919420_gshared
zec:__ZNK13MonoBehaviour13GetScriptTypeEv
sZa:__ZN13RenderTexture12SetDimensionE16TextureDimension
pkf:_SslClientStream_set_ClientCertSelectionDelegate_m1261530976
je:_SDL_FreeRW
Stj:__ZL109ExecuteEvents_t3484638744_CustomAttributesCacheGenerator_ExecuteEvents_U3Cs_HandlerListPoolU3Em__0_m391641698P21CustomAttributesCache
KHg:__Z79RuntimeInvoker_Void_t1185182177_Int32_t2950945753_ParameterModifier_t1461694466PFvvEPK10MethodInfoPvPS4_
kSc:__Z34CanvasRenderer_Get_Custom_PropCullP12Il2CppObject
mN:__ZN20SoundChannelInstance8getDelayE14FMOD_DELAYTYPEPjS1_
hAi:__ZNSt3__26__treeINS_12__value_typeIPvxEENS_19__map_value_compareIS2_S3_NS_4lessIS2_EELb1EEENS_9allocatorIS3_EEE12__find_equalIS2_EERPNS_16__tree_node_baseIS2_EESF_RKT_
D4:__ZNSt3__26vectorIN20GpuProgramParameters15StructParameterENS_9allocatorIS2_EEEC2ERKS5_
JEe:_ArrayReadOnlyList_1_Contains_m232667507_gshared
Osg:__Z77RuntimeInvoker_Boolean_t97287965_IntPtr_t_Int32_t2950945753_SByte_t1669577662PFvvEPK10MethodInfoPvPS4_
hOi:_PlayableHandle_GetPlayableType_m432385838_AdjustorThunk
bKc:__ZNSt3__26vectorIN20TextRenderingPrivate8FontImpl13CharacterInfoE13stl_allocatorIS3_L18MemLabelIdentifier1ELi16EEE8__appendEj
v:tempBigInt
Nkh:_Array_InternalArray__Insert_TisKeyframe_t4206410242_m1558638568_gshared
paj:__ZL77Convert_t2465617642_CustomAttributesCacheGenerator_Convert_ToByte_m3567528984P21CustomAttributesCache
re:_emscripten_glVertexAttrib1fv
Hia:__ZNSt3__26vectorIN9ShaderLab20SerializedSubProgram12UAVParameterENS_9allocatorIS3_EEE7reserveEj
KGj:__ZSt11__terminatePFvvE
QJ:__ZN12AudioManager14systemCallbackEP11FMOD_SYSTEM24FMOD_SYSTEM_CALLBACKTYPEPvS3_
Snj:__ZL57PlayableOutput_t3179894105_CustomAttributesCacheGeneratorP21CustomAttributesCache
X8g:_ReadOnlyCollection_1_System_Collections_Generic_ICollectionU3CTU3E_Clear_m3451551308_gshared
W4c:_BaseMeshEffect_OnEnable_m3291426649
MFi:_ClassLibraryInitializer_Init_m988673678
xF:__ZN10SampleClip23VirtualRedirectTransferER24GenerateTypeTreeTransfer
yxi:_clear_marks_for_block
DYa:__ZN16ReflectionProbes16UpdateSampleDataEv
noj:__ZL90PlayerEditorConnectionEvents_t3411787513_CustomAttributesCacheGenerator_disconnectionEventP21CustomAttributesCache
Lwf:_CultureInfo_GetCultureInfo_m56098747
m8a:__ZN14Texture2DArray5ResetEv
kVb:__Z20AddActiveLocalLightsR11CullResultsR27LocalLightCullingParametersPPK15SharedLightDataPK8Vector4fRK9IndexListPfRSA_R12ActiveLightsSG_P5RectTIfEP13TargetEyeMask
w$i:__ZL80Hashtable_t1853889766_CustomAttributesCacheGenerator_Hashtable__ctor_m1763145853P21CustomAttributesCache
VBd:_Convert_ToDecimal_m1284148187
E1g:_Collection_1__ctor_m3489157029_gshared
EMj:_emscripten_glRenderbufferStorage__wrapper
mbi:__ZNK6il2cpp2vm14TypeNameParser10NextWillBeEcb
mzc:_cf2_getNormalizedVector
Oe:_JS_Sound_Play
zVc:__Z26GetUnityConnectSettingsPtrv
U9g:_ReadOnlyCollection_1_System_Collections_IList_set_Item_m1538987737_gshared
mha:__ZN9ShaderLab16SerializedShader8TransferI14SafeBinaryReadEEvRT_
DLa:__ZN5Mutex7TryLockEv
lcd:_GridLayoutGroup_set_constraint_m3308895167
Xpj:__ZL103AudioSource_t3935305588_CustomAttributesCacheGenerator_AudioSource_ReadExtensionPropertyValue_m72717540P21CustomAttributesCache
Qce:_ConstructionCallDictionary_SetMethodProperty_m3145285304
eHd:_Int32_System_IConvertible_ToUInt32_m3557270157
Jvg:__Z243RuntimeInvoker_Void_t1185182177_Int16_t2552820387_RuntimeObject_Int32_t2950945753_Int32_t2950945753_Int32_t2950945753_SByte_t1669577662_SByte_t1669577662_SByte_t1669577662_SByte_t1669577662_Int16_t2552820387_SByte_t1669577662_SByte_t1669577662PFvvEPK10MethodInfoPvPS4_
CFe:_InternalEnumerator_1_System_Collections_IEnumerator_get_Current_m1503522504_gshared
sB:__ZN7mecanim8skeleton13SkeletonAlignEPKNS0_8SkeletonERKN4math7_float4ES7_i
S6b:__ZN19ShaderPropertySheet16SetVectorIndexedEN9ShaderLab16FastPropertyNameEifRK8Vector4fNS_8SetFlagsE
F_f:_Type_get_IsAbstract_m1120089130
CVi:_Vector3_get_normalized_m2454957984_AdjustorThunk
jq:__ZN14SafeBinaryRead21TransferSTLStyleArrayIN4core12basic_stringIcNS1_20StringStorageDefaultIcEEEEEEvRT_17TransferMetaFlags
IDh:_UriFormatException__ctor_m1115096473
fJe:_InternalEnumerator_1_Dispose_m2818366163_AdjustorThunk
wMf:_Array_InternalArray__IEnumerable_GetEnumerator_TisSlot_t384495010_m460993382_gshared
yjj:__ZL114MonoBehaviour_t3962482529_CustomAttributesCacheGenerator_MonoBehaviour_StopCoroutineViaEnumerator_Auto_m3883784228P21CustomAttributesCache
jei:__ZN15dense_hashtableINSt3__24pairIK10KeyWrapperINS1_IP11Il2CppClassjEEES4_EES6_N6il2cpp8metadata14ArrayClassHashEN14dense_hash_mapIS6_S4_SB_NS6_14EqualsComparerINSA_17ArrayClassCompareEEENS0_9allocatorIS8_EEE9SelectKeyESF_SH_E9copy_fromERKSK_j
I$b:__Z29StdTemplateConversionFunctionIayEbPvR14SafeBinaryRead
gXf:_WaitHandle__ctor_m1707080176
pLg:__Z55RuntimeInvoker_Boolean_t97287965_Nullable_1_t2603721331PFvvEPK10MethodInfoPvPS4_
EGh:_GUIUtility_IsExitGUIException_m3644066650
ZU:__ZN11UnityEngine15CloudWebService14DataDispatcher4StopEv
Z6c:_ColorBlock_GetHashCode_m4264192507
VEd:_Int16_System_IConvertible_ToUInt64_m134975563
Jia:__ZNSt3__26vectorIN9ShaderLab20SerializedSubProgram12UAVParameterENS_9allocatorIS3_EEE8__appendEj
$2i:__ZL68TargetInvocationException_t4266643902_CustomAttributesCacheGeneratorP21CustomAttributesCache
l8h:__ZNK15dense_hashtableINSt3__24pairIK10KeyWrapperINS1_IPK9EventInfoP11Il2CppClassEEEjEES9_17ReflectionMapHashIS8_EN14dense_hash_mapIS9_jSD_NS9_14EqualsComparerINS0_8equal_toIS8_EEEENS0_9allocatorISB_EEE9SelectKeyESI_SK_E12test_deletedERK24dense_hashtable_iteratorISB_S9_SD_SM_SI_SK_E
Pnc:__ZN5IMGUI9GUIWindow5OnGUIER8GUIState
ePh:_AudioConfigurationChangeHandler_EndInvoke_m4175380841
jFf:_Single_System_IConvertible_ToDecimal_m325860800_AdjustorThunk
rRf:_Array_InternalArray__ICollection_CopyTo_TisSingle_t1397266774_m455540885_gshared
XMa:__ZN17ScriptingGCHandle7AcquireE18ScriptingObjectPtr25ScriptingGCHandleWeakness
avg:__Z74RuntimeInvoker_RuntimeObject_RuntimeObject_Int64_t3736567304_RuntimeObjectPFvvEPK10MethodInfoPvPS4_
cQc:__ZN2UI14CanvasRenderer14AttachToCanvasER8JobFencePNS_6CanvasENS0_15InstructionTypeE
jYe:_Enumerator__ctor_m1734342590_gshared
EIj:dynCall_iifiii
ixg:__Z85RuntimeInvoker_Int32_t2950945753_RuntimeObject_Int32U26_t1369213839_Int32_t2950945753PFvvEPK10MethodInfoPvPS4_
mya:__Z21HasAlphaTextureFormat13TextureFormat
XO:__ZN12AudioManager6UpdateEv
fya:__ZN14ImageReference9BlitImageERKS_NS_8BlitModeE
Vs:__ZN8Animator12AddToManagerEv
EQd:_MissingFieldException__ctor_m3742452630
V5e:_X509Chain__ctor_m2674663382
Y8g:_ReadOnlyCollection_1_System_Collections_Generic_IListU3CTU3E_Insert_m1121807192_gshared
$Eb:__ZN23CachedSerializationDataD2Ev
hXb:__ZNK25CameraStackRenderingState31CalculateStereoCameraTargetTypeEv
dYa:__ZN14RenderSettings23VirtualRedirectTransferER14SafeBinaryRead
dOe:_InternalEnumerator_1_get_Current_m114240259_gshared
Bqi:__ZN6il2cpp2os10ThreadImpl15CurrentThreadIdEv
Xkh:_Array_InternalArray__Insert_TisVector2_t2156229523_m2148694950_gshared
fVa:__ZN17GlobalGameManager8TransferI17RemapPPtrTransferEEvRT_
BBf:_SymmetricAlgorithm_get_Key_m3241860519
Mle:_U3CMouseDragOutsideRectU3Ec__Iterator1_Reset_m2233410497
Agf:_ClientSessionInfo_get_HostName_m2118440995
LXa:__ZN16LevelGameManager8TransferI18StreamedBinaryReadILb0EEEEvRT_
MHc:_UNITY_tt_face_load_fpgm
bRa:__Z17IsObjectAvailablei
ocb:__ZN12InputManagerD0Ev
PWg:_Queue_1_Peek_m1713833142_gshared
VAi:__ZN6il2cpp6icalls8mscorlib6System11Diagnostics10StackTrace9get_traceEP15Il2CppExceptionib
qXf:_ExecutionContext_Capture_m681135907
v6f:_Dictionary_2_System_Collections_IDictionary_Add_m4011968134_gshared
qBb:__Z18Transfer_BlittableI18StreamedBinaryReadILb0EELb1EtEvRK29SerializationCommandArgumentsR31RuntimeSerializationCommandInfo
UGe:_InternalEnumerator_1_System_Collections_IEnumerator_get_Current_m2889979481_AdjustorThunk
EFj:_posix_memalign
vPi:_Rect_get_position_m2115952571
k7g:_ReadOnlyCollection_1_get_Item_m4005849861_gshared
due:_Slider_get_direction_m3871593184
Zze:_ASN1_GetBytes_m3305539297
UUg:_List_1_Remove_m2092116835_gshared
Uaj:__ZL77Convert_t2465617642_CustomAttributesCacheGenerator_Convert_ToSByte_m717245755P21CustomAttributesCache
sQe:_DefaultComparer__ctor_m2039558311_gshared
i_:__ZNK15MonoScriptCache7ReleaseEv
pUh:__ZN6il2cpp2vm5Class13HasReferencesEP11Il2CppClass
vud:_CLSCompliantAttribute__ctor_m581760440
bg:_glBindTexture
UDj:_snprintf
kJd:_InvalidCastException__ctor_m2551002860
KBg:__Z50RuntimeInvoker_RuntimeObject_Resources_t1597885468PFvvEPK10MethodInfoPvPS4_
UNj:_emscripten_glVertexAttrib1fv__wrapper
uHg:__Z76RuntimeInvoker_Void_t1185182177_Int32_t2950945753_KeyValuePair_2_t2401056908PFvvEPK10MethodInfoPvPS4_
Gib:__Z36scripting_liveness_calculation_begin17ScriptingClassPtriPFvPP12Il2CppObjectiPvES3_PFvvES7_
ROh:_AudioExtensionManager_RemoveExtensionFromManager_m442924172
sMj:_emscripten_glGetProgramInfoLog__wrapper
UD:__ZN25AnimatedPropertyEvaluator29BindCurveToScriptingObjectPtrERKN13AnimationClip10FloatCurveEj18ScriptingObjectPtrb
d8i:__ZL80AllowPartiallyTrustedCallersAttribute_t1828959166_CustomAttributesCacheGeneratorP21CustomAttributesCache
ovj:__ZL52InputMode_t3382566315_CustomAttributesCacheGeneratorP21CustomAttributesCache
e0:__ZN17PersistentManager23DestroyFromFileInternalEi
DHi:_Display__ctor_m501911701
G5g:_ReadOnlyCollection_1_System_Collections_Generic_IListU3CTU3E_Insert_m1020890112_gshared
W8c:_Dropdown_get_onValueChanged_m2462066659
i8c:_DefaultControls_SetDefaultTextValues_m1943359795
sQb:__Z19SetupMotionMatricesR6CameraR18RPDataMotionVector
WSh:__ZL7log2_64y
OC:__ZN26AnimatorControllerPlayable18PrepareForPlaybackERN7mecanim6memory9AllocatorE
kD:__ZN8Animator11AnimatorJob11AddPlayableEP17AnimationPlayablef
gcd:_GridLayoutGroup_get_cellSize_m2967185053
Wkf:_CurrentSystemTimeZone_GetUtcOffset_m340358963
Ruh:_PKCS12_Decrypt_m1280162536
bHe:_InternalEnumerator_1_get_Current_m3081223448_gshared
lEh:_Event_get_isMouse_m1058251071
nWa:__ZN10VertexDataC2ERKS_17ShaderChannelMask10MemLabelId
lxd:_CaseInsensitiveHashCodeProvider_AreEqual_m1790260777
GXg:_Collection_1_IndexOf_m3762683187_gshared
tCc:_otv_JSTF_validate
G4:__ZN22CreateGpuProgramOutputC2Ev
zaf:_BigInteger_op_LessThanOrEqual_m3925173639
OIi:_PersistentCallGroup_Initialize_m4253175514
ard:_Boolean_System_IConvertible_ToChar_m4279513009_AdjustorThunk
kyd:_Hashtable__ctor_m1763145853
cde:_LogicalCallContext__ctor_m1263247987
iGd:_NumberFormatter_ScaleOrder_m3813786990
nig:_List_1_GetEnumerator_m239622569_gshared
mwj:__ZL60OptionData_t3270282352_CustomAttributesCacheGenerator_m_TextP21CustomAttributesCache
PBg:__Z43RuntimeInvoker_VerticalWrapMode_t2936607737PFvvEPK10MethodInfoPvPS4_
Hhh:__ZN25GenericVirtActionInvoker2IP12Il2CppObjectS1_E6InvokeEPK10MethodInfoS1_S1_S1_
lCe:_PrivateKeyInfo_DecodeDSA_m771724585
Z5h:__ZNK15dense_hashtableINSt3__24pairIK10KeyWrapperINS1_IPK10MethodInfoP11Il2CppClassEEEjEES9_17ReflectionMapHashIS8_EN14dense_hash_mapIS9_jSD_NS9_14EqualsComparerINS0_8equal_toIS8_EEEENS0_9allocatorISB_EEE9SelectKeyESI_SK_E23find_position_with_hashERSA_j
rtj:__ZL53EventHandle_t600343995_CustomAttributesCacheGeneratorP21CustomAttributesCache
M7b:__ZN8GUILayer12CleanupClassEv
rwd:_SynchronizedArrayListWrapper_get_SyncRoot_m3862302789
LMg:_List_1_System_Collections_IEnumerable_GetEnumerator_m839737540_gshared
l1f:_UInt32_System_IConvertible_ToSByte_m1061556466
R9d:_WellKnownClientTypeEntry__ctor_m2471908952
oUh:__ZN6il2cpp2vm5Class4InitEP11Il2CppClass
ga:invoke_vidi
G$a:__ZN8Material17MainThreadCleanupEv
W7d:_RemotingServices_CreateClientProxyForContextBound_m783705199
QCg:__Z30RuntimeInvoker_Axis_t809944411PFvvEPK10MethodInfoPvPS4_
$bc:__ZNK15GUIEventManager15GetEventAtIndexEi
Krh:_InternalAsyncResult_get_ProceedAfterHandshake_m2508379800
tQc:__ZN2UI14CanvasRenderer17SyncDirtyElementsER8JobFence
mBb:__Z18Transfer_BlittableI18StreamedBinaryReadILb0EELb0ExEvRK29SerializationCommandArgumentsR31RuntimeSerializationCommandInfo
Ftd:_Convert_ToUInt16_m2952781888
mTe:_Enumerator_System_Collections_IEnumerator_get_Current_m3816090481_gshared
vti:__ZN6il2cpp5utils11StringUtils15StringDuplicateEPKc
f9f:_DefaultComparer_Equals_m2480133610_gshared
Y3:__ZNK9ShaderLab21ShaderRasterStateDesc16ToGfxRasterStateEPK19ShaderPropertySheetS3_R14GfxRasterState
Tnh:_Array_Sort_TisVector3_t3722313464_m1915176437_gshared
MCi:__ZN6il2cpp2os9EventImplC2Ebb
Uig:_List_1_System_Collections_IList_get_IsFixedSize_m3566150119_gshared
$q:__ZN4PPtrI13MonoBehaviourE8TransferI19StreamedBinaryWriteILb0EEEEvRT_
sQg:_List_1_get_Item_m2113769949_gshared
hUa:__ZN12FlareManager12RemoveCameraER6Camera
aSi:_ScriptableObject_t2528358522_marshal_pinvoke
W4:__Z20IsMatrixBuiltinParamPKcPi
L8h:__ZN6il2cpp2gc19AppendOnlyGCHashMapINSt3__24pairIPK10MethodInfoP11Il2CppClassEEP11Il2CppArray17ReflectionMapHashIS9_ENS2_8equal_toIS9_EEEC2Ev
UCf:_String_memcpy4_m979367827
HEf:_SecurityFrame_t1422462475_marshal_pinvoke
e6h:__ZN15dense_hashtableINSt3__24pairIK10KeyWrapperINS1_IPK10MethodInfoP11Il2CppClassEEEjEES9_17ReflectionMapHashIS8_EN14dense_hash_mapIS9_jSD_NS9_14EqualsComparerINS0_8equal_toIS8_EEEENS0_9allocatorISB_EEE9SelectKeyESI_SK_E16reset_thresholdsEv
uVf:_UnicodeEncoding_GetBytesInternal_m1902824297
z6b:__ZN8Renderer19PostInitializeClassEv
UNf:_Array_FindIndex_TisRuntimeObject_m2504082708_gshared
Roc:__Z38Register_UnityEngine_Event_get_rawTypev
Iwh:_X509Chain_FindCertificateRoot_m1937726457
IIe:_InternalEnumerator_1__ctor_m217498388_AdjustorThunk
bzi:__ZN6il2cpp6icalls8mscorlib6System8Delegate23CreateDelegate_internalEP20Il2CppReflectionTypeP12Il2CppObjectP22Il2CppReflectionMethodb
nUe:_Enumerator_System_Collections_IEnumerator_get_Current_m921113401_AdjustorThunk
mWb:__ZNK13RendererScene22GetStaticBoundingBoxesEv
tEb:__ZN18DelayedCallManager18CancelCallDelayed2E4PPtrI6ObjectEPF15CallObjectStatePS1_PvES7_
CLi:_Matrix4x4_GetHashCode_m4034747639
JKa:__ZN25ThreadsafeLinearAllocator10ReallocateEPvji
rob:__Z18Transfer_BlittableI14SafeBinaryReadLb1E11QuaternionfEvRK29SerializationCommandArgumentsR31RuntimeSerializationCommandInfo
Gga:__ZN18SpriteAtlasManagerD0Ev
ddg:_GenericEqualityComparer_1__ctor_m1058369027_gshared
kIh:_ToggleGroup_set_allowSwitchOff_m4192200290
UEg:__Z57RuntimeInvoker_Boolean_t97287965_KeyValuePair_2_t71524366PFvvEPK10MethodInfoPvPS4_
kab:__ZN10Matrix4x4f8TransferI14SafeBinaryReadEEvRT_
k7h:__ZNK10KeyWrapperINSt3__24pairIPK12PropertyInfoP11Il2CppClassEEE14EqualsComparerINS0_8equal_toIS7_EEEclERKS8_SE_
Rgd:_CryptographicUnexpectedOperationException__ctor_m2381988196
o9h:__ZN14dense_hash_mapI10KeyWrapperIPK22Il2CppGenericParameterEPK24MonoGenericParameterInfoN6il2cpp5utils11PointerHashIS2_EENS4_14EqualsComparerINSt3__28equal_toIS3_EEEENSD_9allocatorINSD_4pairIKS4_S7_EEEEE15set_deleted_keyERSJ_
IC:__ZN14AvatarPlayback8StopTimeEv
GJe:_InternalEnumerator_1_System_Collections_IEnumerator_get_Current_m4213507601_gshared
kba:__Z6AppendRKN4core12basic_stringIcNS_20StringStorageDefaultIcEEEEPKc
eKg:__Z74RuntimeInvoker_DictionaryEntry_t3123975638_RuntimeObject_SByte_t1669577662PFvvEPK10MethodInfoPvPS4_
Fib:__ZL14OnWorldStoppedv
FMf:_Array_InternalArray__IEnumerable_GetEnumerator_TisCustomAttributeNamedArgument_t287865710_m523021714_gshared
$3g:__ZN21InterfaceFuncInvoker1I19Vector4_t3319028937iE6InvokeEjP11Il2CppClassP12Il2CppObjecti
byb:__Z18Transfer_BlittableI18StreamedBinaryReadILb1EELb0E8Vector3fEvRK29SerializationCommandArgumentsR31RuntimeSerializationCommandInfo
ezd:_HashKeys_get_SyncRoot_m3757723936
xGh:_GUIUtility_RemoveCapture_m1294193818
gua:__ZN7ApiGLES18ClearBufferSubDataEjN2gl12BufferTargetEll
fgc:__Z37Camera_Get_Custom_PropAllCamerasCountv
H8a:__ZN14Texture2DArray8TransferI18StreamedBinaryReadILb0EEEEvRT_
NTg:_List_1_CopyTo_m2746988508_gshared
tUb:__Z18ApplyOcclusionMaskR19ProbeOcclusionCacheRK17LightProbeContextRK10RenderNodeb
nJc:_Split_Cubic
cb:invoke_fiiii
jle:_InputField_OnSubmit_m3583210804
eej:__ZL64CipherSuiteCollection_t1129639304_CustomAttributesCacheGeneratorP21CustomAttributesCache
Jrj:__ZL72GUISkin_t1244372282_CustomAttributesCacheGenerator_m_horizontalScrollbarP21CustomAttributesCache
VCh:_Uri_CheckHostName_m2213216182
RNj:_emscripten_glBindRenderbuffer__wrapper
wph:_Mesh_SetUvsImpl_TisVector2_t2156229523_m3009194955_gshared
h3f:_ValueType_InternalEquals_m1384040357
Vnh:_Array_Sort_TisVector4_t3319028937_TisVector4_t3319028937_m4254533673_gshared
TNe:_InternalEnumerator_1_System_Collections_IEnumerator_Reset_m729791527_AdjustorThunk
wvd:_ArrayListWrapper_Contains_m2641184447
$Ic:_ft_black_render
jsg:__Z177RuntimeInvoker_Int32_t2950945753_RuntimeObject_Int32_t2950945753_Int32_t2950945753_RuntimeObject_Int32_t2950945753_EncoderFallbackBufferU26_t2343550713_CharU5BU5DU26_t3299466565PFvvEPK10MethodInfoPvPS4_
OJj:dynCall_viiifi
QCa:__ZN18GfxFramebufferGLES20ActiveContextChangedEPP17RenderSurfaceBaseS2_
Gud:_ArrayList_get_IsFixedSize_m24366329
HCa:__Z19PluginsRenderMarkeri
UPe:_InternalEnumerator_1__ctor_m2307827786_AdjustorThunk
BE:__ZN10HumanTrait18InitializeBoneNameEv
Qia:__ZNSt3__26vectorIN9ShaderLab20SerializedSubProgram15StructParameterENS_9allocatorIS3_EEE6assignINS_11__wrap_iterIPS3_EEEENS_9enable_ifIXaasr21__is_forward_iteratorIT_EE5valuesr16is_constructibleIS3_NS_15iterator_traitsISC_E9referenceEEE5valueEvE4typeESC_SC_
l8a:__ZN14Texture2DArray21AwakeFromLoadThreadedEv
mCb:__Z29Transfer_Blittable_ArrayFieldI18StreamedBinaryReadILb0EEyEvRT_R9ArrayInfoRK23StaticTransferFieldInfo
sTi:_Touch_get_position_m3109777936_AdjustorThunk
_li:__ZNSt3__214__split_bufferIN6il2cpp2vm5Image20EmbeddedResourceDataERNS_9allocatorIS4_EEEC2EjjS7_
z5c:_CanvasScaler_set_screenMatchMode_m2975492035
cH:__ZN12AudioManager17RemoveAudioSourceEP11AudioSource
d5e:_X509Certificate2Collection_Add_m3151757943
IZi:__ZL83RuntimeArray_CustomAttributesCacheGenerator_RuntimeArray____LongLength_PropertyInfoP21CustomAttributesCache
QRe:_Comparer_1__cctor_m951016718_gshared
pxd:_CaseInsensitiveHashCodeProvider_get_DefaultInvariant_m4264275163
hei:__ZN15dense_hashtableINSt3__24pairIK10KeyWrapperINS1_IP11Il2CppClassjEEES4_EES6_N6il2cpp8metadata14ArrayClassHashEN14dense_hash_mapIS6_S4_SB_NS6_14EqualsComparerINSA_17ArrayClassCompareEEENS0_9allocatorIS8_EEE9SelectKeyESF_SH_E4swapERSK_
Bsg:__Z195RuntimeInvoker_Int32_t2950945753_RuntimeObject_Int32_t2950945753_Int32_t2950945753_Int32_t2950945753_RuntimeObject_DecoderFallbackBufferU26_t3866396827_ByteU5BU5DU26_t4057885439_SByte_t1669577662PFvvEPK10MethodInfoPvPS4_
NQ:__ZN5physx14PxLightCpuTask12addReferenceEv
XVa:__ZNK15InstancingProps35FillInstanceBufferDispatchConstantsIN10Instancing14RenderLoopArgsEEEvPPvjjRK19ShaderPropertySheetRKT_
DFg:__Z86RuntimeInvoker_Int32_t2950945753_Color32_t2600501292_Color32_t2600501292_RuntimeObjectPFvvEPK10MethodInfoPvPS4_
j5a:__ZN21EnlightenSceneMapping8TransferI19StreamedBinaryWriteILb0EEEEvRT_
Nni:__ZN6il2cpp2gc16GarbageCollector19InitializeFinalizerEv
Iy:__ZN7mecanim8skeleton18CreateSkeletonMaskEjPKNS0_19SkeletonMaskElementERNS_6memory9AllocatorE
Lah:_ReadOnlyCollection_1_System_Collections_Generic_ICollectionU3CTU3E_get_IsReadOnly_m2508509261_gshared
unc:__ZN10GUIManager10DoGUIEventER10InputEventb
RMh:__ZL25UnresolvedVirtualCall_221P12Il2CppObject19TimeSpan_t881159249S1_PK10MethodInfo
jub:__Z35Transfer_Blittable_FixedBufferFieldI24GenerateTypeTreeTransferxEvRK29SerializationCommandArgumentsR31RuntimeSerializationCommandInfo
hDc:_otv_LangSys_validate
yQi:_RectOffset_get_right_m2294081512
S0d:__ZN25GenericVirtActionInvoker1IP20Delegate_t1188392813E6InvokeEPK10MethodInfoP12Il2CppObjectS1_
klh:_Array_InternalArray__set_Item_TisLink_t544317964_m1234244240_gshared
SHc:_UNITY_TT_Init_Glyph_Loading
tPb:__Z20CalculateSqrDistanceRK8Vector3fRK4AABB
a9c:_OptionData_get_text_m2997376818
Bed:_SerializationInfo_GetBoolean_m1756153320
BL:__Z32AudioMixerDuckingProcessCallbackP21UnityAudioEffectStatePfS1_jii
wre:_U3CClickRepeatU3Ec__Iterator0_System_Collections_IEnumerator_get_Current_m543328413
hMi:_Mesh_get_uv2_m3615020997
x5g:_ReadOnlyCollection_1_Contains_m2979956790_gshared
D5b:__ZN26CustomRenderTextureManagerD2Ev
hic:__Z32Input_Get_Custom_PropInputStringv
fag:_EqualityComparer_1_System_Collections_IEqualityComparer_Equals_m4172006498_gshared
WH:__ZN12AudioManager8TransferI24GenerateTypeTreeTransferEEvRT_
mmh:_Array_qsort_TisOrderBlock_t1585977831_m3322202512_gshared
oLi:_Mathf_Round_m4098141538
kxa:__Z25GetBytesFromTextureFormat13TextureFormat
b9a:__ZN9Texture3D19UnloadFromGfxDeviceEb
ohi:__ZN6il2cpp6icalls8mscorlib6System9Threading6Thread20Thread_free_internalEP12Il2CppThreadi
RHj:dynCall_iiffi
ssb:__Z18Transfer_BlittableI17RemapPPtrTransferLb0EsEvRK29SerializationCommandArgumentsR31RuntimeSerializationCommandInfo
xYg:_Collection_1_get_Item_m4103760396_gshared
S$e:__KeysEnumerator_get_Current_m2996478063
pUd:_AmbiguousMatchException__ctor_m2012725345
ND:__ZN16MecanimAnimation25RegisterIAnimationBindingEPKN5Unity4TypeEiP17IAnimationBinding
W$:__Z32scripting_class_get_assemblyname17ScriptingClassPtr
qUc:__ZN11UnityEngine15PlatformWrapper15GetVRDeviceNameEv
WAj:__ZL109LayoutUtility_t2745813735_CustomAttributesCacheGenerator_LayoutUtility_U3CGetFlexibleWidthU3Em__3_m1091238571P21CustomAttributesCache
wBg:__Z99RuntimeInvoker_Boolean_t97287965_Int32_t2950945753_PointerEventDataU26_t867828220_SByte_t1669577662PFvvEPK10MethodInfoPvPS4_
mIe:_InternalEnumerator_1_get_Current_m2128158355_AdjustorThunk
LIa:__ZN9GfxDevice21RegisterNativeTextureE9TextureIDi16TextureDimension
Sad:_GraphicRegistry__ctor_m1851575309
gHg:__Z52RuntimeInvoker_Void_t1185182177_Keyframe_t4206410242PFvvEPK10MethodInfoPvPS4_
qdj:__ZL53TypeFilter_t2356120900_CustomAttributesCacheGeneratorP21CustomAttributesCache
rAi:__ZN6il2cpp6icalls8mscorlib6System10Reflection4Emit11TypeBuilder20create_generic_classEP27Il2CppReflectionTypeBuilder
oAf:_SHA1Internal_FillBuff_m3615718415
ILf:_PlayableHandle_IsPlayableOfType_TisAnimationLayerMixerPlayable_t3631223897_m201603007_gshared
q9i:__ZL50Monitor_t2197244473_CustomAttributesCacheGeneratorP21CustomAttributesCache
D1h:__ZNSt3__26vectorIPK10MethodInfoNS_9allocatorIS3_EEE26__swap_out_circular_bufferERNS_14__split_bufferIS3_RS5_EE
Paf:_PrimalityTest_EndInvoke_m1035389364
qQ:__Z60Register_UnityEngine_AudioListener_GetNumExtensionPropertiesv
Wi:_emscripten_glUniformMatrix4fv
yei:__ZN15dense_hashtableINSt3__24pairIK10KeyWrapperINS1_IP11Il2CppClassjEEES4_EES6_N6il2cpp8metadata14ArrayClassHashEN14dense_hash_mapIS6_S4_SB_NS6_14EqualsComparerINSA_17ArrayClassCompareEEENS0_9allocatorIS8_EEE9SelectKeyESF_SH_E13set_empty_keyERKS8_
ljb:__ZN12ScriptMapperD2Ev
pYe:_Enumerator_Dispose_m3040896940_AdjustorThunk
ERj:b100
kMi:_Mesh_get_colors32_m1253190811
rwi:_GC_stopped_mark
wDi:_AnimationCurve_Finalize_m2397002729
Cve:_Text_OnEnable_m616205807
GLg:__Z50RuntimeInvoker_RuntimeObject_ColorTween_t809614380PFvvEPK10MethodInfoPvPS4_
APe:_InternalEnumerator_1__ctor_m945079686_AdjustorThunk
Pdd:_SerializationCallbacks__cctor_m1674315180
dlg:__Z194RuntimeInvoker_Void_t1185182177_ByteU2AU26_t57153304_ByteU2AU26_t57153304_DoubleU2AU26_t3650786047_UInt16U2AU26_t531067350_UInt16U2AU26_t531067350_UInt16U2AU26_t531067350_UInt16U2AU26_t531067350PFvvEPK10MethodInfoPvPS4_
Uja:__Z32TransferEnumWithNameForceIntSizeI14SafeBinaryRead7FogModeEvRT_RT0_PKc17TransferMetaFlags
vkc:__Z52Register_UnityEngine_RenderTexture_Internal_GetWidthv
EKh:__ZL25UnresolvedVirtualCall_100P12Il2CppObjectiPK10MethodInfo
Qla:__ZN9ShaderLab20SerializedSubProgram16TextureParameter8TransferI19StreamedBinaryWriteILb0EEEEvRT_
mKa:__ZNK7Hash12812PackToUInt32Ev
xwd:_SynchronizedArrayListWrapper_IndexOf_m3642674350
J1:__ZNSt3__227__insertion_sort_incompleteIRNS_6__lessI14ObjectLoadDataS2_EEPS2_EEbT0_S6_T_
fV:__ZN11UnityEngine15CloudWebService16SessionContainer8AddEventEPNS0_14CloudEventInfoE
AHa:__Z4TrimRKN4core12basic_stringIcNS_20StringStorageDefaultIcEEEES5_
m8g:_ReadOnlyCollection_1_CopyTo_m209634623_gshared
Poh:_Dictionary_2_Do_ICollectionCopyTo_TisKeyValuePair_2_t3842366416_m1399105608_gshared
Dtj:__ZL77ExecuteEvents_t3484638744_CustomAttributesCacheGenerator_U3CU3Ef__mgU24cache2P21CustomAttributesCache
p4e:_X509Certificate2_Import_m4026562329
_Oj:_glGetStringi__wrapper
f7a:__ZN10VertexData8TransferI14SafeBinaryReadEEvRT_
kJ:__ZN4FMOD8ChannelI8setDelayE14FMOD_DELAYTYPEjj
fyi:_GC_malloc_atomic
K7d:_ActivatedClientTypeEntry_ToString_m2494181680
ceg:_HashSet_1_GetEnumerator_m3346268098_gshared
QAi:__ZN6il2cpp5utils6Memory13AlignedMallocEjj
BOi:_PropertyName_GetHashCode_m3570549176_AdjustorThunk
Emj:__ZL55PropertyName_t3749835189_CustomAttributesCacheGeneratorP21CustomAttributesCache
ple:_Selectable_get_animator_m2899312855
JGi:__ZN23GenericVirtFuncInvoker5I19CSSSize_t3377836552ififiE6InvokeEPK10MethodInfoP12Il2CppObjectififi
_Y:__ZL20SortItemByInstanceIDRKN18AwakeFromLoadQueue4ItemES2_
iVi:_Vector2_op_Multiply_m2347887432
gad:_FontData_get_maxSize_m195374730
i0e:_TypeConverterAttribute__ctor_m1774069684
Ty:__ZNK34AnimationStateMachineMixerPlayable26GetInterruptedPosePlayableEv
$Wc:__ZN20UnityConnectSettings8TransferI24GenerateTypeTreeTransferEEvRT_
VA:__ZN34BlobWriteTransferSTLStyleArrayImplI22OffsetPtrArrayTransferIbEEclERS1_17TransferMetaFlagsR9BlobWrite
Cld:_Byte_ToString_m4063101981
NRd:_MonoType_GetConstructors_m2574682189
Dsi:__ZNK15dense_hashtableINSt3__24pairIK10KeyWrapperIPK19Il2CppGenericMethodEP10MethodInfoEES6_N6il2cpp8metadata23Il2CppGenericMethodHashEN14dense_hash_mapIS6_S9_SD_NS6_14EqualsComparerINSC_26Il2CppGenericMethodCompareEEENS0_9allocatorISA_EEE9SelectKeyESH_SJ_E10test_emptyERK30dense_hashtable_const_iteratorISA_S6_SD_SL_SH_SJ_E
H4i:__ZL59SinkProviderData_t4151372974_CustomAttributesCacheGeneratorP21CustomAttributesCache
_0e:_ServicePointManager_FindServicePoint_m4119451290
AQe:__ZN21InterfaceFuncInvoker1Ii22OrderBlock_t1585977831E6InvokeEjP11Il2CppClassP12Il2CppObjectS0_
Qca:__ZL31InitializeRendererUpdateManagerPv
SWd:_ParameterInfo__ctor_m2779026345
jje:_InputField_set_onValueChange_m1251390545
qad:_FontData_get_verticalOverflow_m4132840071
gRc:__ZN2UI13CanvasManager14GetRenderOrderEPKNS_6CanvasE
fTd:_NumberFormatter_get_IsZeroInteger_m2263284741
vP:__ZN13AudioListener12CleanupClassEv
jda:__Z13GetIEnlightenv
pSi:_HitInfo_t3229609740_marshal_pinvoke
gth:_X509Certificate_PEM_m2020851166
sze:_BigInteger_op_GreaterThanOrEqual_m700865613
bSf:_Array_InternalArray__Insert_TisDateTime_t3738529785_m2308632330_gshared
Zcb:__ZN11TimeManager8TransferI19StreamedBinaryWriteILb0EEEEvRT_
rif:_TlsServerCertificateRequest_ProcessAsTls1_m3214041063
DDc:_compare_uni_maps
Mzg:__Z72RuntimeInvoker_Boolean_t97287965_Vector2_t2156229523_Vector2_t2156229523PFvvEPK10MethodInfoPvPS4_
fVc:__ZN11UnityEngine15PlatformWrapper27GetGraphicsCapsSupportFlagsEv
AOc:__ZNSt3__218__insertion_sort_3IRPFbPN2UI6CanvasES3_EPS3_EEvT0_S8_T_
Mxb:__ZN12NativeBufferI16Converter_StringE15SetupForWritingER9ArrayInfo
Zfa:__ZN13RuntimeStaticI18AssetBundleManagerLb1EE16StaticInitializeEPv
vLj:___cxa_end_catch__wrapper
jxg:__Z121RuntimeInvoker_Int32_t2950945753_RuntimeObject_Int32U26_t1369213839_Int32_t2950945753_Int32_t2950945753_Int32_t2950945753PFvvEPK10MethodInfoPvPS4_
lud:_Char_ToString_m278452217
pef:_CipherSuite_get_DecryptionCipher_m2839827488
rkg:__Z32RuntimeInvoker_Boolean_t97287965PFvvEPK10MethodInfoPvPS4_
eRb:__ZNK4PPtrI5LightEcvPS0_Ev
uaf:_BigInteger_op_RightShift_m460065452
cFb:__ZN13MonoBehaviour22DoScriptRebuildWarningEv
hgc:__Z38Camera_CUSTOM_INTERNAL_CALL_RaycastTryP12Il2CppObjectRK3Rayfi
qgi:__ZN6il2cpp6icalls8mscorlib6System5Array13ClearInternalEP11Il2CppArrayii
Epe:_RectMask2D_get_rootCanvasRect_m2913509457
ANc:__Z38TextGenerator_Get_Custom_PropLineCountP12Il2CppObject
qsh:_InternalAsyncResult_SetComplete_m963842420
PTf:_Encoding_GetEncoding_m2801244948
woc:__ZN11IMGUIModule25GetGUIStyleScriptingClassEv
fGc:_tt_get_interface
ush:_SslStreamBase_EndRead_m495357226
$gi:__ZN6il2cpp5utils9PathUtils7CombineIcEENSt3__212basic_stringIT_NS3_11char_traitsIS5_EENS3_9allocatorIS5_EEEERKSA_SC_
euc:__ZN9JSONWrite8TransferI13dynamic_arrayIiLj4EEEEvRT_PKc17TransferMetaFlags
u0g:_Collection_1_System_Collections_IList_get_IsFixedSize_m214626114_gshared
Uug:__Z64RuntimeInvoker_RuntimeObject_SByte_t1669577662_SByte_t1669577662PFvvEPK10MethodInfoPvPS4_
_G:__ZL16FMOD_ErrorString11FMOD_RESULT_363
M9b:__ZN13PlayableGraph21InvalidateMultithreadEv
Qfg:_Enumerator_System_Collections_IEnumerator_get_Current_m713684915_AdjustorThunk
Dcg:_GenericComparer_1_Compare_m459680062_gshared
vYd:_EnumBuilder_GetConstructorImpl_m3068576149
I_:__Z18ConvertUTF16toUTF8PPKtS0_PPhS2_15ConversionFlags
Yri:__ZN6il2cpp2os20PathErrnoToErrorCodeERKNSt3__212basic_stringIcNS1_11char_traitsIcEENS1_9allocatorIcEEEEi
pxj:__ZL68InputField_t3762917431_CustomAttributesCacheGenerator_m_KeyboardTypeP21CustomAttributesCache
sBf:_SymmetricAlgorithm_System_IDisposable_Dispose_m3402297829
JSh:__ZL16my_g_bit_nth_msfj
Kcj:__ZL65NonSerializedAttribute_t2945079482_CustomAttributesCacheGeneratorP21CustomAttributesCache
Nei:__ZN15dense_hashtableINSt3__24pairIK10KeyWrapperIP11Il2CppClassES4_EES5_N6il2cpp8metadata16SZArrayClassHashEN14dense_hash_mapIS5_S4_SA_NS5_14EqualsComparerINS9_19SZArrayClassCompareEEENS0_9allocatorIS7_EEE9SelectKeyESE_SG_E12expand_arrayEjN21dense_hash_map_traits17integral_constantIbLb0EEE
AFi:__ZN30GenericInterfaceActionInvoker1IP18Camera_t4157153871E6InvokeEPK10MethodInfoP12Il2CppObjectS1_
k8f:_DefaultComparer_GetHashCode_m3369508712_gshared
kWg:_Enumerator_MoveNext_m3662315381_AdjustorThunk
$hf:_TlsClientFinished_ProcessAsTls1_m2429863130
H7d:_ActivatedClientTypeEntry_get_ApplicationUrl_m2894992111
FNb:__Z23SetupStereoFlareElementP11FlareVertexRK8Vector2fS3_S3_RK11ColorRGBA32RK10Matrix4x4fRK8Vector3fb
jJh:__ZL24UnresolvedVirtualCall_25P12Il2CppObjectS0_S0_PK10MethodInfo
CUh:__ZN6il2cpp2vm5Class15GetInstanceSizeEPK11Il2CppClass
g3f:_ValueType__ctor_m2036258423
sa:invoke_iiiifiiii
pje:_InputField_EnforceContentType_m2436948794
H0g:__ZN23InterfaceActionInvoker2Ii20UICharInfo_t75501106E6InvokeEjP11Il2CppClassP12Il2CppObjectiS0_
uei:__ZNK15dense_hashtableINSt3__24pairIK10KeyWrapperINS1_IP11Il2CppClassjEEES4_EES6_N6il2cpp8metadata14ArrayClassHashEN14dense_hash_mapIS6_S4_SB_NS6_14EqualsComparerINSA_17ArrayClassCompareEEENS0_9allocatorIS8_EEE9SelectKeyESF_SH_E12test_deletedERK30dense_hashtable_const_iteratorIS8_S6_SB_SJ_SF_SH_E
THf:_String_Join_m2050845953
jVe:_ShimEnumerator_MoveNext_m2406150314_gshared
JDa:__ZL19BlitFramebufferImplRN4gles23BlitFramebufferDrawQuadER9GfxDevice9TextureIDRK8Vector4f
Wrb:__Z18Transfer_BlittableI17RemapPPtrTransferLb0EhEvRK29SerializationCommandArgumentsR31RuntimeSerializationCommandInfo
h5h:__ZN15dense_hashtableINSt3__24pairIK10KeyWrapperIPK10Il2CppTypeEjEES6_N6il2cpp8metadata14Il2CppTypeHashEN14dense_hash_mapIS6_jSB_NS6_14EqualsComparerINSA_26Il2CppTypeEqualityComparerEEENS0_9allocatorIS8_EEE9SelectKeyESF_SH_E4findERS7_
BIj:dynCall_viiiiiiiiiiiiii
wHc:_UNITY_FT_List_Add
b6b:__ZN14Texture2DArray11InitTextureEiii13TextureFormatb
K8i:__ZL104Encoding_t1523322056_CustomAttributesCacheGenerator_Encoding_t1523322056____DecoderFallback_PropertyInfoP21CustomAttributesCache
vgh:_InvokableCall_1_Invoke_m1524307439_gshared
K1a:__ZN12CubemapArray21AwakeFromLoadThreadedEv
VJd:_Directory_CreateDirectoriesInternal_m3735342319
Bvj:__ZL108U3CStartU3Ec__Iterator0_t1249263001_CustomAttributesCacheGenerator_U3CStartU3Ec__Iterator0__ctor_m1316384627P21CustomAttributesCache
uig:_List_1_RemoveAll_m517055598_gshared
zne:_LayoutUtility_GetLayoutProperty_m3731360667
dai:__ZN15dense_hashtableINSt3__24pairIK10KeyWrapperINS1_IPK11Il2CppImageP11Il2CppClassEEEjEES9_17ReflectionMapHashIS8_EN14dense_hash_mapIS9_jSD_NS9_14EqualsComparerINS0_8equal_toIS8_EEEENS0_9allocatorISB_EEE9SelectKeyESI_SK_E14squash_deletedEv
qBf:_SHAConstants__cctor_m1699027474
D2d:_MonoEventInfo_t346866618_marshal_pinvoke_back
aY:__ZNK6Camera26GetStereoSingleCullEnabledEv
Aig:_List_1_TrimExcess_m4121641494_gshared
Jaj:__ZL78Convert_t2465617642_CustomAttributesCacheGenerator_Convert_ToInt16_m1733792763P21CustomAttributesCache
dgb:__Z14resize_trimmedINSt3__26vectorIN4core12basic_stringIcNS2_20StringStorageDefaultIcEEEE13stl_allocatorIS6_L18MemLabelIdentifier13ELi16EEEEEvRT_j
$ob:__Z18Transfer_BlittableI14SafeBinaryReadLb0EaEvRK29SerializationCommandArgumentsR31RuntimeSerializationCommandInfo
Bcj:__ZL68Math_t1671470975_CustomAttributesCacheGenerator_Math_Min_m3253079129P21CustomAttributesCache
pud:_CharEnumerator_System_Collections_IEnumerator_get_Current_m1328529384
HKj:_emscripten_glFrustum__wrapper
URh:_AnimationLayerMixerPlayable__ctor_m860721801
Akg:__Z98RuntimeInvoker_Boolean_t97287965_RuntimeObject_Int32_t2950945753_RuntimeObject_Int64U26_t200113976PFvvEPK10MethodInfoPvPS4_
aIc:_UNITY_FT_List_Iterate
aVa:__ZN17GlobalGameManager8TransferI24GenerateTypeTreeTransferEEvRT_
Ktd:_Char_System_IConvertible_ToUInt64_m3536560782
w9f:_EqualityComparer_1__cctor_m3452395357_gshared
fJc:_Render_Single_Pass
kMb:__Z20SyncFenceCullResultsR11CullResults
mGa:__ZN15TextureTFMethod20IsBoneCountSupportedEi
rOi:_PlayableOutputHandle_CompareVersion_m841260813
ftf:_Double_ToString_m3828879243_AdjustorThunk
utb:__Z22TransferField_NonArrayI17RemapPPtrTransfer27Converter_SimpleNativeClassI8GUIStyleEEvRK23StaticTransferFieldInfoR31RuntimeSerializationCommandInfoRT0_
lPd:_TextReader_Synchronized_m3004980758
h1b:__ZNK17AnimationCurveTplIfE20EvaluateWithoutCacheEfRf
Fzg:__Z67RuntimeInvoker_Boolean_t97287965_Rect_t2360479859_SByte_t1669577662PFvvEPK10MethodInfoPvPS4_
vYa:__ZN19ShaderPropertySheet10SetTextureERK23FastTexturePropertyNameP7Texture
QVd:_CustomAttributeData__ctor_m2966233049
$5c:_CanvasUpdateRegistry_PerformUpdate_m1793997159
rhf:_Context_set_ClientWriteIV_m3405909624
Cbc:__ZN4Mesh10SetNormalsEPK8Vector3fj
tHh:_AesManaged_CreateDecryptor_m692040246
Lbj:__ZL79Convert_t2465617642_CustomAttributesCacheGenerator_Convert_ToUInt64_m2343585091P21CustomAttributesCache
zPh:_TextGenerationSettings_t1351628751_marshal_pinvoke_back
ns:__ZN17AnimationCurveTplIfE8TransferI14SafeBinaryReadEEvRT_
i4f:_Dictionary_2_get_Count_m2449135560_gshared
qlh:_Array_InternalArray__set_Item_TisInt16_t2552820387_m2544074754_gshared
Wnd:_ArithmeticException__ctor_m3551809662
uKd:_MonoIO_ExistsDirectory_m2182482658
CVg:__ZN21InterfaceFuncInvoker0I19Vector4_t3319028937E6InvokeEjP11Il2CppClassP12Il2CppObject
JIg:__Z72RuntimeInvoker_CustomAttributeNamedArgument_t287865710_Int32_t2950945753PFvvEPK10MethodInfoPvPS4_
Q_b:__Z29StdTemplateConversionFunctionIybEbPvR14SafeBinaryRead
G5a:__ZNSt3__26vectorIN15QualitySettings14QualitySettingENS_9allocatorIS2_EEE6assignIPS2_EENS_9enable_ifIXaasr21__is_forward_iteratorIT_EE5valuesr16is_constructibleIS2_NS_15iterator_traitsIS9_E9referenceEEE5valueEvE4typeES9_S9_
A2:__ZNK5Unity9Component10GetEnabledEv
Pre:_ScrollRect_get_scrollSensitivity_m2832710591
f:HEAPU32
sig:_List_1_CheckCollection_m1671972112_gshared
Yci:_il2cpp_class_get_image
Cff:_CipherSuiteFactory_GetSsl3SupportedCiphers_m3757358569
GVf:_UnicodeEncoding_GetPreamble_m3002287178
m1:__Z16AsyncReadRequestP16AsyncReadCommand
QTh:__ZNK15dense_hashtableINSt3__24pairIK10KeyWrapperIPK22Il2CppGenericParameterEP11Il2CppClassEES6_N6il2cpp5utils11PointerHashIS4_EEN14dense_hash_mapIS6_S9_SE_NS6_14EqualsComparerINS0_8equal_toIS5_EEEENS0_9allocatorISA_EEE9SelectKeyESJ_SL_E12test_deletedEj
xOh:_AudioSource_get_spatialize_m3609701298
izg:__Z52RuntimeInvoker_Color_t2555686324_Color32_t2600501292PFvvEPK10MethodInfoPvPS4_
nna:__ZN20GpuProgramParameters14AddVectorParamEPKcii15ShaderParamTypeiiiP16PropertyNamesSet
QYc:__ZNK12HeaderHelper3GetERKN4core12basic_stringIcNS0_20StringStorageDefaultIcEEEE
Ecb:__ZN9InputAxis8TransferI14SafeBinaryReadEEvRT_
tZ:__ZNK21ExecutionOrderManager30GetCustomAwakeFromLoadQueueForEPKN5Unity4TypeE
jYc:__Z27RegisterModule_UnityConnectv
y4b:__ZZL31RegisterRectTransformPropertiesR22GenericPropertyBindingEN32Wrapper_RectTransformSizeDeltax013GetFloatValueEPv
WMd:_MemoryStream_Expand_m3554752073
A8h:__ZN6il2cpp2vm10Reflection27GetCustomAttributesCacheForEP25Il2CppReflectionParameter
dSi:_ScriptableObject_CreateInstance_m2611081756
vge:_ObjectRecord_get_IsInstanceReady_m2304516395
cOe:_InternalEnumerator_1_System_Collections_IEnumerator_get_Current_m1635397542_gshared
BNd:_Path__cctor_m3273994011
QGj:__ZNSt11logic_errorD2Ev
Olf:_DateTimeUtils_CountRepeat_m3396693018
N3f:_WeakReference_get_Target_m168713953
EK:__ZN10ObjectPoolIN4FMOD12ChannelGroupENS0_13ChannelGroupIEE7SetSizeEi
KAj:__ZL103LayoutRebuilder_t541313304_CustomAttributesCacheGenerator_LayoutRebuilder_U3CRebuildU3Em__5_m1288787547P21CustomAttributesCache
eHh:_SymmetricTransform_FinalDecrypt_m764004682
Hqi:__ZN6il2cpp2os10ThreadImpl33UnregisterCurrentThreadForCleanupEv
yUg:_List_1_System_Collections_IList_get_Item_m1315368445_gshared
yuj:__ZL114PointerEventData_t3807901092_CustomAttributesCacheGenerator_PointerEventData_get_pointerCurrentRaycast_m2627585223P21CustomAttributesCache
Pzh:_Parser_ParseGroupingConstruct_m263270497
m$c:_UIBehaviour_OnDisable_m1784507360
ioj:__ZL112PlayerConnection_t3081694049_CustomAttributesCacheGenerator_PlayerConnection_MessageCallbackInternal_m1914517467P21CustomAttributesCache
JW:__Z22ValidateTlsfAllocationPvjiS_
EIe:_InternalEnumerator_1_MoveNext_m3525157932_gshared
OFi:_Color__ctor_m2943235014_AdjustorThunk
jai:__ZN14dense_hash_mapI10KeyWrapperINSt3__24pairIPK9EventInfoP11Il2CppClassEEEj17ReflectionMapHashIS8_ENS9_14EqualsComparerINS1_8equal_toIS8_EEEENS1_9allocatorINS2_IKS9_jEEEEE15set_deleted_keyERSH_
Zw:__ZN27AnimationLayerMixerPlayable22PrepareAnimationEventsEfR13dynamic_arrayI22AnimationClipEventInfoLj4EE
Lqb:__Z14resize_trimmedINSt3__26vectorI17AnimationCurveTplIfE13stl_allocatorIS3_L18MemLabelIdentifier1ELi16EEEEEvRT_j
fXb:__ZN25CameraStackRenderingState19SetupLastEyeCamerasERK11CameraStack
MPa:__Z12GUIDToStringRK9UnityGUID
Rjf:_RSASslSignatureDeformatter_SetKey_m2204705853
BG:__ZN11SoundHandleC2ERKS_
it:__ZN17AnimationPlayableC2E18DirectorPlayerType
lie:_InputField_set_shouldHideMobileInput_m1650743574
yZh:__ZNK6il2cpp5utils11collections13ArrayValueMapIPK10Il2CppType17Il2CppInteropData26InteropDataToTypeConverterNS_8metadata14Il2CppTypeLessENS8_26Il2CppTypeEqualityComparerEE10find_firstERKS5_
UVg:_List_1_Reverse_m1445355384_gshared
pLd:_FileStream_get_CanSeek_m331583577
i$b:__Z29StdTemplateConversionFunctionItxEbPvR14SafeBinaryRead
Xfe:_WellKnownServiceTypeEntry_get_ObjectType_m3211195371
cOh:_PCMReaderCallback_EndInvoke_m3916876196
D0d:_TypeBuilder_get_ContainsGenericParameters_m1769080325
Uhd:_DSAParameters_t1885824122_marshal_pinvoke_back
xz:__ZN8Animator22OnGraphTopologyChangedEP8Playablei
nze:_Kernel_MultiplyByDword_m1266935086
SCd:_Convert_ToInt64_m3916071102
QYb:__ZN6Camera25StandaloneRenderToCubemapEP7TextureiPFvPK9SceneNodePK4AABBR9IndexListPvESA_j
PGf:_String_Trim_m3384720403
hYa:__ZN14RenderSettings18TransferDeprecatedI14SafeBinaryReadEEvRT_
Isg:__Z93RuntimeInvoker_Single_t1397266774_SingleU26_t1922108698_Single_t1397266774_Single_t1397266774PFvvEPK10MethodInfoPvPS4_
WDh:_Event__ctor_m526447123
Wcj:__ZL56RankException_t3812021567_CustomAttributesCacheGeneratorP21CustomAttributesCache
$Eg:__Z72RuntimeInvoker_Boolean_t97287965_CustomAttributeNamedArgument_t287865710PFvvEPK10MethodInfoPvPS4_
Rvg:__Z88RuntimeInvoker_RuntimeObject_RuntimeObject_RuntimeObject_RuntimeObject_Int32_t2950945753PFvvEPK10MethodInfoPvPS4_
B$f:_Type_ToString_m3975981286
lZ:__ZN12TLSAllocatorI14StackAllocatorE8AllocateEji
l$:__ZN16ScriptingManager18GetMonoScriptCacheEi
bAh:_ExpressionAssertion__ctor_m2554412824
zBh:_CapturingGroup_IsComplex_m4061114763
gpb:__Z18Transfer_BlittableI14SafeBinaryReadLb1EyEvRK29SerializationCommandArgumentsR31RuntimeSerializationCommandInfo
Vhj:__ZL99GameObject_t1113636619_CustomAttributesCacheGenerator_GameObject_GetComponentInChildren_m2670866854P21CustomAttributesCache
SSd:_NullReferenceException__ctor_m3076065613
arc:__ZN8JSONRead8TransferIfEEvRT_PKc17TransferMetaFlagsb
rYi:__ZL73Enum_t4135868527_CustomAttributesCacheGenerator_Enum_ToObject_m3092348831P21CustomAttributesCache
qch:_Comparison_1_EndInvoke_m3981968715_gshared
Vqd:__ZN21InterfaceFuncInvoker2IP12Il2CppObjectP6Type_tS1_E6InvokeEjP11Il2CppClassS1_S3_S1_
b3e:_X509SubjectKeyIdentifierExtension_Decode_m1505409124
Yma:__ZL23AddGpuProgramParametersR20GpuProgramParametersRKNSt3__26vectorIN9ShaderLab20SerializedSubProgram15MatrixParameterENS1_9allocatorIS5_EEEERKNS2_INS4_15VectorParameterENS6_ISB_EEEEiiP16PropertyNamesSet
BAa:__ZN6prcoreL17RemapGenericFloatI18TexFormatARGBFloat17TexFormatRGBAHalfEEvPKNS_9InnerInfoE
sGf:_String_System_IConvertible_ToUInt16_m2888090399
nM:__ZN11AudioSource21ApplyCachedParametersE12SoundChannel
HUd:_Assembly_InternalGetType_m3065345470
jR:__ZN13Simd4iFactoryIN6detail9FourTupleEEC2Eiiii
rHe:_InternalEnumerator_1__ctor_m3390957028_gshared
V5d:_ResourceSet__ctor_m3356376607
Daf:_PrimeGeneratorBase_get_PrimalityTest_m2487240563
A1c:_PhysicsRaycaster_get_maxRayIntersections_m3887348715
o4i:__ZL56_ParameterInfo_t489405856_CustomAttributesCacheGeneratorP21CustomAttributesCache
L4a:__ZN15SerializeTraitsI33EnlightenTerrainChunksInformationE8TransferI14SafeBinaryReadEEvRS0_RT_
P6b:__ZNK32RendererMaterialAnimationBinding9BindValueER6ObjectRKN11UnityEngine9Animation14GenericBindingERNS3_10BoundCurveE
$xj:__ZL109MaskableGraphic_t3839221559_CustomAttributesCacheGenerator_MaskableGraphic_ParentMaskStateChanged_m1092090553P21CustomAttributesCache
nXe:_Transform_1_Invoke_m1731820209_gshared
dZa:__Z13GetIAnimationv
Kya:__ZL18stbir__support_onef
LFf:_Single_CompareTo_m189772128
Nsc:__Z26Transfer_UnityEngineObjectI9JSONWriteLb0EEvRK29SerializationCommandArgumentsR31RuntimeSerializationCommandInfo
oQe:_DefaultComparer_Compare_m4042058291_gshared
Pcd:_Image_set_overrideSprite_m3213596394
r0a:__ZNSt3__26vectorIN4core12basic_stringIcNS1_20StringStorageDefaultIcEEEE13stl_allocatorIS5_L18MemLabelIdentifier1ELi16EEE6assignINS_11__wrap_iterIPS5_EEEENS_9enable_ifIXaasr21__is_forward_iteratorIT_EE5valuesr16is_constructibleIS5_NS_15iterator_traitsISF_E9referenceEEE5valueEvE4typeESF_SF_
BPc:__ZNSt3__27__sort5IRNS_6__lessIN2UI14DepthSortEntryES3_EEPS3_EEjT0_S7_S7_S7_S7_T_
aLd:_FileLoadException_ToString_m2989457882
auh:_AuthorityKeyIdentifierExtension__ctor_m2197389230
POh:_AudioListener_ClearExtensionProperties_m3849891634
Vyc:_UNITY_FT_DivFix
Zph:_Array_InternalArray__get_Item_TisDecimal_t2948259380_m3511003792_gshared
V6h:__ZNSt3__218uninitialized_copyIPNS_4pairIK10KeyWrapperINS1_IPK11Il2CppImageP11Il2CppClassEEEjEESC_EET0_T_SE_SD_
eDf:_SecurityElement_IsValidAttributeValue_m948345692
Oxc:__ZN19ControllerHitReport15onControllerHitERKN5physx16PxControllersHitE
Ba:invoke_vdd
yn:FUNCTION_TABLE_fiii
K2i:__ZL102MethodInfo_t_CustomAttributesCacheGenerator_MethodInfo_MakeGenericMethod_m1996785325____typeArguments0P21CustomAttributesCache
wPd:_TextWriter_Write_m2252948084
b9b:__Z19RegisterModule_Corev
qce:_AsyncResult_get_CallMessage_m1679778649
bNf:_Array_InternalArray__IEnumerable_GetEnumerator_TisPlayableBinding_t354260709_m1924544205_gshared
eNc:__ZZ29InitializeTextRenderingModulevEN27cleanupAfterLoadRegistrator7ForwardEv
gx:__ZN27AnimationLayerMixerPlayable24ProcessAnimationLayerMixEP33AnimationPlayableEvaluationOutputP35AnimationPlayableEvaluationConstantP32AnimationPlayableEvaluationInputS1_if
Zuf:_CCFixed_FromDateTime_m3894190577
UWb:__Z29PluginsIssueRenderingExtEvent26UnityRenderingExtEventTypePv
Hng:__Z116RuntimeInvoker_RuntimeObject_RuntimeObject_Int32_t2950945753_RuntimeObject_RuntimeObject_RuntimeObject_RuntimeObjectPFvvEPK10MethodInfoPvPS4_
hfd:_RuntimeMethodHandle__ctor_m2229201676_AdjustorThunk
Zge:_MessageFormatter_ReadMethodCall_m2327590823
Q5b:__Z14RandomRotationP9Texture2DPhiiii
pQf:_Array_InternalArray__ICollection_Add_TisUInt16_t2177724958_m3981262878_gshared
Vpf:_Decimal_GetBits_m453754410
$dg:_HashSet_1_Contains_m3173358704_gshared
LHh:_ToggleEvent__ctor_m834619998
vPe:_InternalEnumerator_1_Dispose_m436383441_AdjustorThunk
Dcf:_PKCS1_Encode_v15_m2077073129
j6f:_Dictionary_2_get_Values_m2682483593_gshared
U2g:_Collection_1_set_Item_m4084225937_gshared
OKg:__Z51RuntimeInvoker_OrderBlock_t1585977831_RuntimeObjectPFvvEPK10MethodInfoPvPS4_
wQi:_RectOffset_get_left_m1232181034
LBa:__ZN4gles14UseGLSLProgramER15DeviceStateGLESjbij
SAg:__Z59RuntimeInvoker_Boolean_t97287965_Int32_t2950945753_IntPtr_tPFvvEPK10MethodInfoPvPS4_
KQj:_glDeleteProgram__wrapper
ogc:__Z50Register_UnityEngine_Camera_INTERNAL_get_pixelRectv
Tza:__ZN6prcoreL18BlitFloatToIntegerERK14ImageReferenceRS0_
Sof:_DBNull_System_IConvertible_ToUInt32_m3784627971
ugf:_ClientSessionCache_Add_m964342678
WFa:__ZN13dynamic_arrayI15ComputeShaderCBLj4EE6assignEPKS0_S3_
KNb:__Z13GetIPhysics2Dv
AU:__ZN11UnityEngine15CloudWebService14RestDownloader17OnCompleteContentEv
_3h:__ZN15dense_hashtableINSt3__24pairIK10KeyWrapperINS1_IPK14Il2CppAssemblyP11Il2CppClassEEEjEES9_17ReflectionMapHashIS8_EN14dense_hash_mapIS9_jSD_NS9_14EqualsComparerINS0_8equal_toIS8_EEEENS0_9allocatorISB_EEE9SelectKeyESI_SK_E15insert_noresizeERKSB_
dUi:_Transform_get_localScale_m129152068
nqf:_DivideByZeroException__ctor_m3496959969
ZCa:__ZN26SinglePassStereoSupportExt19AfterDrawCallStereoEv
ete:_ScrollRect_get_layoutPriority_m1584702890
Qa:invoke_viffi
dz:__ZN17AnimationPlayable28UpdateInternalStateRecursiveILi1ELb0EEEvPK35AnimationPlayableEvaluationConstant
$ni:__ZN6il2cpp2gcL10CleanupCCWEPvS1_
bdh:__ZN28GenericInterfaceFuncInvoker2Ii19Vector4_t3319028937S0_E6InvokeEPK10MethodInfoP12Il2CppObjectS0_S0_
Ta:invoke_vifff
wPj:_glGetVertexAttribiv__wrapper
h1d:__ZN23GenericVirtFuncInvoker2IbP12MemberInfo_tP12Il2CppObjectE6InvokeEPK10MethodInfoS3_S1_S3_
Aeh:_Predicate_1_Invoke_m851618236_gshared
A0i:__ZL67IsolatedStorageException_t3468072396_CustomAttributesCacheGeneratorP21CustomAttributesCache
YFb:__ZN20LocalFileSystemWebGL6DeleteER13FileEntryDatab
Pe:_emscripten_glDisableVertexAttribArray
eLf:_Array_InternalArray__ICollection_Remove_TisSingle_t1397266774_m3361324455_gshared
Um:FUNCTION_TABLE_iiiifiiii
Hga:__ZN4core8hash_mapINS_12basic_stringIcNS_20StringStorageDefaultIcEEEE13dynamic_arrayI4PPtrI6SpriteELj4EENS_4hashIS4_EENSt3__28equal_toIS4_EEE12delete_nodesEv
VHe:_InternalEnumerator_1__ctor_m3456047704_gshared
jc:invoke_fifffi
I1g:_Collection_1_System_Collections_IList_Add_m2969482770_gshared
uJ:__ZN4FMOD5Sound15getNumSubSoundsEPi
fwa:__ZN4gles23ClearCurrentFramebufferEP7ApiGLESbbbRK10ColorRGBAffi
Cx:__ZN7mecanim12statemachine20CreateStateWorkspaceEjjjRNS_6memory9AllocatorE
yih:_UnityEvent_1_Invoke_m3604335408_gshared
Mbj:__ZL79Convert_t2465617642_CustomAttributesCacheGenerator_Convert_ToUInt64_m2652538228P21CustomAttributesCache
_e:_emscripten_glDeleteObjectARB
b0c:_EventSystem_RaycastComparer_m3685368675
Vf:_IMG_Load
Brg:__Z131RuntimeInvoker_Void_t1185182177_RuntimeObject_RuntimeObject_Int64_t3736567304_ObjectU26_t2146539884_SerializationInfoU26_t419328957PFvvEPK10MethodInfoPvPS4_
hBa:__ZN6prcoreL27StretchGenericFloatBilinearI18TexFormatARGBFloatEEvPKNS_9InnerInfoE
wkc:__Z53Register_UnityEngine_RenderTexture_Internal_GetHeightv
qwj:__ZL87U3CDelayedDestroyDropdownListU3Ec__Iterator0_t3853912249_CustomAttributesCacheGeneratorP21CustomAttributesCache
LDe:_PKCS12_RemoveCertificate_m1421555398
Iue:_Slider_FindSelectableOnLeft_m1667068522
UAa:__ZN6prcoreL17RemapGenericFloatI17TexFormatRGBAHalf18TexFormatARGBFloatEEvPKNS_9InnerInfoE
zAb:__ZN18StreamedBinaryReadILb1EE21TransferSTLStyleArrayI13dynamic_arrayIN4math12int3_storageELj4EEEEvRT_17TransferMetaFlags
moc:__Z14GetBuiltinSkini
Lde:_MethodDictionary_get_Item_m1201458851
FQ:___cxx_global_var_init_13
$Q:___cxx_global_var_init_10
aR:___cxx_global_var_init_11
Skg:__Z60RuntimeInvoker_SByte_t1669577662_RuntimeObject_RuntimeObjectPFvvEPK10MethodInfoPvPS4_
vFf:_Single_System_IConvertible_ToSingle_m1939829239_AdjustorThunk
H7:___cxx_global_var_init_18
il:_JS_SystemInfo_GetBrowserVersionString
Pjb:__ZN2UI13RectTransform23VirtualRedirectTransferER14SafeBinaryRead
jgb:__ZN24GenerateTypeTreeTransfer8TransferINSt3__26vectorIN4core12basic_stringIcNS3_20StringStorageDefaultIcEEEE13stl_allocatorIS7_L18MemLabelIdentifier13ELi16EEEEEEvRT_PKc17TransferMetaFlags
qYe:_Enumerator_MoveNext_m3045873697_gshared
Gxg:__Z31RuntimeInvoker_Rect_t2360479859PFvvEPK10MethodInfoPvPS4_
fka:__ZNSt3__26vectorIN9ShaderLab20SerializedSubProgramENS_9allocatorIS2_EEE6assignIPS2_EENS_9enable_ifIXaasr21__is_forward_iteratorIT_EE5valuesr16is_constructibleIS2_NS_15iterator_traitsIS9_E9referenceEEE5valueEvE4typeES9_S9_
Zuc:__Z18Transfer_BlittableI8JSONReadLb0E8BitFieldEvRK29SerializationCommandArgumentsR31RuntimeSerializationCommandInfo
kud:_Char_ToString_m3588025615_AdjustorThunk
Vdg:_HashSet_1_CopyTo_m2849056227_gshared
ezb:__ZL17Transfer_GUIStyleI18StreamedBinaryReadILb1EELb0EEvRK29SerializationCommandArgumentsR31RuntimeSerializationCommandInfo
Xye:_ModulusRing_Multiply_m343333088
zLh:__ZL25UnresolvedVirtualCall_149P12Il2CppObject17Color_t2555686324faaPK10MethodInfo
Wha:__ZN9ShaderLab14SerializedPass8TransferI14SafeBinaryReadEEvRT_
epc:__Z71Register_UnityEngine_GUILayoutUtility_INTERNAL_CALL_Internal_MoveWindowv
$O:__ZN12AudioManager16SetListenerPauseEb
agb:__ZNSt3__26vectorIN30RuntimeInitializeOnLoadManager9ClassInfoE13stl_allocatorIS2_L18MemLabelIdentifier13ELi16EEE6assignINS_11__wrap_iterIPS2_EEEENS_9enable_ifIXaasr21__is_forward_iteratorIT_EE5valuesr16is_constructibleIS2_NS_15iterator_traitsISC_E9referenceEEE5valueEvE4typeESC_SC_
SLf:_SetPropertyUtility_SetStruct_TisSingle_t1397266774_m2805350785_gshared
QUf:_StringBuilder_get_Length_m3238060835
Chi:__ZN6il2cpp2vm9Exception25RaiseOutOfMemoryExceptionERKNS_5utils10StringViewIDsEE
reg:_KeyValuePair_2_set_Value_m2953914627_AdjustorThunk
da:invoke_viiiiiiiiiii
GCj:___syscall_ret
Uuh:_DeriveBytes_set_Salt_m1400945044
k2c:_PointerEventData_set_worldNormal_m1888481930
t5c:_CanvasScaler_set_referencePixelsPerUnit_m1768965301
LAh:_AnchorInfo__ctor_m46784903
aff:_CipherSuiteCollection_get_Item_m4188309062
xrh:_SslHandshakeHash_HashFinal_m2573455475
Ebe:_SynchronizationAttribute_ReleaseLock_m1030353464
boh:_Array_swap_TisCustomAttributeNamedArgument_t287865710_m2628186452_gshared
J7a:__ZN11ChannelInfo8TransferI19StreamedBinaryWriteILb0EEEEvRT_
pti:__ZN4utf88internal13validate_nextIPKcEENS0_9utf_errorERT_S5_Rj
yzj:__ZL53ToggleGroup_t123837990_CustomAttributesCacheGeneratorP21CustomAttributesCache
sAf:_SHA1Internal_AddLength_m2737455899
tOb:__ZN14qsort_internal13Partition3WayIP17RODataReplacementi19ROSorterReplacementEENSt3__24pairIT_S6_EES6_S6_T0_T1_
ale:_InputField_CreateCursorVerts_m3585916868
L5f:_KeyValuePair_2_get_Value_m755756747_gshared
whc:__Z34Register_UnityEngine_Gradient_Initv
Mme:_LayoutGroup_OnDidApplyAnimationProperties_m1333813659
HZd:_GenericTypeParameterBuilder_IsArrayImpl_m67259334
Sae:_Context_ToString_m1073616138
uWd:_DefaultMemberAttribute_get_MemberName_m3384235354
H6a:__ZN13ScreenManager23SetIsOrientationEnabledE18EnabledOrientationb
fie:_InputField_EnforceTextHOverflow_m3400115777
FOg:_List_1_System_Collections_IEnumerable_GetEnumerator_m1225415523_gshared
Pyg:__Z41RuntimeInvoker_TextureWrapMode_t584250749PFvvEPK10MethodInfoPvPS4_
Jcb:__ZN9InputAxis8TransferI19StreamedBinaryWriteILb0EEEEvRT_
sFd:__Z33il2cpp_codegen_check_sub_overflowxx
Zfj:__ZL98NativeMethodAttribute_t4187428193_CustomAttributesCacheGenerator_U3CIsThreadSafeU3Ek__BackingFieldP21CustomAttributesCache
AIj:dynCall_viififiii
_ie:_InputField_get_caretColor_m2973283772
vkh:_ListPool_1_Release_m591299672_gshared
jbj:__ZL79Convert_t2465617642_CustomAttributesCacheGenerator_Convert_ToUInt16_m3116648921P21CustomAttributesCache
ype:_RectMask2D_get_Canvas_m9990042
ZNe:_InternalEnumerator_1_MoveNext_m1096095130_AdjustorThunk
d2g:_Collection_1_RemoveAt_m226266097_gshared
Oih:_UnityEvent_1_AddListener_m1590149461_gshared
Rrj:__ZL63GUISkin_t1244372282_CustomAttributesCacheGenerator_m_ScrollViewP21CustomAttributesCache
qrh:_Resources_ConvertObjects_TisRuntimeObject_m1486780300_gshared
xsf:_Double_System_IConvertible_ToInt16_m3591921965_AdjustorThunk
sch:_Comparison_1_Invoke_m2925518770_gshared
KQa:__ZN10GameObject23VirtualRedirectTransferER18StreamedBinaryReadILb0EE
PGh:_SymmetricTransform__ctor_m2693628991
MTd:_ObjectDisposedException__ctor_m1034312941
qg:_glFrontFace
CMd:_FileSystemInfo_InternalRefresh_m1700260373
r9c:_Dropdown_OnSubmit_m1624226516
sQi:_RectOffset__ctor_m3236153262
iZh:__ZNK15dense_hashtableINSt3__24pairIK10KeyWrapperIPK19Il2CppGenericMethodEPK26Il2CppGenericMethodIndicesEES6_N6il2cpp8metadata23Il2CppGenericMethodHashEN14dense_hash_mapIS6_SA_SE_NS6_14EqualsComparerINSD_26Il2CppGenericMethodCompareEEENS0_9allocatorISB_EEE9SelectKeyESI_SK_E12test_deletedEj
Aoe:_MaskUtilities_IsDescendantOrSelf_m2247511982
Itg:__Z51RuntimeInvoker_UInt16_t2177724958_SByte_t1669577662PFvvEPK10MethodInfoPvPS4_
pTb:__ZNSt3__26vectorI16ShadowCasterData13stl_allocatorIS1_L18MemLabelIdentifier2ELi16EEE21__push_back_slow_pathIKS1_EEvRT_
Sjg:__Z46RuntimeInvoker_Double_t594665363_RuntimeObjectPFvvEPK10MethodInfoPvPS4_
ONc:__Z51Register_UnityEngine_TextGenerator_GetLinesInternalv
OXe:_Enumerator_get_Current_m2250080680_AdjustorThunk
AHh:_AesManaged_set_Key_m767972181
uEd:_Int16_System_IConvertible_ToBoolean_m1656400658_AdjustorThunk
rsd:_Byte_System_IConvertible_ToInt64_m285584218
yta:__ZN13GfxDeviceGLES22SetScissorRectPlatformERK5RectTIiE
jAa:__ZN6prcoreL17RemapGenericFloatI17TexFormatRGBFloat18TexFormatRGBAFloatEEvPKNS_9InnerInfoE
Yxd:_DictionaryEntry_t3123975638_marshal_pinvoke_cleanup
JPf:_Array_InternalArray__ICollection_Add_TisDictionaryEntry_t3123975638_m665385049_gshared
JQd:_MissingMemberException__ctor_m2707802176
bYc:__ZN20UnityConnectSettings10InitializeEv
pQh:_Canvas_get_renderMode_m841659411
R4a:__ZN15SerializeTraitsI13dynamic_arrayI28EnlightenRendererInformationLj8EEE19ResizeSTLStyleArrayERS2_i
ved:_SerializationInfo_GetValue_m42271953
sG:__ZN9AudioClip11CreateSoundEv
xai:__ZN14dense_hash_mapI10KeyWrapperINSt3__24pairIPK9FieldInfoP11Il2CppClassEEEj17ReflectionMapHashIS8_ENS9_14EqualsComparerINS1_8equal_toIS8_EEEENS1_9allocatorINS2_IKS9_jEEEEEC2EjRKSB_RKSF_
V5h:__ZNK15dense_hashtableINSt3__24pairIK10KeyWrapperINS1_IPK10MethodInfoP11Il2CppClassEEEjEES9_17ReflectionMapHashIS8_EN14dense_hash_mapIS9_jSD_NS9_14EqualsComparerINS0_8equal_toIS8_EEEENS0_9allocatorISB_EEE9SelectKeyESI_SK_E13find_positionERSA_
GKi:_Logger_get_filterLogType_m1177392786
Fsa:__ZN13GfxDeviceGLES20CreateComputeProgramEPKhj
wXc:__ZN11UnityEngine7Connect16PersistentValues13RestoreValuesER8JSONRead
rZi:__ZL65RuntimeArray_CustomAttributesCacheGenerator_Array_Sort_m182264525P21CustomAttributesCache
Byf:_Guid_BaseToString_m3600006650
qOa:__ZN20ArchiveStorageReader31TryToReadDirectoryFromBlockDataEyPKvj
v$c:_PointerEventData_set_pointerEnter_m3256217464
Cki:__ZN6il2cpp2vmL11GetIdentityEP14Il2CppIUnknown
Wwi:_GC_push_gc_structures
jif:_TlsServerCertificate_ProcessAsTls1_m819212276
R7g:_ReadOnlyCollection_1_System_Collections_Generic_ICollectionU3CTU3E_Clear_m2102011098_gshared
aph:_Dictionary_2_Do_ICollectionCopyTo_TisRuntimeObject_m3942192587_gshared
_1h:__ZN6il2cpp6icalls8mscorlib6SystemL8IsPublicEPK9EventInfo
dtj:__ZL139RectTransformUtility_t1743242446_CustomAttributesCacheGenerator_RectTransformUtility_INTERNAL_CALL_RectangleContainsScreenPoint_m1214874141P21CustomAttributesCache
Raf:_PrimalityTests_RabinMillerTest_m2544317101
gDa:__Z22GetShaderCachePathGLESv
Z9e:_Kernel_DwordDivMod_m1540317819
Mfh:_CachedInvokableCall_1_Invoke_m931536002_gshared
fWg:_Enumerator_System_Collections_IEnumerator_get_Current_m1399273671_gshared
o0d:_TypeBuilder_GetPropertyImpl_m3104345782
b8a:__ZNSt3__213__stable_sortIRNS_4lessI4PPtrI11SpriteAtlasEEENS_11__wrap_iterIPS4_EEEEvT0_SA_T_NS_15iterator_traitsISA_E15difference_typeEPNSD_10value_typeEi
IId:_Int64_ToString_m2085073918_AdjustorThunk
$0d:_FieldInfo_GetFieldOffset_m1356898082
PKg:__Z36RuntimeInvoker_Enumerator_t652329154PFvvEPK10MethodInfoPvPS4_
UOf:_Array_InternalArray__IndexOf_TisTypeTag_t3541821701_m2988972362_gshared
Z8:__ZN8keywords6CreateEPKc
XSh:__ZL7log2_32j
S:Math_imul
Rfg:_Enumerator_Dispose_m786980821_AdjustorThunk
jFg:__Z49RuntimeInvoker_Boolean_t97287965_Byte_t1134296376PFvvEPK10MethodInfoPvPS4_
Eif:_TlsServerKeyExchange_Update_m453798279
U5a:__ZN11PlayerPrefs6GetIntERKN4core12basic_stringIcNS0_20StringStorageDefaultIcEEEEi
hff:_CipherSuiteCollection_System_Collections_IList_IndexOf_m1361500977
Bve:_Text_set_fontStyle_m648756124
wNc:__Z45TextGenerator_CUSTOM_INTERNAL_get_rectExtentsP12Il2CppObjectP5RectTIfE
hyg:__Z50RuntimeInvoker_Touch_t1921856868_Int32_t2950945753PFvvEPK10MethodInfoPvPS4_
glf:_DateTime__ctor_m2135476686_AdjustorThunk
Ree:_SoapFieldAttribute_IsInteropXmlElement_m2819415462
NP:__ZN11AudioSource12SetAudioClipEP9AudioClip
jRi:_RectTransform_GetLocalCorners_m823861473
Fwd:_SynchronizedArrayListWrapper_GetEnumerator_m1579424644
hag:_EqualityComparer_1__ctor_m3717935020_gshared
Pch:_Comparison_1_EndInvoke_m2734814639_gshared
u_:__ZN18ScriptingArguments9AddObjectE18ScriptingObjectPtr
MRc:__Z39CanvasGroup_Get_Custom_PropInteractableP12Il2CppObject
IR:__ZN11UnityEngine15CloudWebService16SessionContainerD2Ev
GXc:__ZL38InitializeUnityConnectScriptingClassesv
ZMh:__ZL25UnresolvedVirtualCall_229P12Il2CppObjectPK10MethodInfo
CXb:__ZN13ProbeRenderer8ConvolveEbijjb
tGh:_GUIUtility_set_systemCopyBuffer_m608712289
zwa:__ZN17GenericDynamicVBOC2ER9GfxDevice13GfxBufferModejj
nnc:__ZZN10GUIManager14InitGUIManagerEvEN41PreUpdateIMGUISendQueuedEventsRegistrator7ForwardEv
e2e:_ServicePointManager_get_SecurityProtocol_m966397919
dDa:__ZN13dynamic_arrayIN18GlslGpuProgramGLES9GLProgramELj4EE6insertEPS1_jRKS1_
N9f:_EqualityComparer_1_System_Collections_IEqualityComparer_Equals_m2639327655_gshared
ivf:_CCGregorianCalendar_day_from_fixed_m1674702403
$S:__ZN11UnityEngine15CloudWebService17SessionEventQueue10PurgeItemsEj
gYb:__ZN6Camera16StandaloneRenderENS_10RenderFlagEP6ShaderRKN4core12basic_stringIcNS3_20StringStorageDefaultIcEEEE
H4e:_X509Chain_PrepareForNextCertificate_m3691934993
Z1a:__ZNK12CubemapArray13GetIsReadableEv
yyb:__Z18Transfer_BlittableI18StreamedBinaryReadILb1EELb1EtEvRK29SerializationCommandArgumentsR31RuntimeSerializationCommandInfo
jrj:__ZL58EventType_t3528516131_CustomAttributesCacheGenerator_keyUpP21CustomAttributesCache
w6i:__ZL57X509Certificate_t713131622_CustomAttributesCacheGeneratorP21CustomAttributesCache
Vab:__ZN12BoneWeights48TransferI19StreamedBinaryWriteILb0EEEEvRT_
Kqa:__ZN9GfxDevice20DeallocRenderSurfaceEP17RenderSurfaceBase
BZe:_ValueCollection_System_Collections_Generic_ICollectionU3CTValueU3E_get_IsReadOnly_m1110422367_gshared
bna:__ZN20GpuProgramParameters36UpdatePrepareValuesMaximumBufferSizeEv
kPh:_AudioSourceExtension_Stop_m387892536
w6g:_ReadOnlyCollection_1_System_Collections_IList_RemoveAt_m2129436005_gshared
Owe:_SimpleCollator_GetContraction_m2205549079
xcg:_EqualityComparer_1_get_Default_m168544645_gshared
A6g:_ReadOnlyCollection_1_System_Collections_IList_get_IsReadOnly_m3888539454_gshared
Dda:__ZN13RuntimeStaticI10WatermarksLb0EE13StaticDestroyEPv
zbf:_ARC4Managed_GenerateKey_m1607343060
ZQf:_Array_InternalArray__ICollection_CopyTo_TisDecimal_t2948259380_m2749946216_gshared
Fjf:_ReceiveRecordAsyncResult_get_ResultingBuffer_m1839161335
jSa:__ZN12BaseRenderer23RendererBecameInvisibleEv
YYd:_EnumBuilder_IsPointerImpl_m2644353933
Nbe:_EnvoyInfo__ctor_m276600651
jKc:__ZN20TextRenderingPrivate8FontImpl13CharacterInfo8TransferI18StreamedBinaryReadILb0EEEEvRT_
Nvb:__Z29Transfer_Blittable_ArrayFieldI24GenerateTypeTreeTransferfEvRT_R9ArrayInfoRK23StaticTransferFieldInfo
Dba:__ZNSt3__26__treeINS_12__value_typeIN4core12basic_stringIcNS2_20StringStorageDefaultIcEEEES6_EENS_19__map_value_compareIS6_S7_NS_4lessIS6_EELb1EEE13stl_allocatorIS7_L18MemLabelIdentifier13ELi16EEE7destroyEPNS_11__tree_nodeIS7_PvEE
YIi:_UnityEvent_FindMethod_Impl_m2312362624
wZb:__ZN19CustomRenderTexture9AddParentE4PPtrIS_E
Y6:__ZN8Gradient8TransferI14SafeBinaryReadEEvRT_
AEi:_Vector3_GetHashCode_m2879461828
DFf:_Single_System_IConvertible_ToUInt64_m3299129161_AdjustorThunk
q0a:__ZNSt3__26vectorIN4core12basic_stringIcNS1_20StringStorageDefaultIcEEEE13stl_allocatorIS5_L18MemLabelIdentifier1ELi16EEE7reserveEj
atj:__ZL93CanvasRenderer_t2598313366_CustomAttributesCacheGenerator_CanvasRenderer_set_cull_m4222419074P21CustomAttributesCache
iZe:_ValueCollection_System_Collections_Generic_ICollectionU3CTValueU3E_Contains_m3110959791_gshared
L1e:_IPv6Address_AsIPv4Int_m844941024
iUd:_Random__ctor_m3209279193
djf:_RecordProtocol__cctor_m1280873827
KLi:_Matrix4x4_MultiplyPoint_m1575665487_AdjustorThunk
e7d:_Marshal__cctor_m4007734770
Qvi:_GC_new_free_list_inner
TCe:_SymmetricTransform_Random_m2004892672
gwg:__Z79RuntimeInvoker_Void_t1185182177_RuntimeObject_Byte_t1134296376_Byte_t1134296376PFvvEPK10MethodInfoPvPS4_
Mcf:_EncryptedPrivateKeyInfo_get_IterationCount_m2912222740
z_i:__ZL72RuntimeCompatibilityAttribute_t1169614002_CustomAttributesCacheGeneratorP21CustomAttributesCache
Y0i:__ZL63PathTooLongException_t2919094560_CustomAttributesCacheGeneratorP21CustomAttributesCache
ddf:_RSAManaged_DecryptValue_m1804388365
kFe:_InternalEnumerator_1_System_Collections_IEnumerator_get_Current_m2980550840_AdjustorThunk
Nvc:__ZN8JSONRead8TransferI10RectOffsetEEvRT_PKc17TransferMetaFlagsb
Ali:__ZNK15dense_hashtableINSt3__24pairIK10KeyWrapperINS1_IPKcS4_EEEiEES6_24NamespaceAndNamePairHashN14dense_hash_mapIS6_iS9_NS6_14EqualsComparerI26NamespaceAndNamePairEqualsEENS0_9allocatorIS8_EEE9SelectKeyESD_SF_E12test_deletedERK24dense_hashtable_iteratorIS8_S6_S9_SH_SD_SF_E
KS:__ZN9JSONWrite8TransferIN11UnityEngine15CloudWebService14DataErrorEvent15FileErrorDetailEEEvRT_PKc17TransferMetaFlags
d$g:_Collection_1_ClearItems_m2728738230_gshared
tHd:_Int32_Parse_m2087562008
mXa:__Z21ClearFenceWithoutSyncR8JobFence
QNf:_Array_compare_TisVector4_t3319028937_m1974066282_gshared
T3d:_MonoProperty_GetAccessors_m412928203
$jh:_TweenRunner_1_Start_m3757154622_gshared
yJ:__ZN12SoundManager20RegisterModifiedClipEP10SampleClip
b8d:_RemotingServices_GetClientChannelSinkChain_m1499550585
IUd:_Assembly_FillName_m1660001542
rLh:__ZL25UnresolvedVirtualCall_141P12Il2CppObject19Vector2_t2156229523PK10MethodInfo
d4i:__ZL56_EventBuilder_t2558055199_CustomAttributesCacheGeneratorP21CustomAttributesCache
Nre:_ScrollRect_get_decelerationRate_m74583805
SAf:_SHA384Managed_processBlock_m1272529332
cM:__ZN11AudioSource4PlayEd
mud:_Char_ToString_m278452217_AdjustorThunk
bXh:__ZN15dense_hashtableI10KeyWrapperIPK17Il2CppGenericInstES4_N6il2cpp8metadata21Il2CppGenericInstHashEN14dense_hash_setIS4_S7_NS4_14EqualsComparerINS6_24Il2CppGenericInstCompareEEENSt3__29allocatorIS4_EEE8IdentityESB_SE_E13set_empty_keyERKS4_
ilg:__Z63RuntimeInvoker_Char_t3634460470_Int16_t2552820387_RuntimeObjectPFvvEPK10MethodInfoPvPS4_
fCd:_Convert_ToDouble_m2924063577
Vlb:__ZNK20LocalFileSystemPosix8IsHiddenERK13FileEntryData
ZOe:_InternalEnumerator_1_System_Collections_IEnumerator_Reset_m1601477281_AdjustorThunk
kWd:_CustomAttributeNamedArgument_ToString_m1488801416_AdjustorThunk
XYe:_ValueCollection_System_Collections_Generic_ICollectionU3CTValueU3E_Remove_m3673494156_gshared
Ysj:__ZL113CanvasRenderer_t2598313366_CustomAttributesCacheGenerator_CanvasRenderer_SplitUIVertexStreamsInternal_m3280623346P21CustomAttributesCache
S2a:__ZN7Cubemap23VirtualRedirectTransferER18StreamedBinaryReadILb0EE
DOe:_InternalEnumerator_1__ctor_m1739091604_gshared
Mic:__ZNSt3__27__sort4IRNS_6__lessI11KeyframeTplIfES3_EEPS3_EEjT0_S7_S7_S7_T_
MGc:_Read_CVT
SL:__ZN11AudioSource23VirtualRedirectTransferER19StreamedBinaryWriteILb0EE
Qwe:_SimpleCollator_GetTailContraction_m2107754083
Bub:__ZL26Transfer_SimpleNativeClassI24GenerateTypeTreeTransfer17AnimationCurveTplIfELb0EEvRK29SerializationCommandArgumentsR31RuntimeSerializationCommandInfo
Nwc:__ZN8JSONRead21TransferSTLStyleArrayI13dynamic_arrayI9BoundsIntLj4EEEEvRT_17TransferMetaFlags
Z4a:__ZN24GenerateTypeTreeTransfer8TransferI13dynamic_arrayI33EnlightenTerrainChunksInformationLj4EEEEvRT_PKc17TransferMetaFlags
Ylf:_DateTimeFormatInfo__ctor_m3106345035
Zff:_TlsServerKeyExchange_verifySignature_m3412856769
n9f:_EqualityComparer_1_System_Collections_IEqualityComparer_GetHashCode_m4137147946_gshared
_ca:__ZN16LightmapSettings20DidChangeActiveSceneEP10UnitySceneS1_
bwb:__Z18Transfer_BlittableI19StreamedBinaryWriteILb0EELb0EN4math12int3_storageEEvRK29SerializationCommandArgumentsR31RuntimeSerializationCommandInfo
sBj:__ZL59g_AssemblyU2DCSharp_Assembly_CustomAttributesCacheGeneratorP21CustomAttributesCache
B2h:__ZN6il2cpp5utils9PathUtils8BasenameIcEENSt3__212basic_stringIT_NS3_11char_traitsIS5_EENS3_9allocatorIS5_EEEERKSA_
Rfe:_RemotingProxy__cctor_m4096951805
Soc:__Z35Register_UnityEngine_Event_get_typev
Nhi:__ZN6il2cpp2vm9Exception23GetInvalidCastExceptionERKNS_5utils10StringViewIDsEE
myj:__ZL64Scrollbar_t1494447233_CustomAttributesCacheGenerator_m_DirectionP21CustomAttributesCache
ez:__ZN8Animator28BuildControllerPlayableCacheEv
a5i:__ZL48Header_t549724581_CustomAttributesCacheGeneratorP21CustomAttributesCache
Fsj:__ZL88CanvasGroup_t4083511760_CustomAttributesCacheGenerator_CanvasGroup_get_alpha_m2918269489P21CustomAttributesCache
KAg:__Z36RuntimeInvoker_EventType_t3528516131PFvvEPK10MethodInfoPvPS4_
bZ:__Z63ThreadAndSerializationSafeCheckGetMonoBehaviourBeingTransferredv
Xrf:_StackTrace__ctor_m206492268
CNg:_List_1_set_Item_m4224739467_gshared
lng:__Z74RuntimeInvoker_Int32_t2950945753_RuntimeObject_RuntimeObject_RuntimeObjectPFvvEPK10MethodInfoPvPS4_
q7c:_ColorTween_set_startColor_m2562993758_AdjustorThunk
aXd:_ConstructorBuilder_get_Name_m2426555260
sic:__Z37Register_UnityEngine_Input_GetAxisRawv
Odj:__ZL80ModulusRing_t596511505_CustomAttributesCacheGenerator_ModulusRing_Pow_m729002192P21CustomAttributesCache
Ozh:_Parser_ParseCharacterClass_m4285351396
cDd:_Convert_ToSByte_m2653418303
rzd:_SyncHashtable__ctor_m2449935938
QL:__ZN11AudioSource5ResetEv
cAf:_RSAPKCS1SignatureFormatter_SetKey_m2935054088
TNb:__ZN12ImageFilters27SetSurfaceUseResolvedBufferEP13RenderTextureb
q8a:__ZN14Texture2DArray23VirtualRedirectTransferER18StreamedBinaryReadILb0EE
pWf:_UTF7Encoding_GetByteCount_m209415911
Gjb:__ZN2UI13RectTransform13AwakeFromLoadE17AwakeFromLoadMode
uCh:_RegularExpression_Compile_m2385682508
svf:_CompareInfo__cctor_m1837489679
Zhj:__ZL90GameObject_t1113636619_CustomAttributesCacheGenerator_GameObject_get_transform_m1369836730P21CustomAttributesCache
PSb:__ZN14qsort_internal30FindAndMovePivotToLastPositionIP20ShadowCasterSortDatai26ShadowCasterSortDataSorterEEvT_S4_T0_T1_
HXh:__ZNK15dense_hashtableI10KeyWrapperIPK19Il2CppGenericMethodES4_N6il2cpp8metadata23Il2CppGenericMethodHashEN14dense_hash_setIS4_S7_NS4_14EqualsComparerINS6_26Il2CppGenericMethodCompareEEENSt3__29allocatorIS4_EEE8IdentityESB_SE_E3endEv
Znb:__Z18Transfer_BlittableI14SafeBinaryReadLb1EiEvRK29SerializationCommandArgumentsR31RuntimeSerializationCommandInfo
N4e:_X509ExtensionEnumerator_get_Current_m256207749
a8:__GLOBAL__sub_I_modules_profiler_public_0_cpp
rfh:_Predicate_1__ctor_m3829092036_gshared
gib:__ZN17PersistentManager13GetAllFileIDsERKN4core12basic_stringIcNS0_20StringStorageDefaultIcEEEER13dynamic_arrayIxLj8EE
O8i:__ZL83StringBuilder_t_CustomAttributesCacheGenerator_StringBuilder_AppendLine_m1438862993P21CustomAttributesCache
Dpd:_Array_Sort_m182264525
sme:_LayoutGroup_set_padding_m282562135
xXg:_Collection_1_System_Collections_IList_get_IsReadOnly_m773226719_gshared
EVd:_Default_IsArrayAssignable_m953489228
mD:__ZNK4PPtrI8RendererEcvPS0_Ev
gdi:_il2cpp_field_get_offset
O0f:_UInt16_ToString_m355311020_AdjustorThunk
xjd:_RC2__ctor_m1146135664
Bgh:_InvokableCall_1_remove_Delegate_m667188944_gshared
Hbe:_SynchronizedClientContextSink__ctor_m4129963630
Ek:_glGetStringi
PIf:_DecoderExceptionFallback_CreateFallbackBuffer_m1133375601
ymi:__ZNK15dense_hashtableI10KeyWrapperIP18Il2CppGenericClassES3_N6il2cpp8metadata22Il2CppGenericClassHashEN14dense_hash_setIS3_S6_NS3_14EqualsComparerINS5_25Il2CppGenericClassCompareEEENSt3__29allocatorIS3_EEE8IdentityESA_SD_E10test_emptyERK30dense_hashtable_const_iteratorIS3_S3_S6_SF_SA_SD_E
WTe:_Enumerator_get_CurrentKey_m889650866_gshared
j1a:__ZNSt3__26__treeINS_12__value_typeIN9ShaderLab16FastPropertyNameEN18UnityPropertySheet11UnityTexEnvEEENS_19__map_value_compareIS3_S6_NS_4lessIS3_EELb1EEENS_9allocatorIS6_EEE12__find_equalIS3_EERPNS_16__tree_node_baseIPvEENS_21__tree_const_iteratorIS6_PNS_11__tree_nodeIS6_SG_EEiEESJ_RKT_
k9a:__ZN18StreamedBinaryReadILb0EE21TransferSTLStyleArrayI13dynamic_arrayI8Vector4fLj4EEEEvRT_17TransferMetaFlags
_Re:_Comparer_1_get_Default_m1513846993_gshared
iDe:_EncryptedData_get_EncryptionAlgorithm_m1297902161
owj:__ZL67OptionDataList_t1438173104_CustomAttributesCacheGenerator_m_OptionsP21CustomAttributesCache
xA:__ZN8Animator9WriteStepEy
nTe:_Enumerator_VerifyCurrent_m829026141_gshared
U9b:__ZN16PropertyAccessorC2Ev
b6a:__ZNSt3__23mapIN4core12basic_stringIcNS1_20StringStorageDefaultIcEEEE9PrefValueNS_4lessIS5_EENS_9allocatorINS_4pairIKS5_S6_EEEEEixERSB_
Wyb:__Z35Transfer_Blittable_FixedBufferFieldI18StreamedBinaryReadILb1EEaEvRK29SerializationCommandArgumentsR31RuntimeSerializationCommandInfo
o9b:__ZN15DirectorManager22ConstructPlayableGraphEv
lyj:__ZL65Scrollbar_t1494447233_CustomAttributesCacheGenerator_m_HandleRectP21CustomAttributesCache
t6a:__ZN13ScreenManager16SetScreenTimeoutEi
ctb:__Z18Transfer_BlittableI17RemapPPtrTransferLb0EdEvRK29SerializationCommandArgumentsR31RuntimeSerializationCommandInfo
BYg:_Collection_1_ConvertItem_m1743542180_gshared
DNc:__Z38Register_UnityEngine_Font_HasCharacterv
uKg:__Z68RuntimeInvoker_Boolean_t97287965_Int16_t2552820387_Int16_t2552820387PFvvEPK10MethodInfoPvPS4_
MWb:__Z35IntersectSpherePlaneBoundsOptimizedRKN4math7_float4EPS1_i
jzf:_RNGCryptoServiceProvider__cctor_m3587754670
VJe:_InternalEnumerator_1_MoveNext_m1728532725_AdjustorThunk
Uwh:_X509Crl_get_IssuerName_m1792797338
DMg:_List_1_get_Count_m241572196_gshared
mpi:__ZN6il2cpp2os5posix15PosixWaitObject13InterruptWaitEv
xca:__Z22CleanupLODGroupManagerPv
Ooc:__Z21Event_CUSTOM_PopEventP12Il2CppObject
ol:_glUniform3fv
JBi:__ZNK6il2cpp8metadata24Il2CppGenericInstCompareclERK10KeyWrapperIPK17Il2CppGenericInstES8_
efb:__ZNSt3__218__insertion_sort_3IRN15ResourceManager10Dependency6SorterEPS2_EEvT0_S6_T_
g5e:_X509ChainElement_Set_m655180762
GMi:_MonoBehaviour_StopCoroutine_m615723318
QOi:_Quaternion_GetHashCode_m2636680144
ARb:__ZNK16LightmapSettings31GetRealtimeLightmapDecodeValuesEv
SK:__ZN5audio5mixer12SetSuspendedERNS0_16AudioMixerMemoryEb
_ib:__ZN17PersistentManager21UnloadNonDirtyStreamsEv
FVf:_UnicodeDecoder__ctor_m3606046165
lsg:__Z96RuntimeInvoker_Int32_t2950945753_RuntimeObject_Int32_t2950945753_RuntimeObject_Int32_t2950945753PFvvEPK10MethodInfoPvPS4_
_Ji:_Input_GetButtonDown_m3074252807
yQh:_Canvas_get_overrideSorting_m2740418462
NYf:_Scheduler__ctor_m3313141270
r9a:__ZN12ImageFilters4BlitER17ShaderPassContextP7TextureP13RenderTextureiPK18SharedMaterialDataPKcP6ShaderiNS_9BlitFlagsE11CubemapFaceRK8Vector2fSH_
pHf:_String_LastIndexOf_m3451222878
Gfj:__ZL80Enumerable_t538148348_CustomAttributesCacheGenerator_Enumerable_Where_m264777709P21CustomAttributesCache
Kzj:__ZL69CanvasScaler_t2767979955_CustomAttributesCacheGenerator_m_ScaleFactorP21CustomAttributesCache
k9d:_ConfigHandler_CheckPath_m3079311646
jT:__ZN11UnityEngine15CloudWebService10RestClientINS0_23WebRequestRestHeaderMapEED2Ev
Kdh:_U3CCreateWhereIteratorU3Ec__Iterator1D_1__ctor_m1723214851_gshared
Kl:_emscripten_glDepthMask
V7d:_RemotingServices_CreateClientProxy_m3886727610
Oxa:__ZN4crnd25static_huffman_data_model22prepare_decoder_tablesEv
S3a:__ZN9Texture2D23VirtualRedirectTransferER17RemapPPtrTransfer
_Di:_AssetBundleRequest_t699759206_marshal_pinvoke
y7f:_DefaultComparer__ctor_m1292755885_gshared
ijf:_RecordProtocol_GetMessage_m2086135164
Nnc:__Z23GUIStatePopDisplayIndexv
dBb:__Z18Transfer_BlittableI18StreamedBinaryReadILb0EELb0E10ColorRGBAfEvRK29SerializationCommandArgumentsR31RuntimeSerializationCommandInfo
dda:__Znaj
iRj:_emscripten_glEnableClientState__wrapper
Pnj:__ZL60PlayableBehaviour_t4203540982_CustomAttributesCacheGeneratorP21CustomAttributesCache
L9:__ZN17MessageIdentifierC2EPKcNS_7OptionsEPKN5Unity4TypeES1_
klg:__Z45RuntimeInvoker_Void_t1185182177_RuntimeObjectPFvvEPK10MethodInfoPvPS4_
X7a:__ZN13dynamic_arrayI4PPtrI6SpriteELj4EE9push_backERKS2_
yMi:_Mesh_SetTriangles_m1523451247
sFf:_Single_System_IConvertible_ToSByte_m1208276900
cmh:_Array_InternalArray__set_Item_TisVector4_t3319028937_m757305038_gshared
gSa:__ZN11GameManager15ThreadedCleanupEv
Eqg:__Z105RuntimeInvoker_Void_t1185182177_RuntimeObject_RuntimeObject_RuntimeObject_RuntimeObject_Int32_t2950945753PFvvEPK10MethodInfoPvPS4_
GYe:_ValueCollection_System_Collections_Generic_ICollectionU3CTValueU3E_Add_m3298059628_gshared
Flg:__Z64RuntimeInvoker_RuntimeObject_Int16_t2552820387_Int16_t2552820387PFvvEPK10MethodInfoPvPS4_
zQ:__Z55Register_UnityEngine_AudioSource_get_spatializeInternalv
dLa:__ZN14SafeBinaryRead8TransferI14ConstantStringEEvRT_PKc17TransferMetaFlags
N0e:__ZN28GenericInterfaceFuncInvoker3IbP26X509Certificate_t713131622P20X509Chain_t194917408iE6InvokeEPK10MethodInfoP12Il2CppObjectS1_S3_i
eMb:__ZNK6Camera16GetStereoEnabledEv
Fej:__ZL90HttpWebRequest_t1669436515_CustomAttributesCacheGenerator_HttpWebRequest__ctor_m1789065007P21CustomAttributesCache
mvg:__Z72RuntimeInvoker_Int32_t2950945753_TimeSpan_t881159249_TimeSpan_t881159249PFvvEPK10MethodInfoPvPS4_
Jjf:_SendRecordAsyncResult_SetComplete_m153213906
Hna:__ZL24FindBelongingStructParamRPKcRNSt3__26vectorIN9ShaderLab20SerializedSubProgram14ConstantBufferENS2_9allocatorIS6_EEEE
r6b:__ZN12LightManager15InitializeClassEv
_Yf:_WaitHandle__cctor_m4242752477
p$a:__ZN9ShaderLab11shaderprops16GetComputeBufferEPK19ShaderPropertySheetS3_NS_16FastPropertyNameE
Nti:__ZN6il2cpp6icalls8mscorlib6System10Reflection10MethodBase31GetMethodFromHandleInternalTypeEii
K_:__ZN18ScriptingArgumentsC2Ev
WEi:_Vector3_op_Equality_m4231250055
T3f:_Dictionary_2_System_Collections_IDictionary_get_Item_m1524611028_gshared
FMj:_emscripten_glBlendFuncSeparate__wrapper
Aqj:__ZL68GUISettings_t1774757634_CustomAttributesCacheGenerator_m_CursorColorP21CustomAttributesCache
EKd:_FileSystemInfo__ctor_m3769019897
Gqh:_Array_InternalArray__get_Item_TisContentType_t1787303396_m421427711_gshared
SPi:_Rect_get_xMin_m581135837_AdjustorThunk
Rua:__Z17HasSampledTexture14GraphicsFormat13formatSupport
tNb:__ZNK25CameraStackRenderingState27GetStereoImageEffectTextureEb
Rid:_HMACSHA384__ctor_m1677515580
fzf:_RIPEMD160Managed_J_m1336489154
sp:__ZN8Vector3f8TransferI14SafeBinaryReadEEvRT_
K$h:__ZN6il2cpp6icalls6System6System3Net7Sockets6Socket7ReceiveEiP11Il2CppArrayiiNS4_11SocketFlagsEPi
wo:FUNCTION_TABLE_ii
$Ra:__ZN10TagManager8TransferI18StreamedBinaryReadILb0EEEEvRT_
K$g:_Collection_1_System_Collections_IList_get_IsReadOnly_m2202364665_gshared
nsc:__Z18Transfer_BlittableI9JSONWriteLb0E8BitFieldEvRK29SerializationCommandArgumentsR31RuntimeSerializationCommandInfo
MMd:_MemoryStream_set_Capacity_m1773624579
qei:__ZNK15dense_hashtableINSt3__24pairIK10KeyWrapperINS1_IP11Il2CppClassjEEES4_EES6_N6il2cpp8metadata14ArrayClassHashEN14dense_hash_mapIS6_S4_SB_NS6_14EqualsComparerINSA_17ArrayClassCompareEEENS0_9allocatorIS8_EEE9SelectKeyESF_SH_E10test_emptyEj
Vue:_SpriteState_set_pressedSprite_m3368686500_AdjustorThunk
Ria:__ZNSt3__26vectorIN9ShaderLab20SerializedSubProgram15StructParameterENS_9allocatorIS3_EEE8__appendEj
tb:invoke_diiii
lLj:b47
rxg:__Z95RuntimeInvoker_Void_t1185182177_RuntimeObject_RuntimeObject_SByte_t1669577662_SByte_t1669577662PFvvEPK10MethodInfoPvPS4_
FMa:__Z24CreateDirectoryRecursiveRKN4core12basic_stringIcNS_20StringStorageDefaultIcEEEE
ZKj:b41
lla:__ZN9ShaderLab20SerializedSubProgram8TransferI18StreamedBinaryReadILb0EEEEvRT_
ykf:_SslClientStream_get_HaveRemoteValidation2Callback_m2858953511
YKj:b40
hga:__ZN19ThreadSpecificValueIP14StackAllocatorE15ReinitializeTLSEPv
tVb:__Z9EndJobSetR8JobFence11JobPriority
Alj:__ZL54ContextMenu_t1295656858_CustomAttributesCacheGeneratorP21CustomAttributesCache
l9:__ZN13RuntimeStaticI21ScalableBufferManagerLb0EE13StaticDestroyEPv
jOc:__ZN2UI13CanvasManager9AddCanvasEPNS_6CanvasE
i9a:__ZN9Texture3D8TransferI19StreamedBinaryWriteILb0EEEEvRT_
YNb:__ZNK6Camera22CalculateRenderingPathEv
OCd:_Convert_ToInt64_m3758262873
qnd:_Hashtable_TestPrime_m3839319309
gC:__ZN11UnityEngine9Animation37SetGenericRootTransformPropertyValuesERKNS0_30AnimatorGenericBindingConstantERKN7mecanim10ValueArrayER9Transformbb
$Da:__Z13ConvertMipmap14GraphicsFormatPKvS_Pviiii
H$c:_BaseRaycaster_get_renderOrderPriority_m1110184610
FDe:_PKCS12_get_IterationCount_m626423090
htb:__ZL12InvokeMethodI17RemapPPtrTransferEvRK29SerializationCommandArgumentsR31RuntimeSerializationCommandInfo
J0e:_RemoteCertificateValidationCallback_Invoke_m3086073466
pIf:_StringComparer_Compare_m991165676
tEc:_tt_sbit_decoder_load_image
XGe:_InternalEnumerator_1_MoveNext_m3299696349_AdjustorThunk
xTg:_List_1_System_Collections_ICollection_get_IsSynchronized_m1552759297_gshared
Yei:__ZN15dense_hashtableINSt3__24pairIK10KeyWrapperIP11Il2CppClassES4_EES5_N6il2cpp8metadata16SZArrayClassHashEN14dense_hash_mapIS5_S4_SA_NS5_14EqualsComparerINS9_19SZArrayClassCompareEEENS0_9allocatorIS7_EEE9SelectKeyESE_SG_EC2EjRKSA_RKSE_RKSI_
Njh:_U3CStartU3Ec__Iterator0_Dispose_m261027331_gshared
_Ea:__ZN4core8hash_mapIPK17RenderSurfaceBaseP13RenderTexture19PointerHashFunctionIS3_ENSt3__28equal_toIS3_EEE6insertERKNS8_4pairIKS3_S5_EE
Hnc:__ZNSt3__24listIN10GUIManager12SortedScriptE11memory_poolIS2_EE6__sortI13OldSortScriptEENS_15__list_iteratorIS2_PvEESA_SA_jRT_
Ebg:_EqualityComparer_1_System_Collections_IEqualityComparer_GetHashCode_m2588073987_gshared
tMh:__ZL25UnresolvedVirtualCall_197P12Il2CppObject19TimeSpan_t881159249PK10MethodInfo
B$g:_Collection_1_System_Collections_IList_Add_m3364892189_gshared
ZNg:_List_1_AddEnumerable_m3500350831_gshared
j_h:__ZN24dense_hashtable_iteratorINSt3__24pairIK10KeyWrapperIPK11Il2CppClassEPKcEES6_N6il2cpp5utils11PointerHashIS3_EEN14dense_hash_mapIS6_S9_SE_NS6_14EqualsComparerINS0_8equal_toIS5_EEEENS0_9allocatorISA_EEE9SelectKeyESJ_SL_E30advance_past_empty_and_deletedEv
Qcf:_PrivateKeyInfo_get_PrivateKey_m3647771102
Msb:__Z18Transfer_BlittableI17RemapPPtrTransferLb1E8BitFieldEvRK29SerializationCommandArgumentsR31RuntimeSerializationCommandInfo
nhi:__ZN6il2cpp6icalls8mscorlib6System9ThreadingL11ThreadStartEPv
Wea:__ZN15DirectorManager12OnSampleTimeEv
k4d:__ZN28GenericInterfaceFuncInvoker1IP12Il2CppObjectS1_E6InvokeEPK10MethodInfoS1_S1_
j$d:_TypeBuilder_check_not_created_m3652863637
G3c:_StandaloneInputModule_UpdateModule_m450861257
oPh:_Font_add_textureRebuilt_m2164317336
Sah:_ReadOnlyCollection_1_System_Collections_IList_Insert_m2928873627_gshared
xmf:_DateTime_get_UtcNow_m1393945741
Wag:_EqualityComparer_1__cctor_m314889309_gshared
f6:__ZN12CachedReader10Align4ReadEv
e8f:_DefaultComparer_GetHashCode_m556015105_gshared
Gvh:_X501__cctor_m2428304915
xQh:_Canvas_get_renderOrder_m1489855841
cmg:__Z50RuntimeInvoker_Void_t1185182177_Single_t1397266774PFvvEPK10MethodInfoPvPS4_
Ctj:__ZL77ExecuteEvents_t3484638744_CustomAttributesCacheGenerator_U3CU3Ef__mgU24cache1P21CustomAttributesCache
oEh:_Event_ToString_m1688862299
nwg:__Z70RuntimeInvoker_Boolean_t97287965_RuntimeObject_IPAddressU26_t589322682PFvvEPK10MethodInfoPvPS4_
eBg:__Z105RuntimeInvoker_Void_t1185182177_Vector2U26_t2376273893_RuntimeObject_RuntimeObject_Vector2U26_t2376273893PFvvEPK10MethodInfoPvPS4_
eKa:__ZNK9Behaviour22GetTypeVirtualInternalEv
hvf:_CCGregorianCalendar_month_from_fixed_m4268992710
HNf:_Array_compare_TisUICharInfo_t75501106_m1310495481_gshared
O3b:__ZNK28MonoBehaviourPropertyBinding12SetPPtrValueERKN11UnityEngine9Animation10BoundCurveEi
wXb:__Z21GetScriptingArraySize17ScriptingArrayPtr
HJc:__ZN20TextRenderingPrivate8FontImpl8TransferI14SafeBinaryReadEEvRT_
Qtg:__Z51RuntimeInvoker_UInt32_t2560061978_Double_t594665363PFvvEPK10MethodInfoPvPS4_
OFa:__ZN13ComputeShader14SetBufferParamEjRKN9ShaderLab16FastPropertyNameE15ComputeBufferID
R$i:__ZL55ISymbolWriter_t780458634_CustomAttributesCacheGeneratorP21CustomAttributesCache
xoc:__ZN11IMGUIModule21ClearDeveloperConsoleEv
ooj:__ZL81MessageTypeSubscribers_t1684935770_CustomAttributesCacheGenerator_m_messageTypeIdP21CustomAttributesCache
f9g:_ReadOnlyCollection_1_System_Collections_IList_Clear_m4022532825_gshared
RTf:_Encoding_get_ASCII_m3595602635
EOg:_List_1_System_Collections_ICollection_CopyTo_m2688165607_gshared
Gra:__ZN9GfxDevice17ImmediateTexCoordEifff
YIc:_ft_black_new
_Xd:_DerivedType_GetCustomAttributes_m3536779709
cKh:__ZL24UnresolvedVirtualCall_72P12Il2CppObjectPK10MethodInfo
o9i:__ZL93Interlocked_t2273387594_CustomAttributesCacheGenerator_Interlocked_CompareExchange_m388540288P21CustomAttributesCache
l0d:_MethodBase_get_IsAbstract_m428833029
Upd:_AssemblyLoadEventHandler__ctor_m896828968
Ktb:__Z35Transfer_Blittable_FixedBufferFieldI24GenerateTypeTreeTransferhEvRK29SerializationCommandArgumentsR31RuntimeSerializationCommandInfo
zKj:_emscripten_glUniform4f__wrapper
tNg:_List_1_Reverse_m4144036584_gshared
khg:_Enumerator_MoveNext_m2595190390_AdjustorThunk
dPf:_Array_InternalArray__IndexOf_TisColor32_t2600501292_m3783551884_gshared
oY:__ZNK6Camera16GetProjectionFarEv
Nq:__Z24InverseTransformRotationRK23TransformAccessReadOnlyRKN4math7_float4E
Gwh:_X509Chain_Build_m2469702749
wDf:_Evidence_get_IsSynchronized_m3446368195
XL:__ZN11AudioSource6UpdateEv
UVe:_Transform_1_EndInvoke_m1204015506_gshared
s1a:__ZNK14PlayableOutput11DerivesFromE17ScriptingClassPtr
F2a:__ZN7Texture34CreateFileTextureUploadInstructionE18TextureUploadFlagsj
ynd:__ZN25GenericVirtActionInvoker06InvokeEPK10MethodInfoP12Il2CppObject
HWa:__ZThn280_N31CanvasBatchIntermediateRenderer20OnAssetBoundsChangedEv
h$d:_TypeBuilder_DefineConstructor_m2989882735
kPa:__ZN25SingleBlockMemoryFileDataC2E10MemLabelIdPvjb
Arj:__ZL59GUISkin_t1244372282_CustomAttributesCacheGenerator_m_toggleP21CustomAttributesCache
t3b:__ZN19LowerResBlitTexture13ApplySettingsEv
pD:__ZN8Animator8TransferI14SafeBinaryReadEEvRT_
Iei:__ZN15dense_hashtableINSt3__24pairIK10KeyWrapperIP11Il2CppClassES4_EES5_N6il2cpp8metadata16SZArrayClassHashEN14dense_hash_mapIS5_S4_SA_NS5_14EqualsComparerINS9_19SZArrayClassCompareEEENS0_9allocatorIS7_EEE9SelectKeyESE_SG_E4swapERSJ_
wQa:__ZN17GlobalGameManager23VirtualRedirectTransferER18StreamedBinaryReadILb0EE
jWb:__ZN27IntermediateRendererManager24GetIntermediateRenderersEi
B1:__Z23AsyncReadForceCloseFileRKN4core12basic_stringIcNS_20StringStorageDefaultIcEEEE
Ut:__ZN17AnimationPlayable34CollectAnimatorControllerPlayablesER13dynamic_arrayIP26AnimatorControllerPlayableLj4EE
uoj:__ZL120RenderPipelineManager_t4036911426_CustomAttributesCacheGenerator_RenderPipelineManager_DoRenderLoop_Internal_m3799666479P21CustomAttributesCache
TO:__ZN16BaseVideoTexture19UpdateVideoTexturesEv
T2d:_MonoField_GetValue_m3124733531
PVa:__Z28BuildSingleStreamChannelInfo17ShaderChannelMaskRK20VertexChannelsLayoutS_S2_P11ChannelInfo
ZMf:_Array_InternalArray__IEnumerable_GetEnumerator_TisOrderBlock_t1585977831_m2414028303_gshared
ngf:_Context_set_HandshakeState_m1329976135
O6a:__ZN6Sprite23VirtualRedirectTransferER19StreamedBinaryWriteILb0EE
huf:_Enum_GetHashCode_m2848082716
G4b:__ZN2UI13RectTransform12SetAnchorMaxERK8Vector2f
r0c:_EventTrigger_Execute_m2453060771
$bh:_Comparison_1_Invoke_m517083441_gshared
Esg:__Z253RuntimeInvoker_Int32_t2950945753_RuntimeObject_Int32_t2950945753_Int32_t2950945753_RuntimeObject_Int32_t2950945753_UInt32U26_t3735378166_UInt32U26_t3735378166_RuntimeObject_DecoderFallbackBufferU26_t3866396827_ByteU5BU5DU26_t4057885439_SByte_t1669577662PFvvEPK10MethodInfoPvPS4_
X4h:__ZNK15dense_hashtableINSt3__24pairIK10KeyWrapperINS1_IPK9FieldInfoP11Il2CppClassEEEjEES9_17ReflectionMapHashIS8_EN14dense_hash_mapIS9_jSD_NS9_14EqualsComparerINS0_8equal_toIS8_EEEENS0_9allocatorISB_EEE9SelectKeyESI_SK_E5beginEv
Una:__ZNK9ShaderLab7Program19HasMatchingVariantsERK13dynamic_arrayI16ShaderKeywordSetLj4EE
b7g:_ReadOnlyCollection_1_System_Collections_IList_get_IsFixedSize_m3402868227_gshared
kB:__ZN15SerializeTraitsIN4math4trsXEE8TransferI8BlobSizeEEvRS1_RT_
Ava:__ZN14DataBufferGLES11CopySubDataEPKS_jjj
fe:_emscripten_glVertexPointer
lQc:__ZN2UI13PrepareOutputERNS_7BatchesEjjNS_30AdditionalCanvasShaderChannelsE
O2h:__ZN6il2cpp2vm7Runtime47RaiseExecutionEngineExceptionIfMethodIsNotFoundEPK10MethodInfo
ryh:_PatternCompiler_GetMachineFactory_m3758869886
sTb:__Z17GetFrustumPortionPK8Vector3fffPS_
flj:__ZL105RectTransform_t3704657025_CustomAttributesCacheGenerator_RectTransform_INTERNAL_get_anchorMin_m1735215721P21CustomAttributesCache
Zji:__ZN15dense_hashtableINSt3__24pairIK10KeyWrapperIP14Il2CppIUnknownEjEES5_N6il2cpp5utils11PointerHashIS3_EEN14dense_hash_mapIS5_jSB_NS5_14EqualsComparerINS0_8equal_toIS4_EEEENS0_9allocatorIS7_EEE9SelectKeyESG_SI_E14squash_deletedEv
I0c:_EventTrigger_OnCancel_m585099428
g8i:__ZL107CodeAccessPermission_t2681295399_CustomAttributesCacheGenerator_CodeAccessPermission_GetHashCode_m880096813P21CustomAttributesCache
AFh:_GUILayoutEntry_ApplyOptions_m1741659338
Kce:_MethodDictionary_set_MethodKeys_m1451825752
ufd:_RuntimeTypeHandle_Equals_m2857439487_AdjustorThunk
I$g:_Collection_1_System_Collections_ICollection_get_SyncRoot_m1659213062_gshared
xpa:__ZNK9GfxDevice27GetPlatformAdjustedViewportEv
m6g:_ReadOnlyCollection_1_System_Collections_Generic_IListU3CTU3E_set_Item_m88350439_gshared
Hdh:_Func_3_Invoke_m1194147890_gshared
$Ah:_Reference_Compile_m4195878675
fCj:_InputBuffer_remove_onCommandSent_m3139499669
A8g:_ReadOnlyCollection_1_System_Collections_ICollection_CopyTo_m2672196987_gshared
Y9b:__ZN16StreamedResource8TransferI24GenerateTypeTreeTransferEEvRT_
KQi:_RectTransform_get_anchorMin_m2928307238
xud:_ArrayList__ctor_m3828927650
Ita:__ZThn9568_N13GfxDeviceGLES26EnableScissorRectsPlatformEv
KGa:__ZN10Matrix3x3f15InvertTransposeEv
MFh:_GUILayoutGroup_SetHorizontal_m996475327
yEf:_SecurityException_get_Demanded_m2500043391
DFh:_GUILayoutEntry__cctor_m663865902
l7e:_CaptureCollection_GetEnumerator_m732412500
Lie:__ZN23GenericVirtFuncInvoker2IDsiDsE6InvokeEPK10MethodInfoP12Il2CppObjectiDs
xLb:__Z11IsBatchmodev
Pfg:_Enumerator_System_Collections_IEnumerator_get_Current_m713684915_gshared
Jrb:__Z29Transfer_Blittable_ArrayFieldI14SafeBinaryRead8Vector3fEvRT_R9ArrayInfoRK23StaticTransferFieldInfo
J0d:_MemberInfo__ctor_m3258770133
f6i:__ZL62IFormatterConverter_t2171992254_CustomAttributesCacheGeneratorP21CustomAttributesCache
abj:__ZL78Convert_t2465617642_CustomAttributesCacheGenerator_Convert_ToSByte_m4075629912P21CustomAttributesCache
gfe:_SoapTypeAttribute_get_XmlTypeNamespace_m4211398148
wKc:__ZN20TextRenderingPrivate8FontImpl18ResetCachedTextureEv
b1h:__ZN6il2cpp6icalls8mscorlib6SystemL16GetFieldFromTypeINS_5utils10functional6FilterINSt3__212basic_stringIcNS7_11char_traitsIcEENS7_9allocatorIcEEEENS4_13VmStringUtils21CaseSensitiveComparerEEEEEP21Il2CppReflectionFieldP11Il2CppClassSK_iRKT_
Klc:__Z27Screen_Get_Custom_PropWidthv
ywi:_GC_print_finalization_stats
loa:__ZN11NamedObject15ThreadedCleanupEv
rGh:_GUITargetAttribute_GetGUITargetAttrValue_m2954410352
Tfc:__Z53Register_UnityEngine_Behaviour_get_isActiveAndEnabledv
Lpd:_SimpleEnumerator_get_Current_m72361444
hq:__ZNSt3__26vectorIN4core12basic_stringIcNS1_20StringStorageDefaultIcEEEENS_9allocatorIS5_EEE8__appendEj
lWe:__ZN21InterfaceFuncInvoker2I27DictionaryEntry_t3123975638P12Il2CppObjectbE6InvokeEjP11Il2CppClassS2_S2_b
gP:__ZN13ProduceHelperI10SampleClipLb0EE7ProduceE10MemLabelId18ObjectCreationMode
teb:__ZN26PlayerSettingsSplashScreen8TransferI17RemapPPtrTransferEEvRT_
Wze:_ASN1_set_Value_m2803403806
i1h:__ZN6il2cpp6icalls8mscorlib6SystemL17CollectTypeFieldsINS_5utils10functional10TrueFilterEEEvP11Il2CppClassPKS7_iRNSt3__26vectorIP9FieldInfoNSB_9allocatorISE_EEEERKT_
Bmg:__Z52RuntimeInvoker_Int16_t2552820387_Decimal_t2948259380PFvvEPK10MethodInfoPvPS4_
X1b:__Z13GetTagManagerv
jnd:_Hashtable__ctor_m1815022027
peh:__ZN28GenericInterfaceFuncInvoker1Ib39CustomAttributeNamedArgument_t287865710E6InvokeEPK10MethodInfoP12Il2CppObjectS0_
MWf:_UTF8Encoding_GetChars_m1433288684
OSh:__ZL10roundUp128PyS_
sR:__ZN11UnityEngine15CloudWebService17CloudJobSchedulerD0Ev
Mkg:__Z50RuntimeInvoker_Boolean_t97287965_SByte_t1669577662PFvvEPK10MethodInfoPvPS4_
tEe:_ArrayReadOnlyList_1_Contains_m381552673_gshared
PFg:__Z105RuntimeInvoker_Int32_t2950945753_RuntimeObject_OrderBlock_t1585977831_Int32_t2950945753_Int32_t2950945753PFvvEPK10MethodInfoPvPS4_
u_f:_TimeZone_ToUniversalTime_m2789507578
_lg:__Z96RuntimeInvoker_Boolean_t97287965_RuntimeObject_RuntimeObject_Int32_t2950945753_Int32_t2950945753PFvvEPK10MethodInfoPvPS4_
hOf:_Array_IndexOf_TisUICharInfo_t75501106_m3198896198_gshared
HOc:__ZNK2UI11CanvasGroup22GetTypeVirtualInternalEv
zhf:_Context_get_Current_m2853615040
Gwf:_CultureInfo_construct_internal_locale_from_lcid_m2668301444
sCj:_Keyboard_WarnIfTerminalNotConneced_m1063217717
tze:_PrimeGeneratorBase__ctor_m2973488305
$nc:__Z21CleanupGlobalGUIStatev
w$f:_Type_IsContextfulImpl_m3693603908
HYi:__ZL81RuntimeArray_CustomAttributesCacheGenerator_Array_GetValue_m120423883____indices0P21CustomAttributesCache
kqj:__ZL79Event_t2956885303_CustomAttributesCacheGenerator_Event_get_modifiers_m995073384P21CustomAttributesCache
Hgg:_Enumerator_VerifyState_m2873941769_gshared
YAb:__Z18Transfer_BlittableI18StreamedBinaryReadILb0EELb1EN4math12int3_storageEEvRK29SerializationCommandArgumentsR31RuntimeSerializationCommandInfo
Ljg:__Z56RuntimeInvoker_RuntimeObject_RuntimeObject_RuntimeObjectPFvvEPK10MethodInfoPvPS4_
hIa:__ZN22VertexDeclarationCache5ClearEv
ahd:_CspParameters__ctor_m3852972821
And:_AppDomainInitializer_EndInvoke_m2095010821
x_b:__ZN17PersistentManager12SetPathRemapERKN4core12basic_stringIcNS0_20StringStorageDefaultIcEEEES6_
xw:__Z27ProcessRootMotionEmptyMixerP35AnimationPlayableEvaluationConstantP32AnimationPlayableEvaluationInputP33AnimationPlayableEvaluationOutput
VUb:__ZN6Camera24PrepareCullingParametersERK23CameraCullingParameters13RenderingPathR11CullResults
qcc:__Z12SetIUISystemP9IUISystem
Lgb:__ZN19RuntimeSceneManager22EndIntegrateMainThreadEP10UnitySceneNS_11LoadingModeE
Hnh:_Array_Sort_TisUICharInfo_t75501106_m3474449559_gshared
ZMi:__ZN21InterfaceFuncInvoker0IP34MessageTypeSubscribers_t1684935770E6InvokeEjP11Il2CppClassP12Il2CppObject
jtb:__Z26Transfer_UnityEngineObjectI17RemapPPtrTransferLb0EEvRK29SerializationCommandArgumentsR31RuntimeSerializationCommandInfo
DNh:__ZL25UnresolvedVirtualCall_261P12Il2CppObject19Vector4_t3319028937PK10MethodInfo
Dkb:__ZN17WeakPtrSharedDataD0Ev
ozh:_QuickSearch_GetShiftDistance_m2542665852
Z9a:__Z32TransferEnumWithNameForceIntSizeI14SafeBinaryRead11IndexFormatEvRT_RT0_PKc17TransferMetaFlags
fqh:_Array_InternalArray__get_Item_TisCustomAttributeTypedArgument_t2723150157_m2639399822_gshared
fye:_BigInteger_GenerateRandom_m3141592944
Evb:__Z29Transfer_Blittable_ArrayFieldI24GenerateTypeTreeTransfer4AABBEvRT_R9ArrayInfoRK23StaticTransferFieldInfo
W8e:_Interval_Contains_m1454846757
Tad:_Graphic_CacheCanvas_m1120385152
QPe:_InternalEnumerator_1_MoveNext_m1262906009_gshared
O9c:_U3CDelayedDestroyDropdownListU3Ec__Iterator0_Dispose_m100123149
CCj:_emscripten_GetProcAddress
Nhg:_List_1_System_Collections_Generic_IEnumerableU3CTU3E_GetEnumerator_m944444416_gshared
Ca:invoke_fiiifii
YDj:_modff
MYa:__ZN20SphericalHarmonicsL219AddDirectionalLightERKN4math7_float3ERKNS0_7_float4E
p6e:_X509ChainElementCollection_get_IsSynchronized_m3980338507
Nea:__Z26ScheduleJobForEachInternalR8JobFencePFvPvjES1_iPFvS1_E11JobPriority
iLb:__ZZ23InitPlayerLoopCallbacksvEN41PostLateUpdateProfilerEndFrameRegistrator7ForwardEv
Kcc:__ZN9Scripting18RaiseMonoExceptionEPKcz
hOc:__ZN2UI13UIInstruction19ClearSharedMeshDataER8JobFence
M8b:__ZN10GameObject17WillHandleMessageERK17MessageIdentifier
mDf:_StrongNamePublicKeyBlob_Equals_m3655422942
jEf:_SecurityContext__ctor_m1730177197
IRh:_RectTransformUtility_GetTransposed_m3952754222
Q6b:__ZN9ShaderLab16FastPropertyName15InitBy28BitHashEj
JUh:__ZN6il2cpp2vm5Class7GetNameEP11Il2CppClass
oag:_EqualityComparer_1_System_Collections_IEqualityComparer_GetHashCode_m3723747923_gshared
Mmh:_Array_Resize_TisOrderBlock_t1585977831_m3449774576_gshared
gpg:__Z96RuntimeInvoker_Void_t1185182177_Int32_t2950945753_Single_t1397266774_RuntimeObject_RuntimeObjectPFvvEPK10MethodInfoPvPS4_
W4g:_ReadOnlyCollection_1_CopyTo_m3722791265_gshared
aGg:__Z59RuntimeInvoker_Int32_t2950945753_KeyValuePair_2_t3699644050PFvvEPK10MethodInfoPvPS4_
xSe:_Enumerator_System_Collections_IDictionaryEnumerator_get_Key_m195047678_AdjustorThunk
Gnf:_DateTimeFormatInfo_get_RawAbbreviatedMonthNames_m2395953416
wQh:_Canvas_get_pixelPerfect_m333060872
iab:__ZN17PackedFloatVector12UnpackFloatsEPfiiii
x0d:_TypeBuilder_ToString_m3497908325
Cz:__ZN17AnimationPlayable28UpdateInternalStateRecursiveILi3ELb0EEEvPK35AnimationPlayableEvaluationConstant
Gsa:__ZN13GfxDeviceGLES21DestroyComputeProgramER12ObjectHandleI18ComputeProgram_TagPvE
Nyh:_PatternCompiler_EmitIfDefined_m2075050865
Kpf:_Decimal_System_IConvertible_ToInt64_m1446427516_AdjustorThunk
Bca:__ZN17UniqueIDGenerator16DestroyPureIndexEj
NSd:_NotImplementedException__ctor_m3095902440
XMh:__ZL25UnresolvedVirtualCall_227P12Il2CppObjectPK10MethodInfo
X$:__ZL21AppendNestedClassName17ScriptingClassPtrRN4core17string_with_labelILi1EEE
yia:__ZN14SafeBinaryRead21TransferSTLStyleArrayINSt3__26vectorIN9ShaderLab20SerializedSubProgram12UAVParameterENS1_9allocatorIS5_EEEEEEvRT_17TransferMetaFlags
rPh:_FontTextureRebuildCallback_Invoke_m3604797831
Ata:__ZN13GfxDeviceGLES32InitStereoGlobalsBuffersPlatformEiijPKv
yLh:__ZL25UnresolvedVirtualCall_148P12Il2CppObjectfiPK10MethodInfo
VV:__ZNK13BaseAllocator10IsAssignedEv
CS:__ZN24TextDOMTransferWriteBaseI9JSONWriteE12PushMetaFlagEi
p4i:__ZL59_PropertyBuilder_t1366136710_CustomAttributesCacheGeneratorP21CustomAttributesCache
uE:__ZZN8Animator15InitializeClassEvEN31FunctorImpl_420kDidDeleteMotion4CallEPviR11MessageData
lBa:__ZN6prcoreL26RemapGenericIntegerToFloatI17TexFormatARGB888815TexFormatRFloatEEvPKNS_9InnerInfoE
iW:__ZN5Mutex6UnlockEv
C0h:__ZN6il2cpp2vm10ThreadPool10InitializeEv
vQg:_List_1__ctor_m808270210_gshared
qbi:__ZN6il2cpp2vm17TypeNameParseInfoD2Ev
Idg:_PrimeHelper_ToPrime_m3704362632_gshared
YI:__ZN4FMOD7Channel7setModeEj
spf:_Decimal_System_IConvertible_ToType_m2919262279
pVi:_Vector2_get_right_m1027081661
xX:__ZNK8Renderer8GetLayerEv
JNd:_Stream_Close_m771352034
xQe:__ZN21InterfaceFuncInvoker1Ii19TimeSpan_t881159249E6InvokeEjP11Il2CppClassP12Il2CppObjectS0_
Dy:__ZN7mecanim9animation22DestroyBlendTreeOutputEPNS0_15BlendTreeOutputERNS_6memory9AllocatorE
FPb:__ZNK6Camera20GetReplacementShaderEv
vTg:_List_1_System_Collections_IList_Remove_m4226673807_gshared
NAi:__ZNSt3__26__treeINS_12__value_typeINS_12basic_stringIcNS_11char_traitsIcEENS_9allocatorIcEEEEPFvvEEENS_19__map_value_compareIS7_SA_NS_4lessIS7_EELb1EEENS5_ISA_EEE4findIS7_EENS_15__tree_iteratorISA_PNS_11__tree_nodeISA_PvEEiEERKT_
Aya:__ZL23stbir__calculate_memoryP11stbir__info
r6h:__ZNK15dense_hashtableINSt3__24pairIK10KeyWrapperINS1_IPK10MethodInfoP11Il2CppClassEEEjEES9_17ReflectionMapHashIS8_EN14dense_hash_mapIS9_jSD_NS9_14EqualsComparerINS0_8equal_toIS8_EEEENS0_9allocatorISB_EEE9SelectKeyESI_SK_E12test_deletedERK24dense_hashtable_iteratorISB_S9_SD_SM_SI_SK_E
e8e:_Interpreter_Close_m126356671
NZg:_Collection_1_InsertItem_m168969280_gshared
BOc:__ZNSt3__227__insertion_sort_incompleteIRPFbPN2UI6CanvasES3_EPS3_EEbT0_S8_T_
mCj:__ZN25GenericVirtActionInvoker1IP8String_tE6InvokeEPK10MethodInfoP12Il2CppObjectS1_
D9a:__ZNK6Camera18GetRenderRectangleEv
SYh:__ZN6il2cpp5utils13dynamic_arrayIPK10Il2CppTypeLj4EE7reserveEj
Z7a:__ZN13sorted_vectorIN4core12basic_stringIcNS0_20StringStorageDefaultIcEEEENSt3__24lessIS4_EE13stl_allocatorIS4_L18MemLabelIdentifier81ELi16EEE4findIS4_EENS5_11__wrap_iterIPS4_EERKT_
Fzh:_Parser_HandleExplicitNumericGroups_m1412234891
Eqh:_Array_InternalArray__get_Item_TisRaycastHit2D_t2279581989_m2440275162_gshared
dWd:_CustomAttributeNamedArgument_Equals_m1414002036
gvc:__ZL26Transfer_SimpleNativeClassI8JSONRead10RectOffsetLb1EEvRK29SerializationCommandArgumentsR31RuntimeSerializationCommandInfo
bLi:_Material_SetInt_m475299667
URc:__Z44CanvasRenderer_CUSTOM_INTERNAL_CALL_SetColorP12Il2CppObjectRK10ColorRGBAf
nZd:_FieldBuilder_GetFieldOffset_m725157755
rYe:_Enumerator_MoveNext_m3045873697_AdjustorThunk
cfg:_Enumerator_System_Collections_IEnumerator_Reset_m959124362_AdjustorThunk
Vtf:_Enum_ToObject_m121831801
Egj:__ZL57AsyncOperation_t1445031843_CustomAttributesCacheGeneratorP21CustomAttributesCache
hdd:_Image_get_hasBorder_m3423344180
Xrc:__Z18Transfer_BlittableI9JSONWriteLb1EsEvRK29SerializationCommandArgumentsR31RuntimeSerializationCommandInfo
n2:__ZN6ObjectD2Ev
rdc:__ZN9Transform16SetLocalRotationERK11Quaternionf
nad:_FontData_set_richText_m993590067
WLb:__ZN13RenderManager37RenderCamerasWithScriptableRenderLoopEi
gfd:_RuntimeMethodHandle__ctor_m2229201676
kZf:_TimeSpan__ctor_m3689759052
ZWi:__ZL49UInt16_t2177724958_CustomAttributesCacheGeneratorP21CustomAttributesCache
tB:__ZN7mecanim8skeleton25SkeletonPoseComputeLocalQEPKNS0_8SkeletonEPKNS0_13SkeletonPoseTIN4math4trsXEEEPS7_ii
YKg:__Z37RuntimeInvoker_Enumerator_t3123848928PFvvEPK10MethodInfoPvPS4_
eni:__ZN6il2cpp2os19ReleaseSocketHandleEj
eO:__ZN11AudioModule16GetDSPSampleRateEv
vsi:__ZN15dense_hashtableINSt3__24pairIK10KeyWrapperIPK19Il2CppGenericMethodEP10MethodInfoEES6_N6il2cpp8metadata23Il2CppGenericMethodHashEN14dense_hash_mapIS6_S9_SD_NS6_14EqualsComparerINSC_26Il2CppGenericMethodCompareEEENS0_9allocatorISA_EEE9SelectKeyESH_SJ_E5clearEv
V9b:__ZN16PropertyAccessor5ClearEv
JIb:__ZN15InstancingProps11NewConstantERKN9ShaderLab16FastPropertyNameEj15ShaderParamTypehhjjP6Object
LRe:_Comparer_1__ctor_m3649041856_gshared
ldd:_Image_OnBeforeSerialize_m3415525254
Oie:_InputField_get_characterValidation_m4196664041
C_f:_Type_get_Attributes_m58528356
ifh:__ZN23GenericVirtFuncInvoker1Ib19Vector2_t2156229523E6InvokeEPK10MethodInfoP12Il2CppObjectS0_
YPb:__ZN6Camera28DefaultPerformRenderFunctionD0Ev
Skd:_Array_GetUpperBound_m4018715963
fpi:__ZN6il2cpp2os5posix15PosixWaitObjectC2ENS2_4TypeE
SNb:__ZN6Camera21PostMultiCustomRenderENS_10RenderFlagEb
oSf:_Array_InternalArray__Insert_TisMonoResource_t4103430009_m1997865927_gshared
iBf:_SHA512Managed_HashFinal_m2173184560
tFa:__ZN12_GLOBAL__N_112UploadImagesEP7ApiGLESjji14GraphicsFormatPKhjS2_iiii16TextureUsageModePh
xIb:__ZN23ShaderVariantCollection13WarmupShadersEv
JWa:__ZNK4PPtrI8MaterialEptEv
R4b:__ZN13ProduceHelperI9TransformLb0EE7ProduceE10MemLabelId18ObjectCreationMode
Nsh:_SslStreamBase_Finalize_m3260913635
F$:__Z25GetCommonScriptingClassesv
ihb:__Z27scripting_gc_collect_unsafei
qcf:_MD5SHA1_HashFinal_m4115488658
jO:__ZN11AudioModule20SuspendVideoTexturesEv
LPf:_Array_InternalArray__ICollection_Add_TisKeyValuePair_2_t71524366_m3468275433_gshared
_Oh:_AudioSettings_InvokeOnAudioManagerUpdate_m4044425648
oQ:__Z59Register_UnityEngine_AudioExtensionManager_GetAudioListenerv
a0i:__ZL78Calendar_t1661121569_CustomAttributesCacheGenerator_Calendar_Clone_m1356182658P21CustomAttributesCache
Xub:__Z26Transfer_UnityEngineObjectI24GenerateTypeTreeTransferLb0EEvRK29SerializationCommandArgumentsR31RuntimeSerializationCommandInfo
dCd:_Convert_ToDouble_m278900635
iBc:_UNITY_FT_GlyphLoader_CheckPoints
BHi:_DebugLogHandler_LogException_m302830419
GLd:_Stream_BeginRead_m2233539237
Gdg:_PrimeHelper_TestPrime_m2318568626_gshared
f$i:__ZL63KeyNotFoundException_t2292407383_CustomAttributesCacheGeneratorP21CustomAttributesCache
_Te:_Enumerator_System_Collections_IDictionaryEnumerator_get_Value_m684446183_AdjustorThunk
eXa:__ZN15SharedLightData7PrecalcEv
O1:__ZN10Matrix4x4fmLERKS_
Cq:__ZN4PPtrI9TransformE8TransferI18StreamedBinaryReadILb0EEEEvRT_
wPi:_Vector2__ctor_m3970636864
tyb:__Z35Transfer_Blittable_FixedBufferFieldI18StreamedBinaryReadILb1EEsEvRK29SerializationCommandArgumentsR31RuntimeSerializationCommandInfo
mR:__ZNK4PPtrI4MeshEdeEv
ruf:_Environment_InternalGetFolderPath_m468390978
cOa:__ZN15ArchiveReadFileD0Ev
_cj:__ZL65StackOverflowException_t3629451388_CustomAttributesCacheGeneratorP21CustomAttributesCache
IPg:_List_1_System_Collections_Generic_ICollectionU3CTU3E_get_IsReadOnly_m2562366358_gshared
tcf:_RSASslSignatureFormatter__ctor_m1299283008
lVc:__ZN11UnityEngine15PlatformWrapper18GetOperatingSystemEv
zoa:__ZNSt3__26vectorIP14DataBufferGLESNS_9allocatorIS2_EEE21__push_back_slow_pathIKS2_EEvRT_
TEf:_SecurityFrame_ToString_m339310712
tdj:__ZL54ThreadStart_t1006689297_CustomAttributesCacheGeneratorP21CustomAttributesCache
k_i:__ZL62ParamArrayAttribute_t3664765590_CustomAttributesCacheGeneratorP21CustomAttributesCache
Kvc:__ZN8GUIStyle8TransferI8JSONReadEEvRT_
Rkj:__ZL98Transform_t3600365921_CustomAttributesCacheGenerator_Transform_INTERNAL_set_localScale_m1089294020P21CustomAttributesCache
kGh:_GUIStyleState_t1397964415_marshal_pinvoke
vp:__ZN15SerializeTraitsI13dynamic_arrayIiLj4EEE19ResizeSTLStyleArrayERS1_i
anh:_Array_Resize_TisVector4_t3319028937_m1507893064_gshared
n9i:__ZL94Interlocked_t2273387594_CustomAttributesCacheGenerator_Interlocked_CompareExchange_m3023855514P21CustomAttributesCache
xAf:_SHA1Managed_HashFinal_m2365675383
h4c:_TouchInputModule_ProcessTouchPress_m3504077560
_pd:__ZN25GenericVirtActionInvoker1IP33AssemblyLoadEventArgs_t2792010465E6InvokeEPK10MethodInfoP12Il2CppObjectS1_
NAc:_FT_MSB
E9f:_EqualityComparer_1_get_Default_m2572737998_gshared
LOj:_emscripten_glReadPixels__wrapper
Zdg:_HashSet_1_Add_m1971460364_gshared
$Ai:__ZN6il2cpp6icalls8mscorlib4Mono8Security12Cryptography18KeyPairPersistence10_CanSecureEP12Il2CppString
Ybf:_MD4__ctor_m919379109
VJf:_Array_InternalArray__ICollection_Contains_TisParameterModifier_t1461694466_m1000453323_gshared
A2i:__ZL57FieldAttributes_t400321159_CustomAttributesCacheGeneratorP21CustomAttributesCache
P5f:_Dictionary_2_System_Collections_ICollection_CopyTo_m4047192178_gshared
j3h:__ZN6il2cpp2os4File11GetFileStatERKNSt3__212basic_stringIcNS2_11char_traitsIcEENS2_9allocatorIcEEEEPNS0_8FileStatEPi
Lyf:_RIPEMD160Managed_Initialize_m2173168986
c5i:__ZL54IMessageCtrl_t317049502_CustomAttributesCacheGeneratorP21CustomAttributesCache
D6b:__ZN9TransformC2E10MemLabelId18ObjectCreationMode
Soa:__ZN13GfxDeviceGLES14SetRasterStateEPK17DeviceRasterState
NUd:_Assembly_ToString_m2053237013
ppb:__Z30TransferField_LinearCollectionI14SafeBinaryReadEvRK29SerializationCommandArgumentsR31RuntimeSerializationCommandInfo
GLi:_Vector4_Equals_m1779210055
esf:_Exception_set_HResult_m3489164646
cDc:_otv_Coverage_get_count
J4d:_ParameterModifier_t1461694466_marshal_pinvoke_back
F2:__ZN14SafeBinaryRead11EndTransferEv
fcg:_EqualityComparer_1__cctor_m2741186979_gshared
Jpb:__ZN14SafeBinaryRead8TransferI8MonoPPtrEEvRT_PKc17TransferMetaFlags
wfj:__ZL70Uri_t100236324_CustomAttributesCacheGenerator_Uri_Unescape_m3373094076P21CustomAttributesCache
Tse:_ScrollRect_set_verticalNormalizedPosition_m1452826170
Ltf:_Enum_System_IConvertible_ToUInt16_m4216751959
bAg:__Z61RuntimeInvoker_Boolean_t97287965_PlayableHandleU26_t645981773PFvvEPK10MethodInfoPvPS4_
rGa:__ZN21UniformBufferTFMethod13MapBoneBufferEj
bCj:_StringExtension_Anagram_m968226828
fSf:_Array_InternalArray__Insert_TisInt32_t2950945753_m4073217122_gshared
ZXe:_Enumerator_get_Current_m2897627569_AdjustorThunk
fAd:_SortedList_Remove_m2784369438
yxa:__ZN4crnd12crn_unpacker10unpack_dxnEPPhjjj
Amf:_DateTime_get_Kind_m2154871796_AdjustorThunk
HFb:__ZN9TextAsset15ThreadedCleanupEv
eyh:_MatchCollection_get_SyncRoot_m1957585059
n0:__ZN14SerializedFileD2Ev
Oea:__Z21CompleteFenceInternalR8JobFence
Ioc:__Z30Event_Get_Custom_PropModifiersP12Il2CppObject
sLg:__Z79RuntimeInvoker_RuntimeObject_OrderBlock_t1585977831_RuntimeObject_RuntimeObjectPFvvEPK10MethodInfoPvPS4_
hu:__ZN7mecanim9animation16CreateClipOutputEPKNS0_4ClipERNS_6memory9AllocatorE
Pee:_SoapAttribute_SetReflectionObject_m4109300849
ope:_RawImage_get_mainTexture_m2396337033
S3h:__ZN6il2cpp2vm10Reflection17GetAssemblyObjectEPK14Il2CppAssembly
aJf:_DecoderFallbackBuffer_Reset_m3069554060
hDb:__ZNSt3__218__stable_sort_moveIRN10vector_mapI17ScriptingClassPtrPKN5Unity4TypeENS_4lessIS2_EENS_9allocatorINS_4pairIS2_S6_EEEEE13value_compareENS_11__wrap_iterIPSB_EEEEvT0_SJ_T_NS_15iterator_traitsISJ_E15difference_typeEPNSM_10value_typeE
aha:__ZN6Shader21AwakeFromLoadThreadedEv
nAa:__ZN6prcoreL17RemapGenericFloatI17TexFormatRGBFloat17TexFormatRGBAHalfEEvPKNS_9InnerInfoE
aye:_BigInteger__ctor_m3991350270
cVi:_Vector2_GetHashCode_m3916089713_AdjustorThunk
f_c:__ZN13RuntimeStaticINSt3__26vectorIjNS0_9allocatorIjEEEELb0EE16StaticInitializeEPv
aU:__ZN13UploadHandler10OnSentDataEj
lCi:__ZN6il2cpp2os9SemaphoreC2Eii
Lpb:__ZNSt3__26vectorI8MonoPPtr13stl_allocatorIS1_L18MemLabelIdentifier1ELi16EEE8__appendEj
vOb:__ZN14qsort_internal30FindAndMovePivotToLastPositionIP17RODataReplacementi19ROSorterReplacementEEvT_S4_T0_T1_
CGa:__ZN15UniformTFMethod20IsBoneCountSupportedEi
Z5g:_ReadOnlyCollection_1_System_Collections_IList_get_Item_m3076053687_gshared
P2f:_UnauthorizedAccessException__ctor_m246605039
Y5b:__Z12BuildTextureIA4_tPFvP9Texture2DPS0_iiiiEES2_PKcii13TextureFormatRKT0_17TextureColorSpaceb
nIj:dynCall_viidi
Jt:__ZN8Playable18OnApplicationPauseEb
W_:__ZN24ScriptingMethodFiltering17FilterOnSignatureENS_18MethodSearchFilterE
XZb:__ZN18ScreenManagerWebGL13SetLockCursorE14CursorLockMode
Oef:_CipherSuite_DecryptRecord_m1495386860
cwh:_X509Certificate_VerifySignature_m3538124832
NNd:_StreamAsyncResult_SetComplete_m1102187093
J3b:__ZN13MonoBehaviour19HandleNotificationsEPviR11MessageData
tQi:_RectOffset_Init_m2028508611
OCi:__ZN6il2cpp2os9EventImpl5ResetEv
fSg:_List_1_Sort_m933660666_gshared
Bdf:_Alert__ctor_m3135936936
UHd:_Int64_System_IConvertible_ToInt32_m772105781
Zsh:_TlsClientSettings__ctor_m3220697265
T7h:__ZNK15dense_hashtableINSt3__24pairIK10KeyWrapperINS1_IPK9EventInfoP11Il2CppClassEEEjEES9_17ReflectionMapHashIS8_EN14dense_hash_mapIS9_jSD_NS9_14EqualsComparerINS0_8equal_toIS8_EEEENS0_9allocatorISB_EEE9SelectKeyESI_SK_E23find_position_with_hashERSA_j
wMh:__ZL25UnresolvedVirtualCall_200P12Il2CppObject6Guid_tS1_PK10MethodInfo
nBh:_CaptureAssertion_set_CapturingGroup_m2003123956
ILj:b58
iBg:__Z103RuntimeInvoker_Boolean_t97287965_RuntimeObject_Vector2_t2156229523_RuntimeObject_Vector2U26_t2376273893PFvvEPK10MethodInfoPvPS4_
f5f:_Dictionary_2_make_pair_m2250450206_gshared
tUf:_ForwardingDecoder_GetChars_m4228908854
z8e:_InterpreterFactory_get_GroupCount_m2226373271
BLj:b53
oLj:b50
pLj:b51
GLj:b56
HLj:b57
ELj:b54
FLj:b55
Vig:_List_1_System_Collections_IList_get_IsReadOnly_m3531293387_gshared
HL:__ZN4PPtrI15AudioMixerGroupE8TransferI18StreamedBinaryReadILb0EEEEvRT_
Wwe:_SimpleCollator_IsSafe_m310268646
jNf:_Array_InternalArray__IEnumerable_GetEnumerator_TisWorkRequest_t1354518612_m2622205355_gshared
asd:_Byte_System_IConvertible_ToByte_m162267264_AdjustorThunk
eld:_X509Certificate_get_RawData_m2387471414
lNj:_glDetachShader__wrapper
Spd:_ArrayTypeMismatchException__ctor_m3375008173
uVe:_Transform_1_BeginInvoke_m1757796657_gshared
Nbi:__ZNSt3__214__split_bufferINS_12basic_stringIcNS_11char_traitsIcEENS_9allocatorIcEEEERNS4_IS6_EEEC2EjjS8_
Ieg:_KeyValuePair_2__ctor_m1794021352_AdjustorThunk
HFg:__Z88RuntimeInvoker_Int32_t2950945753_UIVertex_t4057497605_UIVertex_t4057497605_RuntimeObjectPFvvEPK10MethodInfoPvPS4_
f8b:__ZN10GameObject12CleanupClassEv
Gpa:__ZN9GfxDevice25SetShaderPropertiesSharedERK19ShaderPropertySheet
V4c:_BaseMeshEffect_get_graphic_m1852367505
qxd:_CaseInsensitiveHashCodeProvider_GetHashCode_m2168170016
rFb:__ZN10MonoScript17MainThreadCleanupEv
Ywa:__ZN18AsyncUploadManager19AsyncResourceUploadER9GfxDeviceii9TextureID
JOe:_InternalEnumerator_1_Dispose_m28687982_AdjustorThunk
z7b:__ZL25InitializeDefaultMaterialv
tSc:__Z53Register_UnityEngine_CanvasRenderer_get_materialCountv
Q$d:_PropertyBuilder_GetCustomAttributes_m3798356764
hLd:_Stream__ctor_m3881936881
N4d:_PropertyInfo_get_MemberType_m2794839864
MOa:__ZN19FileAccessorHandlerD2Ev
thg:_Enumerator_Dispose_m2367589020_AdjustorThunk
tRe:_Comparer_1_System_Collections_IComparer_Compare_m4179495191_gshared
pMa:__ZN17PersistentManager12UnloadStreamERKN4core12basic_stringIcNS0_20StringStorageDefaultIcEEEEb
bPa:__ZN10MemoryFile4ReadEyyPvPy
Tkh:_Array_InternalArray__Insert_TisUICharInfo_t75501106_m2924156520_gshared
gbg:_EqualityComparer_1_System_Collections_IEqualityComparer_Equals_m3139704160_gshared
BPf:_MonoProperty_GetterAdapterFrame_TisRuntimeObject_TisRuntimeObject_m458718082_gshared
g6a:__ZN13ScreenManager17RequestResolutionEiibi
udi:_il2cpp_unity_liveness_calculation_from_statics
Qx:__ZNK26AnimatorControllerPlayable11DerivesFromE17ScriptingClassPtr
Mee:_SoapAttribute__ctor_m1857608874
QOe:_InternalEnumerator_1_System_Collections_IEnumerator_get_Current_m2649471526_gshared
kag:_EqualityComparer_1_System_Collections_IEqualityComparer_Equals_m3218482536_gshared
_5:__ZN8Renderer8TransferI17RemapPPtrTransferEEvRT_
Psh:_InternalAsyncResult_get_AsyncState_m1436290550
FFe:_InternalEnumerator_1_Dispose_m2018798800_AdjustorThunk
epa:__ZN13GfxDeviceGLES26UpdateViewProjectionMatrixEv
tSe:_Enumerator_System_Collections_IDictionaryEnumerator_get_Entry_m522483686_gshared
iCe:_PrivateKeyInfo_RemoveLeadingZero_m3921889925
UXf:_Thread_get_CurrentContext_m1695017876
irh:_Mesh_GetAllocArrayFromChannel_TisColor32_t2600501292_m3180365313_gshared
VXb:__Z24LookRotationToQuaternionRK8Vector3fS1_P11Quaternionf
TXb:__ZN16ReflectionProbes9GetCameraEv
Uma:__ZL18IsGpuProgramUsable20ShaderGpuProgramTypePK6Shader
VQc:__ZN2UI6Canvas17SetSortingLayerIDEi
b5c:_Button_get_onClick_m2332132945
cpi:__ZN6il2cpp2vm11MethodStack23CleanupForCurrentThreadEv
dxj:__ZL61Image_t2670269651_CustomAttributesCacheGenerator_m_FillMethodP21CustomAttributesCache
_Dd:_Convert_ToUInt64_m388601487
cVa:__ZN20TierGraphicsSettings8TransferI24GenerateTypeTreeTransferEEvRT_
EYh:__ZN15dense_hashtableINSt3__24pairIK10KeyWrapperIN6il2cpp5utils13dynamic_arrayIPK10Il2CppTypeLj4EEEEPFvvEEESA_NS3_8metadata19Il2CppSignatureHashEN14dense_hash_mapISA_SD_SG_NSA_14EqualsComparerINSF_22Il2CppSignatureCompareEEENS0_9allocatorISE_EEE9SelectKeyESK_SM_E16reset_thresholdsEv
dMi:_Mesh_get_vertices_m3585684815
yrb:__ZN14SafeBinaryRead21TransferSTLStyleArrayI13dynamic_arrayI4AABBLj4EEEEvRT_17TransferMetaFlags
ATi:_TouchScreenKeyboard_get_text_m1797464608
cZb:__ZN26CustomRenderTextureManager25UpdateCustomRenderTextureEP19CustomRenderTexturei
Rfa:__ZNSt3__26__treeINS_12__value_typeIiN11TypeManager18TypeCallbackStructEEENS_19__map_value_compareIiS4_NS_4lessIiEELb1EEENS_9allocatorIS4_EEE7destroyEPNS_11__tree_nodeIS4_PvEE
gzj:__ZL60Slider_t3903728902_CustomAttributesCacheGenerator_m_FillRectP21CustomAttributesCache
fFb:__ZN13MonoBehaviour18TransferEngineDataI24GenerateTypeTreeTransferEE4PPtrI10MonoScriptERT_
kEg:__Z71RuntimeInvoker_Void_t1185182177_CornerU26_t2243868623_Int32_t2950945753PFvvEPK10MethodInfoPvPS4_
qJi:_TextureMixerPlayable_Equals_m1074187513_AdjustorThunk
P9b:__ZNK14PlayableOutput23GetSourcePlayableUnsafeEv
gUc:__ZN11UnityEngine7Connect17XRDeviceInfoEventD0Ev
u5i:__ZL60SoapTypeAttribute_t1750930817_CustomAttributesCacheGeneratorP21CustomAttributesCache
tVd:_Binder_ConvertArgs_m2124461494
RV:__ZN21UnityDefaultAllocatorI17LowLevelAllocatorE10DeallocateEPv
ts:__ZN15PackedIntVector8TransferI14SafeBinaryReadEEvRT_
rVi:_Vector3__ctor_m3353183577_AdjustorThunk
EHe:_InternalEnumerator_1_System_Collections_IEnumerator_get_Current_m1514266661_gshared
pcf:_MD5SHA1_Initialize_m675470944
wQf:_Array_InternalArray__ICollection_Add_TisKeyframe_t4206410242_m442111799_gshared
YQg:_List_1_CheckMatch_m3263549496_gshared
p9i:__ZL58ManualResetEvent_t451242010_CustomAttributesCacheGeneratorP21CustomAttributesCache
M8g:_ReadOnlyCollection_1_System_Collections_IList_get_IsReadOnly_m2041535988_gshared
Pvh:_X509Certificate_set_KeyAlgorithmParameters_m2010117999
AH:__ZN13AudioListener8DoUpdateEv
FHd:_Int32_GetTypeCode_m1648562395_AdjustorThunk
nBd:__Z13bankers_roundd
ieb:__ZN14SafeBinaryRead8TransferI5RectTIfEEEvRT_PKc17TransferMetaFlags
ri:_emscripten_glGenFramebuffers
Lfa:__ZN17BaseObjectManager16StaticInitializeEPv
Iha:__ZNSt3__26vectorIN9ShaderLab26SerializedShaderDependencyENS_9allocatorIS2_EEE26__swap_out_circular_bufferERNS_14__split_bufferIS2_RS4_EE
laj:__ZL80Convert_t2465617642_CustomAttributesCacheGenerator_Convert_ToBoolean_m3613483153P21CustomAttributesCache
sMg:_List_1_CheckCollection_m2602703205_gshared
hKa:__ZN9Behaviour23VirtualRedirectTransferER17RemapPPtrTransfer
Dsc:__Z18Transfer_BlittableI9JSONWriteLb0EyEvRK29SerializationCommandArgumentsR31RuntimeSerializationCommandInfo
B_a:__ZN13RenderTexture15ThreadedCleanupEv
S3e:_X509BasicConstraintsExtension__ctor_m3721156175
S1a:__ZN12CubemapArray23VirtualRedirectTransferER14SafeBinaryRead
vtj:__ZL70EventSystem_t1003666588_CustomAttributesCacheGenerator_m_DragThresholdP21CustomAttributesCache
lu:__ZN21AnimationClipPlayable16ProcessHumanPassEPK35AnimationPlayableEvaluationConstantPK32AnimationPlayableEvaluationInputP33AnimationPlayableEvaluationOutput
eKd:_Path_GetFileName_m1354558116
oAe:_BitConverterLE_ToDouble_m1601000678
jMj:_emscripten_glUniform3i__wrapper
bQi:_Rect_Contains_m1232228501_AdjustorThunk
MEa:__ZN18ProceduralMaterial9ReloadAllEbb
gjc:__Z43RectTransform_CUSTOM_INTERNAL_set_sizeDeltaP12Il2CppObjectRK13Vector2fIcall
bId:_Int64_System_IConvertible_ToType_m3223988955_AdjustorThunk
Uki:__ZN15dense_hashtableINSt3__24pairIK10KeyWrapperINS1_IPKcS4_EEEiEES6_24NamespaceAndNamePairHashN14dense_hash_mapIS6_iS9_NS6_14EqualsComparerI26NamespaceAndNamePairEqualsEENS0_9allocatorIS8_EEE9SelectKeyESD_SF_E6insertERKS8_
X5:__ZN24GenerateTypeTreeTransfer18BeginArrayTransferEPKcS1_Ri17TransferMetaFlags
Cqh:_Array_InternalArray__get_Item_TisPlayableBinding_t354260709_m3837494573_gshared
om:___syscall51
_Hf:_String_CreateString_m4016935005
ayh:_MatchCollection_get_FullList_m1829231879
sm:___syscall54
Hod:_Array_GetValue_m2528415604
d5i:__ZL55IMessageSink_t2514424906_CustomAttributesCacheGeneratorP21CustomAttributesCache
uBf:_SymmetricAlgorithm_Clear_m3302238152
oUi:_Transform_INTERNAL_CALL_TransformPoint_m4261269221
zyf:_Guid_AppendShort_m791023083
Cuj:__ZL109PointerEventData_t3807901092_CustomAttributesCacheGenerator_PointerEventData_get_eligibleForClick_m3788762543P21CustomAttributesCache
sRg:_List_1__ctor_m4212503576_gshared
YVf:_UTF32Encoding_GetBytes_m2832872594
boa:__ZN9ShaderLab9SubShader19CreateFromSubShaderERKS0_
Wwb:__Z18Transfer_BlittableI19StreamedBinaryWriteILb0EELb1EjEvRK29SerializationCommandArgumentsR31RuntimeSerializationCommandInfo
jBc:_cff_builder_add_point1
bmi:__ZN6il2cpp2vm5Image21GetCachedResourceDataEPK11Il2CppImageRKNSt3__212basic_stringIcNS5_11char_traitsIcEENS5_9allocatorIcEEEE
sob:__Z18Transfer_BlittableI14SafeBinaryReadLb0E10ColorRGBAfEvRK29SerializationCommandArgumentsR31RuntimeSerializationCommandInfo
za:invoke_iiiiiiiiii
XHi:_DrivenRectTransformTracker_Clear_m371772582
QP:__ZN11AudioSource25GetNumExtensionPropertiesEv
IRf:_Array_InternalArray__ICollection_CopyTo_TisUILineInfo_t4195266810_m104406798_gshared
UN:__ZNK7Texture10GetVRUsageEv
u4b:__ZZL31RegisterRectTransformPropertiesR22GenericPropertyBindingEN32Wrapper_RectTransformAnchorMaxx013GetFloatValueEPv
B7f:_DefaultComparer__ctor_m41012692_gshared
nHi:_Debug_LogErrorFormat_m3558239521
Pad:_Graphic_get_canvas_m3320066409
gke:_InputField_ActivateInputFieldInternal_m3360893886
PVg:_List_1_Insert_m1781696722_gshared
fG:__ZN4FMOD7SystemI11createSoundEPKcjP22FMOD_CREATESOUNDEXINFOPPNS_5SoundE
d0b:__ZN10FileSystem19SetCurrentDirectoryERKN4core12basic_stringIcNS0_20StringStorageDefaultIcEEEE
pGi:_Component_get_gameObject_m442555142
tQd:_Math_Log_m2526073084
W4b:__ZN23TransformChangeDispatch24RemovePermanentInterestsE15TransformAccessPKN5Unity4TypeE
Lfc:__Z47Register_UnityEngine_Coroutine_ReleaseCoroutinev
lI:__ZN15AudioReverbZone13SetFMODValuesEv
IZ:__ZN14SafeBinaryRead4InitERK16TypeTreeIteratorxx24TransferInstructionFlags10MemLabelId
Wga:__ZL19StaticDestroyShaderPv
ae:_glRenderbufferStorageMultisample
y9b:__ZN8Playable4PlayEv
Hzd:_SyncHashtable_Clone_m3726939774
$y:__ZN23AnimationPlayableOutput17SetTargetAnimatorEP8Animator
P2i:__ZL62ParameterAttributes_t1826424051_CustomAttributesCacheGeneratorP21CustomAttributesCache
_tc:__ZN9JSONWrite8TransferI13dynamic_arrayIN4math12int3_storageELj4EEEEvRT_PKc17TransferMetaFlags
LQb:__ZN22MotionVectorRenderLoopD2Ev
JMd:_MemoryStream_get_CanRead_m1639425566
pHi:_Debug_LogException_m2207318968
LSf:_DecoderReplacementFallback_GetHashCode_m1611165826
Cdd:_Image_get_minWidth_m755066479
QRj:_pthread_cond_broadcast__wrapper
FPf:_Array_InternalArray__ICollection_Add_TisClientCertificateType_t1004704908_m2622721177_gshared
Bs:__ZN17PackedFloatVector8TransferI18StreamedBinaryReadILb0EEEEvRT_
T2a:__ZN7Cubemap23VirtualRedirectTransferER17RemapPPtrTransfer
Nlc:__Z37Register_UnityEngine_Screen_get_widthv
pDh:_Uri_get_Authority_m3816772302
Nac:__ZN22BlockMemoryCacheWriter11GetPathNameEv
ACe:_RSAManaged_ToXmlString_m645792083
rTi:_Touch_get_position_m3109777936
W3d:_ParameterInfo__ctor_m3269320476
T6e:_X509SubjectKeyIdentifierExtension_FromHexChars_m3244835916
EFf:_Single_CompareTo_m2785801815
Nuh:_PKCS12_MAC_m3355614022
g5i:__ZL63IMethodReturnMessage_t3705538073_CustomAttributesCacheGeneratorP21CustomAttributesCache
_o:stackAlloc
dgc:__Z44Camera_CUSTOM_INTERNAL_CALL_ScreenPointToRayP12Il2CppObjectRK8Vector3fR3Ray
nPa:__ZN25SingleBlockMemoryFileData4LockEPPv
tlb:__ZN12HandlerChain5TouchER13FileEntryData
QPj:_glProgramParameteri__wrapper
nbh:_ReadOnlyCollection_1_System_Collections_Generic_ICollectionU3CTU3E_get_IsReadOnly_m1215739200_gshared
DZ:__ZN17PersistentManager23PostReadActivationQueueEiPK8TypeTreeb
pDi:_AnimationCurve_t3046754366_marshal_pinvoke
Ihc:__Z32RectOffset_Get_Custom_PropBottomP12Il2CppObject
kHi:_Debug_LogError_m2850623458
jKh:__ZL24UnresolvedVirtualCall_79P12Il2CppObjectPK10MethodInfo
B1g:_Collection_1_CheckWritable_m3225530705_gshared
XNh:__ZN25GenericVirtActionInvoker1IP24SingleU5BU5D_t1444911251E6InvokeEPK10MethodInfoP12Il2CppObjectS1_
lAj:__ZL74LayoutElement_t1785403678_CustomAttributesCacheGenerator_m_PreferredHeightP21CustomAttributesCache
iEj:_stat
q4:__ZN9ShaderLab10SubProgram7CompileEv
LIb:__ZN15InstancingProps14CombineBuiltinEN10Instancing11BuiltinPropES1_S1_
SRg:_List_1_Contains_m353222571_gshared
J$d:_PropertyBuilder_get_CanRead_m3783190070
q0:__ZN14SerializedFile14SerializedTypeD2Ev
ddj:__ZL64ThreadStaticAttribute_t3840787420_CustomAttributesCacheGeneratorP21CustomAttributesCache
MPf:_Array_InternalArray__ICollection_Add_TisKeyValuePair_2_t3699644050_m4052349323_gshared
$ef:_CipherSuiteCollection_System_Collections_IList_get_Item_m2175128671
lSa:__ZN6CameraD2Ev
la:invoke_iiiiiiiiiiii
emf:_DateTime_System_IConvertible_ToType_m1242864300_AdjustorThunk
sZe:_ValueCollection_get_Count_m994935123_gshared
_Ne:_InternalEnumerator_1_get_Current_m2446410893_AdjustorThunk
OVa:__Z29CalculateDefaultChannelsToAdd17ShaderChannelMaskS_
Jnj:__ZL89PlayableBinding_t354260709_CustomAttributesCacheGenerator_U3CstreamTypeU3Ek__BackingFieldP21CustomAttributesCache
QRa:__ZN10TagManager13RegisterLayerEjRKN4core12basic_stringIcNS0_20StringStorageDefaultIcEEEE
oIa:__ZNSt3__26__treeI20DeviceBlendStateGLES14MemoryCompLessI16DeviceBlendStateENS_9allocatorIS1_EEE7destroyEPNS_11__tree_nodeIS1_PvEE
gRh:_CanvasRenderer_SetMaterial_m633746949
hL:__ZN10AudioMixer12RebindOutputEv
Oei:__ZNK15dense_hashtableINSt3__24pairIK10KeyWrapperIP11Il2CppClassES4_EES5_N6il2cpp8metadata16SZArrayClassHashEN14dense_hash_mapIS5_S4_SA_NS5_14EqualsComparerINS9_19SZArrayClassCompareEEENS0_9allocatorIS7_EEE9SelectKeyESE_SG_E5beginEv
LHe:_InternalEnumerator_1__ctor_m819716934_gshared
kne:_LayoutRebuilder_PerformLayoutControl_m4241054021
hUh:__ZN6il2cpp2vm17SetupFieldsLockedEP11Il2CppClassRKNS_2os12FastAutoLockE
BMh:__ZL25UnresolvedVirtualCall_205P12Il2CppObjectiS0_PK10MethodInfo
Yme:_U3CDelayedSetDirtyU3Ec__Iterator0_System_Collections_IEnumerator_get_Current_m3096581881
yHb:__ZNK9GfxDevice20IsViewportFullscreenEv
ML:__ZN11AudioSourceD0Ev
aDa:__ZN18GlslGpuProgramGLES13SwitchProgramEj
$Pa:__ZN20ArchiveStorageReaderC2E10MemLabelId
ylg:__Z132RuntimeInvoker_Int32_t2950945753_RuntimeObject_Int32_t2950945753_Int32_t2950945753_RuntimeObject_Int32_t2950945753_Int32_t2950945753PFvvEPK10MethodInfoPvPS4_
Lmb:__ZN16MemoryFileSystem4NameEv
T2c:_ButtonState__ctor_m1506593332
Ilc:__Z13SetCopyBufferRKN4core12basic_stringIcNS_20StringStorageDefaultIcEEEE
Vfg:_Enumerator_get_Current_m2468920150_AdjustorThunk
pth:_TlsException__ctor_m818940807
sld:_X509CertificateEnumerator_System_Collections_IEnumerator_get_Current_m418791713
ILc:_UNITY_FT_New_Size
$dc:__Z42ScriptingGetComponentsOfTypeFromGameObjectRK26ScriptingGetComponentsArgs
Idh:_Func_3_BeginInvoke_m2985061395_gshared
Umj:__ZL73ArgumentCache_t2187958399_CustomAttributesCacheGenerator_m_ObjectArgumentP21CustomAttributesCache
cHi:_StateChanged_EndInvoke_m3313423087
ioh:_Array_swap_TisRaycastResult_t3360306849_TisRaycastResult_t3360306849_m3400922624_gshared
GOh:_AudioListener_ReadExtensionName_m929423100
$gd:_CspParameters__ctor_m2741097571
fYd:_EnumBuilder_get_DeclaringType_m4266754303
$0a:__ZNSt3__27__sort4IRPFbRKNS_4pairIN9ShaderLab16FastPropertyNameEN18UnityPropertySheet11UnityTexEnvEEES8_EPS6_EEjT0_SD_SD_SD_T_
Rzh:_Assertion_get_TrueExpression_m2743006331
hAc:_cf2_hintmap_build
q$h:_NativeHeaderAttribute_set_Header_m3310668383
bTi:_Texture_get_width_m888163864
qJc:_Line_Up
gAb:__Z29Transfer_Blittable_ArrayFieldI18StreamedBinaryReadILb1EExEvRT_R9ArrayInfoRK23StaticTransferFieldInfo
Qmh:_Array_Resize_TisRaycastResult_t3360306849_m1277390301_gshared
he:_emscripten_glBufferSubData
CHf:_String_ReplaceUnchecked_m1381393810
LCe:_SymmetricTransform_CBC_m435753239
atb:__Z18Transfer_BlittableI17RemapPPtrTransferLb1EyEvRK29SerializationCommandArgumentsR31RuntimeSerializationCommandInfo
Tzj:__ZL76ContentSizeFitter_t3850442145_CustomAttributesCacheGenerator_m_HorizontalFitP21CustomAttributesCache
CQe:_DefaultComparer_Compare_m3278268937_gshared
Rp:__Z17CalculateGlobalRS23TransformAccessReadOnly
p6h:__ZN24dense_hashtable_iteratorINSt3__24pairIK10KeyWrapperINS1_IPK10MethodInfoP11Il2CppClassEEEjEES9_17ReflectionMapHashIS8_EN14dense_hash_mapIS9_jSD_NS9_14EqualsComparerINS0_8equal_toIS8_EEEENS0_9allocatorISB_EEE9SelectKeyESI_SK_E30advance_past_empty_and_deletedEv
Azi:__ZNSt3__210__list_impIPN6il2cpp5utils10MemoryPool6RegionENS_9allocatorIS5_EEE5clearEv
d_c:__ZN13RuntimeStaticINSt3__26vectorIN5physx25PxVehicleWheelQueryResultENS0_9allocatorIS3_EEEELb0EE16StaticInitializeEPv
urb:__ZN14SafeBinaryRead21TransferSTLStyleArrayI13dynamic_arrayI9BoundsIntLj4EEEEvRT_17TransferMetaFlags
cjb:__ZN22MemoryCacherReadBlocks14LockCacheBlockEjPPhS1_
ONd:_StreamAsyncResult_get_NBytes_m548041729
Ofj:__ZL141U3CCreateWhereIteratorU3Ec__Iterator1D_1_t945640688_CustomAttributesCacheGenerator_U3CCreateWhereIteratorU3Ec__Iterator1D_1_Reset_m2877846340P21CustomAttributesCache
y9a:__ZNK9GfxDevice26GetSinglePassStereoEyeMaskEv
yHi:_DebugLogHandler_Internal_Log_m4175774469
uti:__ZN4utf88internal15increase_safelyIPKcEENS0_9utf_errorERT_S5_
iUh:__ZN6il2cpp2vmL21SetupPropertiesLockedEP11Il2CppClassRKNS_2os12FastAutoLockE
mEf:_SecurityContext_get_CompressedStack_m3401528670
XKc:__ZN20TextRenderingPrivate8FontImpl16CacheFontForTextEPtiifjPK13dynamic_arrayINS_16TextFormatChangeELj4EE
qud:_CharEnumerator_get_Current_m525608209
ZKe:_InternalEnumerator_1_Dispose_m887344916_AdjustorThunk
K$c:__Z21ArrayElementTypeCheckP11Il2CppArrayPv
VOj:_emscripten_glTexSubImage2D__wrapper
Yrf:_StackTrace_init_frames_m641783388
F3e:_PublicKey_DecodeRSA_m1824703659
aGj:__ZNSt3__212basic_stringIcNS_11char_traitsIcEENS_9allocatorIcEEE6appendEjc
ZCb:__Z13TransferFieldI18StreamedBinaryReadILb0EELb0E16Converter_StringEvRK23StaticTransferFieldInfoR31RuntimeSerializationCommandInfoRT1_
vDb:__ZN4core8hash_mapINS_12basic_stringIcNS_20StringStorageDefaultIcEEEEiNS_4hashIS4_EENSt3__28equal_toIS4_EEE4growEi
zTc:__Z42Register_UnityEngine_Canvas_get_rootCanvasv
jaj:__ZL78Convert_t2465617642_CustomAttributesCacheGenerator_Convert_ToBoolean_m40300963P21CustomAttributesCache
mvd:_ArrayListWrapper_set_Item_m3849584877
Qe:_TTF_RenderText_Solid
uDb:__ZN4core8hash_mapINS_12basic_stringIcNS_20StringStorageDefaultIcEEEEiNS_4hashIS4_EENSt3__28equal_toIS4_EEE4growEv
IDi:__ZN23InterfaceActionInvoker3IP8String_tS1_iE6InvokeEjP11Il2CppClassP12Il2CppObjectS1_S1_i
Hig:_List_1__ctor_m3947764094_gshared
EWi:__ZL52IComparable_t36111218_CustomAttributesCacheGeneratorP21CustomAttributesCache
gCh:_Parser_IsIgnorePatternWhitespace_m2107132682
R0e:_HttpRequestCreator_Create_m400548686
XXc:__ZN11UnityEngine7Connect16PersistentValuesC2Ev
mrg:__Z49RuntimeInvoker_RuntimeObject_StringU26_t181565287PFvvEPK10MethodInfoPvPS4_
oah:_ReadOnlyCollection_1_System_Collections_IList_Insert_m134149130_gshared
hsc:__Z18Transfer_BlittableI9JSONWriteLb0E5RectTIiEEvRK29SerializationCommandArgumentsR31RuntimeSerializationCommandInfo
eye:_BigInteger_get_Rng_m4216817480
qzc:_cf2_getStdVW
LKf:_Array_InternalArray__ICollection_Remove_TisDateTime_t3738529785_m2250893026_gshared
w7i:__ZL67RijndaelManagedTransform_t4102601014_CustomAttributesCacheGeneratorP21CustomAttributesCache
sDa:__Z15IsIEEE754Format14GraphicsFormat
otb:__Z19TransferField_ArrayI17RemapPPtrTransfer27Converter_UnityEngineObjectEvRK23StaticTransferFieldInfoR31RuntimeSerializationCommandInfoRT0_
Za:invoke_iifiii
dyd:_KeyNotFoundException__ctor_m541499307
zba:__ZN13RuntimeStaticINSt3__23mapIN4core12basic_stringIcNS2_20StringStorageDefaultIcEEEES6_NS0_4lessIS6_EE13stl_allocatorINS0_4pairIKS6_S6_EEL18MemLabelIdentifier13ELi16EEEELb0EE16StaticInitializeEPv
fMf:_SetPropertyUtility_SetStruct_TisSpriteState_t1362986479_m665096788_gshared
Ulg:__Z61RuntimeInvoker_Single_t1397266774_RuntimeObject_RuntimeObjectPFvvEPK10MethodInfoPvPS4_
kcj:__ZL62FieldAccessException_t238379456_CustomAttributesCacheGeneratorP21CustomAttributesCache
RKf:_Array_InternalArray__ICollection_Remove_TisIntPtr_t_m3807208150_gshared
Dyg:__Z71RuntimeInvoker_Void_t1185182177_Vector3_t3722313464_Vector3_t3722313464PFvvEPK10MethodInfoPvPS4_
IKe:_InternalEnumerator_1_get_Current_m2316281569_AdjustorThunk
hlf:_DateTime__ctor_m1095105629
$qa:__ZN13GfxDeviceGLES15UploadTexture2DE9TextureID16TextureDimensionPKhiii14GraphicsFormati18TextureUploadFlags16TextureUsageMode
kJg:__Z41RuntimeInvoker_KeyValuePair_2_t3699644050PFvvEPK10MethodInfoPvPS4_
XDh:_Event_Cleanup_m2477919477
dK:__ZN4FMOD6System9createDSPEP20FMOD_DSP_DESCRIPTIONPPNS_3DSPE
F9i:__ZL87Thread_t2300836069_CustomAttributesCacheGenerator_Thread_GetCompressedStack_m2923422412P21CustomAttributesCache
qSi:_HitInfo_t3229609740_marshal_pinvoke_back
kkf:_SslClientStream_get_ClientCertificates_m998716871
h8d:__ZN21InterfaceFuncInvoker0IP8String_tE6InvokeEjP11Il2CppClassP12Il2CppObject
dG:__ZN4FMOD8ChannelI11EndCallbackEv
loc:__ZN8GUIStyle14SetDefaultFontEPN13TextRendering4FontE
zMg:_List_1_ToArray_m2860284581_gshared
A5a:__ZN15QualitySettings23VirtualRedirectTransferER24GenerateTypeTreeTransfer
uhe:_ObjectReader_ReadValue_m3145979203
sWi:_TypeInferenceRuleAttribute_ToString_m4089326196
L5c:_CanvasScaler_OnDisable_m3424669401
BXe:_Transform_1_BeginInvoke_m500585065_gshared
Lta:__ZThn9568_N13GfxDeviceGLES32InitStereoGlobalsBuffersPlatformEiijPKv
pyj:__ZL68Scrollbar_t1494447233_CustomAttributesCacheGenerator_m_NumberOfStepsP21CustomAttributesCache
Cre:_ScrollRect_set_content_m321343743
TWh:__ZN30dense_hashtable_const_iteratorINSt3__24pairIK10KeyWrapperIPK19Il2CppGenericMethodEPK26Il2CppGenericMethodIndicesEES6_N6il2cpp8metadata23Il2CppGenericMethodHashEN14dense_hash_mapIS6_SA_SE_NS6_14EqualsComparerINSD_26Il2CppGenericMethodCompareEEENS0_9allocatorISB_EEE9SelectKeyESI_SK_EppEv
Wyc:_UNITY_FT_Request_Metrics
j_a:__ZN7Texture8TransferI18StreamedBinaryReadILb0EEEEvRT_
Pji:__ZN6il2cpp6icalls8mscorlib6System10Reflection10MonoMethod29get_IsGenericMethodDefinitionEP22Il2CppReflectionMethod
igi:__ZN6il2cpp2vm6Thread21AllocThreadStaticDataEi
jtj:__ZL63AnalyticsSessionState_t681173134_CustomAttributesCacheGeneratorP21CustomAttributesCache
kxf:_NumberFormatInfo_get_PercentNegativePattern_m1304634118
yVd:_Default_SelectMethod_m469311730
cKi:_Input_get_mousePosition_m1616496925
Qn:FUNCTION_TABLE_difi
Bsi:__ZN30dense_hashtable_const_iteratorINSt3__24pairIK10KeyWrapperIPK19Il2CppGenericMethodEP10MethodInfoEES6_N6il2cpp8metadata23Il2CppGenericMethodHashEN14dense_hash_mapIS6_S9_SD_NS6_14EqualsComparerINSC_26Il2CppGenericMethodCompareEEENS0_9allocatorISA_EEE9SelectKeyESH_SJ_EppEv
M1f:_UInt32_ToString_m2066897296_AdjustorThunk
bP:__Z13RegisterClassI13AudioListenerEvv
Upe:__ZN21InterfaceFuncInvoker3IP30RaycastHit2DU5BU5D_t428665156015Ray_t3785851493fiE6InvokeEjP11Il2CppClassP12Il2CppObjectS2_fi
uyd:_Enumerator_Reset_m4274366540
Grc:__Z18Transfer_BlittableI9JSONWriteLb0E8Vector3fEvRK29SerializationCommandArgumentsR31RuntimeSerializationCommandInfo
uca:__ZN13RuntimeStaticI17UniqueIDGeneratorLb0EE13StaticDestroyEPv
Pf:_emscripten_glUniform4i
eDc:_otv_FeatureList_validate
$e:_emscripten_glUniform4f
yj:___unlock
Avi:_GC_default_oom_fn
mCc:_otv_validate
z_b:__ZN13sorted_vectorINSt3__24pairIN4core12basic_stringIcNS2_20StringStorageDefaultIcEEEES6_EEN10vector_mapIS6_S6_27compare_tstring_insensitiveIS6_E13stl_allocatorIS7_L18MemLabelIdentifier38ELi16EEE13value_compareESD_E9erase_oneIS6_EEjRKT_
Q7f:_DefaultComparer__ctor_m963958896_gshared
DCf:_X509Certificate_Equals_m3784196370
gVg:_List_1__ctor_m3376067838_gshared
zM:__ZN20SoundChannelInstance19setReverbPropertiesEP29FMOD_REVERB_CHANNELPROPERTIES
Ngg:_Enumerator_MoveNext_m1446151600_gshared
rAf:_SHA1Internal_ProcessFinalBlock_m1403775421
wsj:__ZL87Canvas_t3310196443_CustomAttributesCacheGenerator_Canvas_get_sortingLayerID_m3685979122P21CustomAttributesCache
Dcj:__ZL69Math_t1671470975_CustomAttributesCacheGenerator_Math_Sqrt_m1297338011P21CustomAttributesCache
plc:__Z40Register_UnityEngine_Transform_IsChildOfv
Efe:_RemotingServices_GetOrCreateClientIdentity_m648299611
aQe:_InternalEnumerator_1_get_Current_m2356858238_AdjustorThunk
Tgc:__Z45Register_UnityEngine_Display_GetSystemExtImplv
yCe:_RSAManaged_ImportParameters_m1844641996
h2i:__ZL67AssemblyProductAttribute_t1000945320_CustomAttributesCacheGeneratorP21CustomAttributesCache
EJa:__ZN9GfxDevice31DrawIndexedNullGeometryIndirectE16GfxPrimitiveTypeP9GfxBuffer15ComputeBufferIDj
ASe:_Enumerator_System_Collections_IDictionaryEnumerator_get_Value_m3325938730_AdjustorThunk
lv:__ZN7mecanim9animation23TransformValuesFromClipEiiiRKNS_10ValueArrayERKNS0_10ClipOutputERKNS0_12ClipBindingsERS1_RNS_14ValueArrayMaskEb
lmh:_Array_qsort_TisOrderBlock_t1585977831_TisOrderBlock_t1585977831_m1675918557_gshared
pZe:_ValueCollection_System_Collections_ICollection_get_SyncRoot_m1114275063_gshared
USh:__ZL17log2withScale_128yyi
pyf:_Guid_Equals_m1866984197
CPc:__ZNSt3__218__insertion_sort_3IRNS_6__lessIN2UI14DepthSortEntryES3_EEPS3_EEvT0_S7_T_
KTe:_Enumerator__ctor_m65667165_gshared
fUd:_PlatformNotSupportedException__ctor_m1787918017
Kda:__ZN13RuntimeStaticI15DirectorManagerLb0EE16StaticInitializeEPv
u7g:_ReadOnlyCollection_1_System_Collections_ICollection_CopyTo_m2643246984_gshared
Wcb:__ZN11TimeManager6UpdateEv
Dhg:_Enumerator_System_Collections_IEnumerator_get_Current_m209407522_gshared
_ed:_StreamingContext_GetHashCode_m2281950854_AdjustorThunk
mGe:_InternalEnumerator_1__ctor_m619554185_AdjustorThunk
E5c:_CanvasScaler_get_fallbackScreenDPI_m2811935689
Wfe:_WellKnownServiceTypeEntry_get_ObjectUri_m560402900
Zlf:_DateTimeFormatInfo_ReadOnly_m890935083
m9g:_ReadOnlyCollection_1_System_Collections_ICollection_get_SyncRoot_m1280260618_gshared
Hui:__ZN6il2cpp2vm3CCW9CreateCCWEP12Il2CppObject
Nqi:__ZN6il2cpp2vm6Method17IsGenericInstanceEPK10MethodInfo
pEj:_fflush
H3:__ZN17LightProbeContext4InitERK16LightmapSettingsRK14RenderSettings
Dog:__Z82RuntimeInvoker_Int32_t2950945753_RuntimeObject_Int32_t2950945753_SByte_t1669577662PFvvEPK10MethodInfoPvPS4_
STb:__ZN18DeferredRenderLoop14RenderLightingER21ActiveLightingContextP13RenderTexture9TextureIDPS3_iRK8Vector4fRK14LightingLayersR10MinMaxAABBb12ObjectHandleI17RenderSurface_TagP17RenderSurfaceBaseE
YRi:_SceneManager_Internal_ActiveSceneChanged_m3676176255
gDi:__GLOBAL__sub_I_Error_cpp
PBh:_ExpressionAssertion_set_Negate_m1236561973
wsf:_Double_System_IConvertible_ToInt16_m3591921965
J8a:__ZN9Texture3DD2Ev
h2g:_Collection_1_set_Item_m4280581817_gshared
Vcd:_Image_get_fillMethod_m1027254375
kzj:__ZL60Slider_t3903728902_CustomAttributesCacheGenerator_m_MaxValueP21CustomAttributesCache
n7:__ZN10ColorRGBAf8TransferI19StreamedBinaryWriteILb0EEEEvRT_
j9i:__ZL97CompressedStack_t1202932761_CustomAttributesCacheGenerator_CompressedStack_CreateCopy_m2591279216P21CustomAttributesCache
FBd:_Convert_ToChar_m2796006345
Skh:_Array_InternalArray__Insert_TisContentType_t1787303396_m3566390691_gshared
Zoi:__ZNSt3__26vectorI20Il2CppStackFrameInfoNS_9allocatorIS1_EEE7reserveEj
m5i:__ZL82MethodDictionary_t207894204_CustomAttributesCacheGenerator_U3CU3Ef__switchU24map21P21CustomAttributesCache
Hvd:_ArrayListWrapper_GetEnumerator_m2336495952
iWb:__Z34ProcessIndexListIsNodeVisibleStep2RK22SceneCullingParametersPK9SceneNodePK4AABBR9IndexList
pFb:__ZN10MonoScriptD2Ev
Gza:__ZN6prcoreL12RemapGenericI17TexFormatARGB888817TexFormatBGRA8888EEvPKNS_9InnerInfoE
pHa:__ZN19ConstantBuffersGLES8UpdateCBE5CbKeyPKvj
k5c:_U3COnFinishSubmitU3Ec__Iterator0_System_Collections_Generic_IEnumeratorU3CobjectU3E_get_Current_m2586882303
kOh:_AudioSource_get_spatializeInternal_m2117549793
dic:__Z39Input_CUSTOM_INTERNAL_get_mousePositionP8Vector3f
Odd:_SerializationCallbacks_GetMethodsByAttribute_m2095490433
TEc:_tt_cmap13_char_next
xtj:__ZL117EventSystem_t1003666588_CustomAttributesCacheGenerator_EventSystem_t1003666588____lastSelectedGameObject_PropertyInfoP21CustomAttributesCache
_na:__ZN9ShaderLab4Pass16SetupPassOptionsEv
NUg:_List_1_GetIndex_m1042356532_gshared
dh:_JS_Sound_ReleaseInstance
Ypa:__ZN13GfxDeviceGLES19DrawBuffersIndirectEP9GfxBufferPK18VertexStreamSourceiP17VertexDeclaration17ShaderChannelMask16GfxPrimitiveType15ComputeBufferIDj
byf:_Guid_CheckArray_m921056615
t9d:_ConfigHandler_ReadLifetine_m208994800
LWc:__ZN20UnityConnectSettings16CheckConsistencyEv
W5h:__ZNK15dense_hashtableINSt3__24pairIK10KeyWrapperINS1_IPK10MethodInfoP11Il2CppClassEEEjEES9_17ReflectionMapHashIS8_EN14dense_hash_mapIS9_jSD_NS9_14EqualsComparerINS0_8equal_toIS8_EEEENS0_9allocatorISB_EEE9SelectKeyESI_SK_E12test_deletedEj
$$f:_UInt16_System_IConvertible_ToByte_m3185614807_AdjustorThunk
Wjf:_SecurityParameters_set_ServerWriteMAC_m3003817350
pCb:__Z29Transfer_Blittable_ArrayFieldI18StreamedBinaryReadILb0EEaEvRT_R9ArrayInfoRK23StaticTransferFieldInfo
HPi:_Rect_get_max_m350137314_AdjustorThunk
Cm:FUNCTION_TABLE_diddi
vgi:__ZN6il2cpp6icalls8mscorlib6System5Array8FastCopyEP11Il2CppArrayiS5_ii
xjc:__Z26Material_CUSTOM_SetIntImplP12Il2CppObjectii
c_a:__Z32TransferEnumWithNameForceIntSizeI14SafeBinaryRead15TextureWrapModeEvRT_RT0_PKc17TransferMetaFlags
B1h:__ZNSt3__26vectorIPK10MethodInfoNS_9allocatorIS3_EEE21__push_back_slow_pathIRKS3_EEvOT_
cFg:__Z54RuntimeInvoker_Boolean_t97287965_LabelFixup_t858502054PFvvEPK10MethodInfoPvPS4_
O7b:__ZN8GUILayerD2Ev
OSg:_List_1_Clear_m2244610185_gshared
Vhc:__Z42Register_UnityEngine_RectOffset_get_bottomv
B0i:__ZL55BinaryReader_t2428077293_CustomAttributesCacheGeneratorP21CustomAttributesCache
SDj:_newlocale
OTd:_ObjectDisposedException_get_Message_m1666887471
vrb:__ZN9BoundsInt8TransferI14SafeBinaryReadEEvRT_
ZMj:_emscripten_glUniform1f__wrapper
YHj:dynCall_di
fld:_X509Certificate_get_SubjectName_m3160893681
jIi:_BaseInvokableCall_AllowInvoke_m878393606
nrc:__Z28RegisterModule_JSONSerializev
Idi:_il2cpp_monitor_enter
Ujb:__ZN2UI13RectTransform8TransferI14SafeBinaryReadEEvRT_
zsc:__Z35Transfer_Blittable_FixedBufferFieldI9JSONWriteaEvRK29SerializationCommandArgumentsR31RuntimeSerializationCommandInfo
tEi:_Behaviour_get_enabled_m753527255
kcc:__Z20IsHumanControllingUsv
BYe:_Enumerator_MoveNext_m181298207_gshared
vJg:__Z44RuntimeInvoker_ParameterModifier_t1461694466PFvvEPK10MethodInfoPvPS4_
GW:__ZNK20DynamicHeapAllocatorI17LowLevelAllocatorE10GetPtrSizeEPKv
uVg:_List_1_System_Collections_IList_get_IsReadOnly_m3278465421_gshared
v0i:__ZL51TextInfo_t3810425522_CustomAttributesCacheGeneratorP21CustomAttributesCache
EMa:__ZN10systeminfo21GetPersistentDataPathEv
$Gh:_SymmetricTransform_get_KeepLastBlock_m2492071306
Lpa:__ZN13GfxDeviceGLES17DestroyGpuProgramEPK10GpuProgram
Rlh:_Array_InternalArray__set_Item_TisRaycastResult_t3360306849_m730888808_gshared
Rnb:__Z44InitializeTransferFunctionScriptingTraitsForI18StreamedBinaryReadILb0EEEvR31TransferFunctionScriptingTraits
cYe:_Enumerator_System_Collections_IEnumerator_Reset_m53411943_gshared
mSb:__ZNSt3__218__insertion_sort_3IR23CompareReflectionProbesP31RuntimeReflectionProbeBlendInfoEEvT0_S5_T_
ytb:__ZN12NativeBufferI27Converter_SimpleNativeClassI8GradientEE15SetupForWritingER9ArrayInfo
Mye:_Kernel_RightShift_m2207393597
rga:__ZNSt3__213__stable_sortIRNS_4lessIN4core12basic_stringIcNS2_20StringStorageDefaultIcEEEEEENS_11__wrap_iterIPS6_EEEEvT0_SC_T_NS_15iterator_traitsISC_E15difference_typeEPNSF_10value_typeEi
nBj:__ZL48Shadow_t773074319_CustomAttributesCacheGeneratorP21CustomAttributesCache
k8:__ZN12_GLOBAL__N_113StaticDestroyEPv
KRj:_glUnmapBuffer__wrapper
LWe:_Transform_1__ctor_m3369371265_gshared
fwc:__ZN8JSONRead21TransferSTLStyleArrayINSt3__26vectorI8Gradient13stl_allocatorIS3_L18MemLabelIdentifier1ELi16EEEEEEvRT_17TransferMetaFlags
rdb:__ZNSt3__218__insertion_sort_3IRNS_6__lessINS_4pairIPKN5Unity4TypeE7Hash128EES8_EEPS8_EEvT0_SC_T_
kje:_InputField_set_onValueChanged_m3658917578
gvb:__ZN10RectOffset8TransferI24GenerateTypeTreeTransferEEvRT_
cth:_TlsClientSettings_get_ClientCertificate_m3139459118
qJd:_BinaryReader__ctor_m2266204403
uAe:__ZN21InterfaceFuncInvoker5IiP22ByteU5BU5D_t4116647657iiS1_iE6InvokeEjP11Il2CppClassP12Il2CppObjectS1_iiS1_i
ufg:_Enumerator_VerifyState_m3047769867_AdjustorThunk
sub:__Z18Transfer_BlittableI24GenerateTypeTreeTransferLb1E5RectTIiEEvRK29SerializationCommandArgumentsR31RuntimeSerializationCommandInfo
aoc:__ZN16GUIKeyboardStateD2Ev
mPc:__ZN2UI13CanvasManager19RemoveDirtyRendererEPNS_6CanvasEPNS_14CanvasRendererE
UCj:_isspace
bge:_BinaryFormatter__ctor_m2620705134
RGb:__Z15GetIApplicationv
ZUc:__ZN11UnityEngine15PlatformWrapper25GetGraphicsRendererStringEv
fWf:_UTF7Encoding_InternalGetBytes_m797138468
p4b:__ZZL31RegisterRectTransformPropertiesR22GenericPropertyBindingEN39Wrapper_RectTransformAnchoredPositiony113SetFloatValueEPvf
nV:__ZN11UnityEngine15CloudWebService17WebFileDownloaderINS0_20WebRequestRestClientENS0_23WebRequestRestHeaderMapEED2Ev
Qb:invoke_vi
Wld:_SmallXmlParser_HandleWhitespaces_m549588711
Otc:__ZN9JSONWrite8TransferI13dynamic_arrayI9BoundsIntLj4EEEEvRT_PKc17TransferMetaFlags
Ob:invoke_vd
pb:invoke_vf
Yxh:_Regex_get_RightToLeft_m2317867572
q3:__ZNK10GameObject8IsActiveEv
Agc:__Z34Component_Get_Custom_PropTransformP12Il2CppObject
ysj:__ZL83Canvas_t3310196443_CustomAttributesCacheGenerator_Canvas_get_rootCanvas_m3165691493P21CustomAttributesCache
csj:__ZL67g_UnityEngine_PhysicsModule_Assembly_CustomAttributesCacheGeneratorP21CustomAttributesCache
Wvh:_X509Certificate_get_SignatureAlgorithm_m122054440
RCa:__ZN18GfxFramebufferGLES23SetupDefaultFramebufferEPP17RenderSurfaceBaseS2_N2gl6HandleILNS3_10ObjectTypeE9EEE
I6g:_ReadOnlyCollection_1_get_Item_m3437922467_gshared
v8c:_DefaultControls_CreateDropdown_m3286664171
E6a:__ZN13ScreenManager18RequestOrientationE17ScreenOrientation
GUh:__ZN6il2cpp2vm5Class12SetupMethodsEP11Il2CppClass
Adc:__Z39DeleteLastPathNameComponentWithAnySlashRKN4core12basic_stringIcNS_20StringStorageDefaultIcEEEE
lnc:__ZN10GUIManager14InitGUIManagerEv
mxg:__Z77RuntimeInvoker_Void_t1185182177_RegexOptionsU26_t1638284957_SByte_t1669577662PFvvEPK10MethodInfoPvPS4_
BAj:__ZL78LayoutRebuilder_t541313304_CustomAttributesCacheGenerator_U3CU3Ef__amU24cache1P21CustomAttributesCache
f2h:__ZNSt3__26vectorIP11Il2CppClassNS_9allocatorIS2_EEE26__swap_out_circular_bufferERNS_14__split_bufferIS2_RS4_EE
B0f:_UInt16_Equals_m642257745
hod:_Array_System_Collections_IList_IndexOf_m3301661616
XUd:_AssemblyFileVersionAttribute__ctor_m3720707642
j6d:_RuntimeResourceSet_CloneDisposableObjectIfPossible_m2725520898
Sid:_HMACSHA384_set_ProduceLegacyHmacValues_m76936446
upc:__Z37Register_UnityEngine_GUIStyle_Cleanupv
Ma:invoke_iiifii
Ylc:__Z26Mesh_CUSTOM_SetIndicesImplP12Il2CppObjecti16GfxPrimitiveTypeP11Il2CppArrayihi
Xte:_SliderEvent__ctor_m3149452941
lkd:_DeriveBytes__cctor_m1212925033
m4c:_UIBehaviour_OnDestroy_m1613239498
R7b:__ZN8GUILayer12AddToManagerEv
dbd:_Graphic_OnDisable_m1097930217
U1h:__ZN6il2cpp6icalls8mscorlib6System8MonoType13IsPointerImplEP20Il2CppReflectionType
Qi:_emscripten_glFramebufferRenderbuffer
XUb:__ZN19CullingGroupManager17CullAndSendEventsERK22SceneCullingParametersiRK13CullingOutputRK8JobFence
k8d:__ZN21InterfaceFuncInvoker3IP12Il2CppObjectP8String_tS1_PS3_E6InvokeEjP11Il2CppClassS1_S3_S1_S4_
WRh:_AnimationLayerMixerPlayable_GetHandle_m3854437798_AdjustorThunk
wNg:_List_1_ToArray_m2949058867_gshared
Yjj:__ZL98DataUtility_t2196215967_CustomAttributesCacheGenerator_DataUtility_Internal_GetMinSize_m2628270685P21CustomAttributesCache
mRa:__ZN9Transform30EnsureTransformHierarchyExistsEv
z_f:_Type_FilterName_impl_m2651733559
Xod:_Array_GetValue_m116098292
J5f:_Dictionary_2_System_Collections_Generic_ICollectionU3CSystem_Collections_Generic_KeyValuePairU3CTKeyU2CTValueU3EU3E_Add_m1448015620_gshared
ufc:__Z46Register_UnityEngine_Application_get_isPlayingv
d4g:_Collection_1_ClearItems_m2182923889_gshared
n_b:__ZNSt3__26vectorINS_4pairIN4core12basic_stringIcNS2_20StringStorageDefaultIcEEEEPK17MessageIdentifierEENS_9allocatorISA_EEE12__move_rangeEPSA_SE_SE_
wOb:__ZN14qsort_internal17MedianOfThreeSwapIP17RODataReplacement19ROSorterReplacementEEvT_S4_S4_T0_
DGf:_String_Split_m3646115398
HQi:_RectOffset_ToString_m2007443979
wTh:__ZNK15dense_hashtableINSt3__24pairIK10KeyWrapperIPK22Il2CppGenericParameterEP11Il2CppClassEES6_N6il2cpp5utils11PointerHashIS4_EEN14dense_hash_mapIS6_S9_SE_NS6_14EqualsComparerINS0_8equal_toIS5_EEEENS0_9allocatorISA_EEE9SelectKeyESJ_SL_E3endEv
wdc:__ZN17TransformInternal36OnScaleChangedCalculateTransformTypeE15TransformAccess
qNa:__ZN17ArchiveFileSystem10ToAbsoluteEPKc
MVc:__ZN19UnityConnectService15GetPlayerUserIdEv
VOf:_Array_InternalArray__IndexOf_TisSByte_t1669577662_m4156538463_gshared
VVi:_Vector4_GetHashCode_m536821243_AdjustorThunk
ir:__ZN7mecanim6CRCKeyENS_7eStringE
cJh:__ZL24UnresolvedVirtualCall_18P12Il2CppObjectiPK10MethodInfo
ebc:__ZL12SetPrefValueRKN4core12basic_stringIcNS_20StringStorageDefaultIcEEEERK9PrefValue
Iqj:__ZL81GUIStyle_t3956901511_CustomAttributesCacheGenerator_GUIStyle_get_name_m2109418832P21CustomAttributesCache
hia:__ZL30ReconstructParamNamesFromTableIN9ShaderLab20SerializedSubProgram15MatrixParameterEEvRK14dense_hash_mapIiN4core17string_with_labelILi1EEE18SInt32HashFunctionNSt3__28equal_toIiEE13stl_allocatorINS8_4pairIKiS6_EEL18MemLabelIdentifier1ELi16EEERNS8_6vectorIT_NS8_9allocatorISL_EEEE
l9a:__ZN19ShaderPropertySheet20ReservePropertyCountEj
ati:__ZN6il2cpp5utils11StringUtils6PrintfEPKcz
cfi:__ZNSt3__26vectorIN6il2cpp8metadata18GenericArrayMethodENS_9allocatorIS3_EEE7reserveEj
Ema:__ZN15NameToObjectMapI6ShaderNSt3__23mapI4PPtrIS0_EN4core12basic_stringIcNS5_20StringStorageDefaultIcEEEENS1_4lessIS4_EENS1_9allocatorINS1_4pairIKS4_S9_EEEEEENS1_8multimapIS9_S4_NSA_IS9_EENSC_INSD_IKS9_S4_EEEEEEE4FindERSK_
q2a:__ZN24GenerateTypeTreeTransfer21TransferResourceImageE19ActiveResourceImagePKcR13StreamingInfoPvjiPKN5Unity4TypeE
Unh:_Array_Sort_TisVector3_t3722313464_m1030213405_gshared
Eoi:__ZN6il2cpp2vm6Object5CloneEP12Il2CppObject
Roj:__ZL94TextGenerator_t3211863866_CustomAttributesCacheGenerator_TextGenerator_Dispose_cpp_m1826354328P21CustomAttributesCache
ZAi:__ZN6il2cpp6icalls8mscorlib6System9Threading5Mutex20CreateMutex_internalEbP12Il2CppStringPb
eRj:_emscripten_glLinkProgram__wrapper
EGi:_Coroutine_Finalize_m1957108547
SXa:__ZNSt3__212__deque_baseI18ReflectionProbeJobNS_9allocatorIS1_EEED2Ev
Ez:__ZN11UnityEngine9Animation27DestroyAnimationSetBindingsEPNS0_20AnimationSetBindingsERN7mecanim6memory9AllocatorE
nia:__ZN15dense_hashtableINSt3__24pairIKiN4core17string_with_labelILi1EEEEEi18SInt32HashFunctionN14dense_hash_mapIiS5_S7_NS0_8equal_toIiEE13stl_allocatorIS6_L18MemLabelIdentifier1ELi16EEE9SelectKeyESA_SD_E13set_empty_keyERKS6_
sGi:_Component_GetComponentInChildren_m388868270
idg:_GenericEqualityComparer_1_Equals_m1705889345_gshared
oE:__ZN8Animator12CleanupClassEv
dwc:__Z13TransferFieldI8JSONReadLb0E27Converter_SimpleNativeClassI10RectOffsetEEvRK23StaticTransferFieldInfoR31RuntimeSerializationCommandInfoRT1_
Wbd:__ZN21InterfaceFuncInvoker0IiE6InvokeEjP11Il2CppClassP12Il2CppObject
H0e:_FtpWebRequest__cctor_m699542155
fJh:__ZL24UnresolvedVirtualCall_21P12Il2CppObjectS0_iPK10MethodInfo
emi:__GLOBAL__sub_I_GenericMetadata_cpp
NYi:__ZL70RuntimeArray_CustomAttributesCacheGenerator_Array_SetValue_m3412648248P21CustomAttributesCache
G$e:_NameObjectCollectionBase_GetEnumerator_m3677320185
LVb:__Z24CalculateSpotLightBoundsffRK10Matrix4x4fR15SpotLightBounds
Ckh:_ListPool_1_Get_m3176656818_gshared
z4f:_Dictionary_2_TryGetValue_m3495031886_gshared
KZa:__ZNK13RenderTexture21GetShadowSamplingModeEv
AR:__ZN23CloudWebServicesManager23VirtualRedirectTransferER14SafeBinaryRead
PDe:_PKCS12_AddCertificate_m3857004455
Rpe:_GetRayIntersectionAllCallback__ctor_m391992746
XEb:__Z19ShouldTransferFieldR32SerializationCommandQueueBuilder17ScriptingClassPtriR18TransferField_InfoRK20CoreScriptingClasses
o7i:__ZL67RSACryptoServiceProvider_t2683512874_CustomAttributesCacheGeneratorP21CustomAttributesCache
EKg:__Z56RuntimeInvoker_Int32_t2950945753_SpriteState_t1362986479PFvvEPK10MethodInfoPvPS4_
VDf:_SecurityElement_IsValidText_m1346599242
u1b:__Z33PPtrToObjectDontLoadNoThreadCheckI8MaterialEPT_4PPtrIS1_E
PHa:__ZN26SinglePassStereoSupportExt21SetStereoMatrixCommonE21MonoOrStereoscopicEye24BuiltinShaderMatrixParamRK10Matrix4x4f
NK:__ZN5audio5mixer22UpdateAudioMixerMemoryERKNS0_18AudioMixerConstantERNS0_16AudioMixerMemoryEfPN4FMOD6SystemEf
hyc:__ZL21InitializeCachedStripPv
R4f:_Dictionary_2_System_Collections_Generic_ICollectionU3CSystem_Collections_Generic_KeyValuePairU3CTKeyU2CTValueU3EU3E_Add_m3652125112_gshared
E9i:__ZL80Thread_t2300836069_CustomAttributesCacheGenerator_Thread_GetHashCode_m3479107071P21CustomAttributesCache
qhi:__ZN6il2cpp6icalls8mscorlib6System9Threading6Thread23GetCachedCurrentCultureEP12Il2CppThread
iY:__ZNK6Camera22GetWorldToCameraMatrixEv
hHj:runPostSets
Uoi:__ZN6il2cpp2vm12GenericClass11IsValueTypeEP18Il2CppGenericClass
SDb:__ZN13MonoBehaviour7SetNameEPKc
Kde:_MethodDictionary_IsOverridenKey_m946843558
FLd:_FileStream_BeginRead_m2419864669
Qjh:_U3CStartU3Ec__Iterator0_MoveNext_m4270440387_gshared
nYh:__ZN10KeyWrapperIN6il2cpp5utils13dynamic_arrayIPK10Il2CppTypeLj4EEEEC2ERKS7_
MIb:__ZN17InstancingBatcher22FindCBUpperBoundKonstsEv
Y7:__GLOBAL__sub_I_runtime_shaders_shaderimpl_0_cpp
Ogb:__ZN18AwakeFromLoadQueue5ClearEv
bMd:_FileStream_SetLength_m99749826
mUb:__ZNSt3__27__sort5IR15ReflProbeSorterPP15ReflectionProbeEEjT0_S6_S6_S6_S6_T_
xea:__ZN8Playable10DisconnectEPS_i
uk:_glGenTransformFeedbacks
fMa:__ZN13LoadOperationD2Ev
xsj:__ZL86Canvas_t3310196443_CustomAttributesCacheGenerator_Canvas_set_sortingLayerID_m861680532P21CustomAttributesCache
Xhg:_List_1_System_Collections_ICollection_get_SyncRoot_m1990178029_gshared
PEd:_Int16_System_IConvertible_ToType_m3672347013
Roe:_Navigation_set_mode_m3709908198_AdjustorThunk
q$f:_Type_GetProperty_m4206634422
Dmd:_AttrListImpl_GetValue_m3657391095
IHb:__Z21PlayerStartFirstSceneb
OVg:_List_1_CheckIndex_m3933537097_gshared
a1a:__ZNSt3__27__sort5IRPFbRKNS_4pairIN9ShaderLab16FastPropertyNameEN18UnityPropertySheet11UnityTexEnvEEES8_EPS6_EEjT0_SD_SD_SD_SD_T_
cva:__ZNK7ApiGLES18GetExtensionStringEv
nVg:_List_1_System_Collections_IList_IndexOf_m2444653486_gshared
Vvg:__Z50RuntimeInvoker_SecurityCompressionType_t4242483129PFvvEPK10MethodInfoPvPS4_
_Mj:_emscripten_glVertexAttrib1f__wrapper
R7f:_DefaultComparer_GetHashCode_m402448534_gshared
Ukb:__ZNK12HandlerChain4SizeERK13FileEntryData
Yo:FUNCTION_TABLE_iiiiiiiii
hUe:_Enumerator_Dispose_m1360775770_AdjustorThunk
lYg:_Collection_1_ClearItems_m1096166028_gshared
T7g:_ReadOnlyCollection_1_System_Collections_Generic_ICollectionU3CTU3E_Remove_m4177779688_gshared
Xtd:_Char_IsLetter_m3996985877
EWg:_Queue_1_Peek_m2302800625_gshared
iYi:__ZL51Delegate_t1188392813_CustomAttributesCacheGeneratorP21CustomAttributesCache
fDh:_Uri__ctor_m253204164
_Mg:_List_1_AddCollection_m4263017124_gshared
Zvi:_GC_allochblk
cbe:__ZN21InterfaceFuncInvoker1IbP19Context_t3285446944E6InvokeEjP11Il2CppClassP12Il2CppObjectS1_
Zgb:__Z15UnloadGameScenev
BRf:_Array_InternalArray__ICollection_CopyTo_TisKeyframe_t4206410242_m2132255743_gshared
FRj:_glCheckFramebufferStatus__wrapper
Mcd:_Image__ctor_m2551076292
i_e:_Dictionary_2_System_Collections_ICollection_CopyTo_m3143696177_gshared
_8h:__ZN15dense_hashtableINSt3__24pairIK10KeyWrapperIPK14Il2CppAssemblyEPK22Il2CppMonoAssemblyNameEES6_N6il2cpp5utils11PointerHashIS4_EEN14dense_hash_mapIS6_SA_SF_NS6_14EqualsComparerINS0_8equal_toIS5_EEEENS0_9allocatorISB_EEE9SelectKeyESK_SM_E5clearEv
Tng:__Z103RuntimeInvoker_Void_t1185182177_Int32_t2950945753_Int32_t2950945753_Int32_t2950945753_SByte_t1669577662PFvvEPK10MethodInfoPvPS4_
SD:__ZN16MecanimAnimationD0Ev
OJh:__ZL24UnresolvedVirtualCall_56P12Il2CppObjectS0_iiS0_S0_PK10MethodInfo
Tlc:__Z36Renderer_Get_Custom_PropSortingOrderP12Il2CppObject
n5h:__ZNK15dense_hashtableINSt3__24pairIK10KeyWrapperIPK10Il2CppTypeEjEES6_N6il2cpp8metadata14Il2CppTypeHashEN14dense_hash_mapIS6_jSB_NS6_14EqualsComparerINSA_26Il2CppTypeEqualityComparerEEENS0_9allocatorIS8_EEE9SelectKeyESF_SH_E13find_positionERS7_
AZa:__ZN7Texture5ResetEv
Utb:__Z18Transfer_BlittableI24GenerateTypeTreeTransferLb0E8Vector2fEvRK29SerializationCommandArgumentsR31RuntimeSerializationCommandInfo
D7i:__ZL54SHA384Managed_t74158575_CustomAttributesCacheGeneratorP21CustomAttributesCache
Lae:_Context_get_HasDynamicSinks_m3952434387
vUf:_Latin1Encoding_GetByteCount_m1145650505
Jtb:__Z18Transfer_BlittableI24GenerateTypeTreeTransferLb1EhEvRK29SerializationCommandArgumentsR31RuntimeSerializationCommandInfo
DAb:__Z13TransferFieldI18StreamedBinaryReadILb1EELb0E16Converter_StringEvRK23StaticTransferFieldInfoR31RuntimeSerializationCommandInfoRT1_
F8f:_DefaultComparer_GetHashCode_m177499767_gshared
jbb:__ZN10VertexData10DeallocateEv
jbi:__ZNSt3__214__split_bufferIiRNS_9allocatorIiEEEC2EjjS3_
bfc:__ZNK16TypeTreeIterator10ByteOffsetEv
rIj:dynCall_iiifii
tda:__ZnwjRKSt9nothrow_t
PC:__ZN8Animator11ClearObjectEv
mMd:__ZN21InterfaceFuncInvoker3IiP22ByteU5BU5D_t4116647657iiE6InvokeEjP11Il2CppClassP12Il2CppObjectS1_ii
Cnd:_ApplicationException__ctor_m2557611022
V$a:__ZN14SafeBinaryRead19TransferSTLStyleMapINSt3__23mapI39DeprecatedFastPropertyNameSerializationN18UnityPropertySheet11UnityTexEnvENS1_4lessIS3_EENS1_9allocatorINS1_4pairIKS3_S5_EEEEEEEEvRT_17TransferMetaFlags
SSg:_List_1_CheckMatch_m579516778_gshared
Vrd:_Buffer_ByteLengthInternal_m1388208719
juj:__ZL92PointerEventData_t3807901092_CustomAttributesCacheGenerator_U3CworldNormalU3Ek__BackingFieldP21CustomAttributesCache
bRf:_Array_InternalArray__ICollection_CopyTo_TisInt64_t3736567304_m2845057751_gshared
Yec:__Z35UnregisterSerializationCacheBuilderPFv17ScriptingClassPtrR23CachedSerializationDataRbE
yXi:__ZL52ICloneable_t724424198_CustomAttributesCacheGeneratorP21CustomAttributesCache
fId:_Int64_System_IConvertible_ToUInt32_m109903525_AdjustorThunk
_3:__Z30GetBuiltinVectorParamArraySize24BuiltinShaderVectorParam
HRf:_Array_InternalArray__ICollection_CopyTo_TisUICharInfo_t75501106_m4268526610_gshared
t4h:__ZNSt3__218uninitialized_copyIPNS_4pairIK10KeyWrapperINS1_IPK14Il2CppAssemblyP11Il2CppClassEEEjEESC_EET0_T_SE_SD_
tZa:__ZN13RenderTextureC2E10MemLabelId18ObjectCreationMode
dFd:_Int32_GetFormatException_m519586683
M8i:__ZL46StringBuilder_t_CustomAttributesCacheGeneratorP21CustomAttributesCache
Yeg:_Enumerator_MoveNext_m1131351993_gshared
mUd:_RankException__ctor_m2226473861
Lqh:_Array_InternalArray__get_Item_TisVector2_t2156229523_m2502961026_gshared
x6:__ZN21RendererUpdateManager11AddRendererER8Renderer
X2b:__Z13RegisterClassI15ResourceManagerEvv
Aob:__Z35Transfer_Blittable_FixedBufferFieldI14SafeBinaryReadsEvRK29SerializationCommandArgumentsR31RuntimeSerializationCommandInfo
oab:__ZN14SafeBinaryRead21TransferSTLStyleArrayI13dynamic_arrayIfLj4EEEEvRT_17TransferMetaFlags
JBd:_Convert_ToDateTime_m3802186295
bti:__ZN6il2cpp5utils11StringUtils11Utf16ToUtf8EPKDs
yfb:__ZN18StreamedBinaryReadILb0EE21TransferSTLStyleArrayINSt3__26vectorIN15ResourceManager10DependencyE13stl_allocatorIS5_L18MemLabelIdentifier52ELi16EEEEEEvRT_17TransferMetaFlags
u2f:_UInt64_CompareTo_m1614517204_AdjustorThunk
oVc:__ZN11UnityEngine15PlatformWrapper20IsRootedOrJailbrokenEv
qLb:__ZZ23InitPlayerLoopCallbacksvEN52PreLateUpdateScriptRunBehaviourLateUpdateRegistrator7ForwardEv
lCj:__ZN30GenericInterfaceActionInvoker1IP8String_tE6InvokeEPK10MethodInfoP12Il2CppObjectS1_
GVb:__Z33IntersectAABBPlaneBoundsOptimizedRK4AABBPKN4math7_float4Ei
NYb:__ZN19ScriptingInvocation6InvokeI28ScriptingSystemTypeObjectPtrEET_P21ScriptingExceptionPtrb
aqa:__ZN9GfxDevice19EndGeometryJobFrameEv
JEh:_GUILayoutUtility_Layout_m1159951704
nie:_InputField_get_shouldActivateOnSelect_m3055465770
o8f:_DefaultComparer_Equals_m2269092119_gshared
Dtb:__ZN27Converter_SimpleNativeClassI17AnimationCurveTplIfEE17ScriptingToNativeER18ScriptingObjectPtrPS1_
y_f:_Type__cctor_m2371893800
KBi:__ZN6il2cpp8metadata24Il2CppGenericInstCompare7CompareERK10KeyWrapperIPK17Il2CppGenericInstES8_
QWh:__ZNK15dense_hashtableINSt3__24pairIK10KeyWrapperIPK19Il2CppGenericMethodEPK26Il2CppGenericMethodIndicesEES6_N6il2cpp8metadata23Il2CppGenericMethodHashEN14dense_hash_mapIS6_SA_SE_NS6_14EqualsComparerINSD_26Il2CppGenericMethodCompareEEENS0_9allocatorISB_EEE9SelectKeyESI_SK_E5beginEv
N0c:_ExecuteEvents_Execute_m3049310229
xt:__ZN27AnimationLayerMixerPlayable21UpdateLayerParametersEv
skj:__ZL84Object_t631007953_CustomAttributesCacheGenerator_Object_DestroyImmediate_m2288369078P21CustomAttributesCache
r_d:__ZN21InterfaceFuncInvoker1IiP12MemberInfo_tE6InvokeEjP11Il2CppClassP12Il2CppObjectS1_
yod:_Array_get_IsSynchronized_m3066873806
bw:__ZN7mecanim9animation16CopyMotionOutputEPKNS0_18AnimationNodeStateEPS1_bbRKNS_6bitsetILj83EEE
f1b:__ZNK17AnimationCurveTplIfE8EvaluateEfPNS0_5CacheE
uKb:__Z31ManagerContextInitializeClassesv
a8g:_ReadOnlyCollection_1_System_Collections_IList_Contains_m2650112051_gshared
oJf:_Array_get_swapper_TisVector3_t3722313464_m1221246401_gshared
K7g:_ReadOnlyCollection_1_CopyTo_m1950082901_gshared
$Fc:_ft_smooth_transform
vGc:_UNITY_FT_List_Finalize
rBi:__ZN6il2cpp6icalls8mscorlib6System7Runtime8Remoting10Activation18ActivationServices34AllocateUninitializedClassInstanceEP20Il2CppReflectionType
zPb:__Z20LightAttenuateApproxRKfS0_
p7:__ZN9Scripting30SetCachedPtrOnScriptingWrapperE18ScriptingObjectPtrP6Object
dzd:_HashKeys_get_IsSynchronized_m174400341
VW:__ZN17LowLevelAllocator6MallocEj
$Fg:__Z57RuntimeInvoker_Int32_t2950945753_KeyValuePair_2_t71524366PFvvEPK10MethodInfoPvPS4_
Lv:__ZN17AnimationPlayable17SetInternalWeightEf
zih:_UnityEvent_1__ctor_m1789019280_gshared
m8e:_RepeatContext_get_IsMinimum_m3640286252
flg:__Z64RuntimeInvoker_Boolean_t97287965_RuntimeObject_Int32_t2950945753PFvvEPK10MethodInfoPvPS4_
SIe:_InternalEnumerator_1__ctor_m4055378331_AdjustorThunk
Xhe:_ObjectRecord_ChainFixup_m1889316362
kXa:__ZN18BlockRangeInternal16PopLastNodeIndexEP10BlockRangeji
x6h:__ZN6il2cpp2gc19AppendOnlyGCHashMapINSt3__24pairIPK11Il2CppImageP11Il2CppClassEEP22Il2CppReflectionModule17ReflectionMapHashIS9_ENS2_8equal_toIS9_EEE10CopyValuesEPv
a4c:_TouchInputModule_UpdateModule_m2582897964
K9a:__ZN4MeshD0Ev
p_c:__ZL42RequestRecreateEyeTexturesBeforeNextUpdatev
Fze:__ZN28GenericInterfaceFuncInvoker1IbiE6InvokeEPK10MethodInfoP12Il2CppObjecti
kv:__ZN21AnimationClipPlayable23ProcessRootMotionNoClipEPK35AnimationPlayableEvaluationConstantPK32AnimationPlayableEvaluationInputP33AnimationPlayableEvaluationOutput
bSc:__Z36CanvasRenderer_CUSTOM_SetPopMaterialP12Il2CppObjectS0_i
Gsc:__Z18Transfer_BlittableI9JSONWriteLb0EdEvRK29SerializationCommandArgumentsR31RuntimeSerializationCommandInfo
XCc:_otv_u_O_O_u_O_O
MSa:__ZN6Camera8TransferI19StreamedBinaryWriteILb0EEEEvRT_
Oof:_DBNull_System_IConvertible_ToSByte_m3533624679
nDj:_wctomb
Ntd:_Char_CompareTo_m42489266
BHg:__Z67RuntimeInvoker_Void_t1185182177_Int32_t2950945753_Double_t594665363PFvvEPK10MethodInfoPvPS4_
ggc:__Z27Camera_CUSTOM_GetAllCamerasP11Il2CppArray
TDb:__ZNK13MonoBehaviour25GetNeedsPerObjectTypeTreeEv
MAb:__Z35Transfer_Blittable_FixedBufferFieldI18StreamedBinaryReadILb0EEiEvRK29SerializationCommandArgumentsR31RuntimeSerializationCommandInfo
Wc:___cxa_rethrow
F4d:_ParameterInfo_GetCustomAttributes_m2376494592
juc:__Z18Transfer_BlittableI8JSONReadLb1EhEvRK29SerializationCommandArgumentsR31RuntimeSerializationCommandInfo
Xad:_Graphic_get_canvasRenderer_m315509948
R_g:_Collection_1_System_Collections_IList_Contains_m3397768605_gshared
Uoe:_Navigation_set_selectOnUp_m827629728_AdjustorThunk
kzg:__Z90RuntimeInvoker_Void_t1185182177_Int64_t3736567304_Int32_t2950945753_RuntimeObject_IntPtr_tPFvvEPK10MethodInfoPvPS4_
eNj:_glBindRenderbuffer__wrapper
Toh:_Dictionary_2_Do_CopyTo_TisInt32_t2950945753_TisInt32_t2950945753_m3384108308_gshared
Xcc:__ZN10systeminfo23SupportsLocationServiceEv
Hwf:_CultureInfo_construct_internal_locale_from_name_m3254739477
Pjf:_RSASslSignatureDeformatter_VerifySignature_m1061897602
oCe:_RSAManaged_remove_KeyGenerated_m2046909903
vjd:_RandomNumberGenerator_Create_m4162970280
mSf:_Array_InternalArray__Insert_TisLabelFixup_t858502054_m171542753_gshared
uPe:_InternalEnumerator_1_System_Collections_IEnumerator_get_Current_m3539708496_AdjustorThunk
Ilb:__ZN20LocalFileSystemPosix4ReadER13FileEntryDatayyPvPy
XSb:__ZNSt3__211__sift_downIRN23ForwardShaderRenderLoop18RenderObjectSorterILb0EEEP21ForwardRenderPassDataEEvT0_S7_T_NS_15iterator_traitsIS7_E15difference_typeES7_
GCf:_SecurityPermission__ctor_m1462427327
FJj:dynCall_iiiiiiffiiiiiiiiiffffiiii
gEb:__ZN13MonoBehaviour5DoGUIENS_13GUILayoutTypeEii
z8d:_ChannelData_get_ClientProviders_m594662942
nzh:_QuickSearch_GetChar_m1297698557
VKa:__ZNK12TLSAllocatorI14StackAllocatorE8ContainsEPKv
Ycb:__ZN11TimeManager8TransferI18StreamedBinaryReadILb0EEEEvRT_
jkg:__Z68RuntimeInvoker_Boolean_t97287965_Int16_t2552820387_SByte_t1669577662PFvvEPK10MethodInfoPvPS4_
lnf:_DateTime__ParseEnum_m253019513
NDd:_Convert_ToUInt32_m2194577773
X9a:__ZN14BlendShapeData8TransferI14SafeBinaryReadEEvRT_
O6:__ZN15dense_hashtableINSt3__24pairIKyP17VertexDeclarationEEy14GfxGenericHashIyEN14GfxDoubleCacheIyS4_S7_NS0_8equal_toIyEEN31GfxDoubleCacheConcurrencyPolicy11LocklessGetE42GfxDoubleCacheDefaultEmptyDeletedGeneratorIyEE9SelectKeyESA_13stl_allocatorIS5_L18MemLabelIdentifier24ELi16EEE12resize_deltaEjj
Oyd:_Hashtable_Remove_m4032631466
LAe:_DSAManaged_GenerateKeyPair_m2236915969
kej:__ZL91RSASslSignatureFormatter_t2709678514_CustomAttributesCacheGenerator_U3CU3Ef__switchU24map16P21CustomAttributesCache
c2a:__ZN7Texture25ReloadFromStorageIfNeededEPvb
pOf:_Array_InternalArray__IndexOf_TisBoolean_t97287965_m1161209222_gshared
DAi:__ZN6il2cpp2os12Cryptography24OpenCryptographyProviderEv
bsj:__ZL55RaycastHit2D_t2279581989_CustomAttributesCacheGeneratorP21CustomAttributesCache
twd:_SynchronizedArrayListWrapper_Clear_m2191301493
xHc:_Update_Max
Egi:__ZN6il2cpp6icalls8mscorlib6SystemL15ThrowNoWideningEv
q1b:__ZNK23TransformChangeDispatch24GetChangeMaskForInterestENS_12InterestTypeE
z9b:__ZN8Playable5PauseEv
Ukc:__Z45Transform_CUSTOM_INTERNAL_CALL_TransformPointP12Il2CppObjectRK8Vector3fRS1_
MZd:_GenericTypeParameterBuilder_InvokeMember_m1647304778
Jcd:_HorizontalOrVerticalLayoutGroup_set_childControlWidth_m3261460516
k0a:__ZNSt3__26__treeINS_12__value_typeI39DeprecatedFastPropertyNameSerializationfEENS_19__map_value_compareIS2_S3_NS_4lessIS2_EELb1EEENS_9allocatorIS3_EEE7destroyEPNS_11__tree_nodeIS3_PvEE
rFc:_tt_cmap4_char_index
J4c:_AspectRatioFitter_GetParentSize_m3159144324
QEf:_SecurityFrame_get_Assembly_m2874566710
cGe:_InternalEnumerator_1__ctor_m2336656763_AdjustorThunk
dWg:_Enumerator_System_Collections_IEnumerator_Reset_m1487823313_gshared
clb:__ZNK12HandlerChain8IsHiddenERK13FileEntryData
UMg:_List_1_System_Collections_IList_get_IsFixedSize_m1752888098_gshared
Tsb:__ZL26Transfer_SimpleNativeClassI17RemapPPtrTransfer10RectOffsetLb0EEvRK29SerializationCommandArgumentsR31RuntimeSerializationCommandInfo
rMc:__Z14ValidateFormatR13dynamic_arrayIN20TextRenderingPrivate16TextFormatChangeELj4EE
Zse:_ScrollRect_CalculateLayoutInputVertical_m3155297482
EHd:_Int32_ToString_m2507389746_AdjustorThunk
Xqf:_Decimal_op_Explicit_m438967917
D5i:__ZL55IChannelInfo_t3866172133_CustomAttributesCacheGeneratorP21CustomAttributesCache
oSh:_AnimatorControllerPlayable_SetHandle_m2260644454_AdjustorThunk
Ghh:__ZN30GenericInterfaceActionInvoker2IP12Il2CppObjectS1_E6InvokeEPK10MethodInfoS1_S1_S1_
iuf:_Environment_get_SocketSecurityEnabled_m190813817
Kyg:__Z53RuntimeInvoker_Void_t1185182177_Vector4U26_t200349727PFvvEPK10MethodInfoPvPS4_
jnj:__ZL57UnityEventBase_t3960448221_CustomAttributesCacheGeneratorP21CustomAttributesCache
uNd:_NullStream_Flush_m3382897993
Hja:__ZNSt3__26vectorIN9ShaderLab20SerializedSubProgram13BufferBindingENS_9allocatorIS3_EEEC2ERKS6_
eje:_InputField_set_selectionColor_m2084640295
PJg:__Z114RuntimeInvoker_Int32_t2950945753_CustomAttributeTypedArgument_t2723150157_CustomAttributeTypedArgument_t2723150157PFvvEPK10MethodInfoPvPS4_
Roh:_Dictionary_2_Do_CopyTo_TisKeyValuePair_2_t2401056908_TisKeyValuePair_2_t2401056908_m676905794_gshared
W3:__ZNK9ShaderLab20ShaderBlendStateDesc15ToGfxBlendStateEPK19ShaderPropertySheetS3_R13GfxBlendState
n9d:_ConfigHandler_OnIgnorableWhitespace_m278399491
Raj:__ZL77Convert_t2465617642_CustomAttributesCacheGenerator_Convert_ToInt64_m260173354P21CustomAttributesCache
iz:__ZN11UnityEngine9AnimationL22GenericBindingCallbackEPvS1_i
cHc:_Compute_Point_Displacement
goa:__ZN9ShaderLab9IntShaderC2Ev
Gdh:_Func_3__ctor_m1375075958_gshared
ZKh:__ZL25UnresolvedVirtualCall_121P12Il2CppObjectaiS0_PK10MethodInfo
$1h:__ZN6il2cpp6icalls8mscorlib6SystemL9IsPrivateEPK9EventInfo
uAi:__ZN6il2cpp6icalls8mscorlib6System10Reflection4Emit11TypeBuilder20setup_internal_classEP27Il2CppReflectionTypeBuilderS7_
Pbc:__Z18TransformPoints3x4RK10Matrix4x4fPK8Vector3fjPS2_ji
Udj:__ZL72PKCS12_t4101533061_CustomAttributesCacheGenerator_U3CU3Ef__switchU24mapCP21CustomAttributesCache
OOf:_Array_InternalArray__IndexOf_TisILTokenInfo_t2325775114_m2602704009_gshared
mjj:__ZL52Matrix4x4_t1817901843_CustomAttributesCacheGeneratorP21CustomAttributesCache
_4f:_Dictionary_2_System_Collections_IDictionary_GetEnumerator_m972834308_gshared
GQg:_List_1_System_Collections_ICollection_get_IsSynchronized_m967177678_gshared
kVf:_StringBuilder_AppendFormat_m3255666490
bUd:_OverflowException__ctor_m4029085969
B0d:_TypeBuilder_GetGenericArguments_m2872156836
Dde:_MethodCall_get_Uri_m1720935531
yKh:__ZL24UnresolvedVirtualCall_94P12Il2CppObjectS0_S0_iPK10MethodInfo
gTh:__ZN13Il2CppHashMapIPK22Il2CppGenericParameterP11Il2CppClassN6il2cpp5utils11PointerHashIS1_EENSt3__28equal_toIS2_EENS9_9allocatorINS9_4pairIK10KeyWrapperIS2_ES4_EEEEEC2EjRKS8_RKSB_
DBe:_KeyPairPersistence_Remove_m1876145547
GMa:__Z15CreateDirectoryRKN4core12basic_stringIcNS_20StringStorageDefaultIcEEEE
HYa:__Z21CalculateGlobalMatrix23TransformAccessReadOnly
C0d:_TypeBuilder_GetGenericTypeDefinition_m1632720438
DJf:_Array_InternalArray__ICollection_Contains_TisLink_t544317964_m163190451_gshared
cof:_DateTimeOffset_System_IComparable_CompareTo_m176229495_AdjustorThunk
NKi:_ManagedStreamHelpers_ValidateLoadFromStream_m580138133
drj:__ZL104GUIUtility_t1868551600_CustomAttributesCacheGenerator_GUIUtility_EndContainerGUIFromException_m530164245P21CustomAttributesCache
bdb:__ZNK13BuildSettings22GetTypeVirtualInternalEv
kad:_FontData_get_alignByGeometry_m2805576119
shh:__ZN30GenericInterfaceActionInvoker1I17Scene_t2348375561E6InvokeEPK10MethodInfoP12Il2CppObjectS0_
NJe:_InternalEnumerator_1__ctor_m1486034688_gshared
Xxb:__Z35Transfer_Blittable_FixedBufferFieldI18StreamedBinaryReadILb1EEhEvRK29SerializationCommandArgumentsR31RuntimeSerializationCommandInfo
Y9i:__ZL56AppDomainSetup_t123196401_CustomAttributesCacheGeneratorP21CustomAttributesCache
UTg:_List_1_CheckIndex_m2250397830_gshared
V2b:__Z13RegisterClassI14RenderSettingsEvv
pGg:__Z60RuntimeInvoker_Int32_t2950945753_ResourceCacheItem_t51292791PFvvEPK10MethodInfoPvPS4_
xPh:_FontTextureRebuildCallback_EndInvoke_m3732346867
z:tempBigIntI
L8e:_Interval_get_Empty_m3617514670
AJg:__Z31RuntimeInvoker_Mark_t3471605523PFvvEPK10MethodInfoPvPS4_
JUd:_Assembly_GetName_m981771927
mfj:__ZL53RegexOptions_t92845595_CustomAttributesCacheGeneratorP21CustomAttributesCache
zx:__ZN7mecanim12statemachine24CreateStateMachineOutputEPKNS0_20StateMachineConstantEjRNS_6memory9AllocatorE
Soi:__ZN6il2cpp2vm12GenericClass8GetClassEP18Il2CppGenericClass
Bqa:__ZNK9GfxDevice27GetActiveRenderSurfaceWidthEv
lvj:__ZL114StandaloneInputModule_t2760469101_CustomAttributesCacheGenerator_StandaloneInputModule_ForceAutoSelect_m2837047882P21CustomAttributesCache
$Uc:__ZN11UnityEngine15PlatformWrapper28GetCleanGraphicsFixedVersionEv
Foe:_MaskableGraphic_RecalculateClipping_m1772937317
_Pd:_UnmanagedMemoryStream_SetLength_m3752964620
zmb:__ZN16MemoryFileSystem5WriteER13FileEntryDatayyPvPy
Yrh:_SslStreamBase_RaiseLocalPrivateKeySelection_m4112368540
Rbi:__ZN6il2cpp2vm4Type7GetTypeEPK10Il2CppType
CLc:_open_face_PS_from_sfnt_stream
oKe:_InternalEnumerator_1_get_Current_m165106323_AdjustorThunk
WVf:_UTF32Encoding_GetByteCount_m3610769032
uAa:__ZN6prcoreL17RemapGenericFloatI18TexFormatRGBAFloat17TexFormatRGBAHalfEEvPKNS_9InnerInfoE
XLb:__Z16FindCameraStacksRKNSt3__24listI4PPtrI6CameraENS_9allocatorIS3_EEEERNS_6vectorI11CameraStackNS4_ISA_EEEE
fyh:_MatchCollection_CopyTo_m3807326147
B4a:__ZN10GISettings8TransferI14SafeBinaryReadEEvRT_
un:FUNCTION_TABLE_vifff
uzj:__ZL54Text_t1901882714_CustomAttributesCacheGenerator_m_TextP21CustomAttributesCache
kjd:_MD5CryptoServiceProvider__ctor_m3271163125
sZb:__ZN19CustomRenderTexture12ClearGPUDataEv
QVe:__ZN28GenericInterfaceFuncInvoker2I26KeyValuePair_2_t3699644050iP12Il2CppObjectE6InvokeEPK10MethodInfoS2_iS2_
mkh:_ListPool_1_Get_m2875520964_gshared
h9i:__ZL95UnicodeEncoding_t1959134050_CustomAttributesCacheGenerator_UnicodeEncoding_GetBytes_m3223155660P21CustomAttributesCache
JZa:__ZN13RenderTexture13ApplySettingsEv
ehe:_ObjectReader_RegisterObject_m1853376334
n$d:_ModuleBuilderTokenGenerator_GetToken_m2588853565
frd:_Boolean_System_IConvertible_ToDecimal_m3176932461_AdjustorThunk
Ue:_JS_Sound_SetListenerPosition
mn:FUNCTION_TABLE_fiffi
lyg:__Z54RuntimeInvoker_Int32_t2950945753_LayerMask_t3493934918PFvvEPK10MethodInfoPvPS4_
Fse:_ScrollRect_OnInitializePotentialDrag_m3139711961
WKa:__ZNK12TLSAllocatorI14StackAllocatorE10GetPtrSizeEPKv
W7g:_ReadOnlyCollection_1_System_Collections_Generic_IListU3CTU3E_set_Item_m711370667_gshared
zli:__ZNK15dense_hashtableINSt3__24pairIK10KeyWrapperINS1_IPKcS4_EEEiEES6_24NamespaceAndNamePairHashN14dense_hash_mapIS6_iS9_NS6_14EqualsComparerI26NamespaceAndNamePairEqualsEENS0_9allocatorIS8_EEE9SelectKeyESD_SF_E10test_emptyERK24dense_hashtable_iteratorIS8_S6_S9_SH_SD_SF_E
JVd:_Default_check_arguments_with_score_m3467814020
JOj:_glGetActiveUniform__wrapper
COd:_StreamWriter_LowLevelWrite_m1081676583
bhg:_Enumerator__ctor_m3875432026_AdjustorThunk
Tda:__ZZN15DirectorManager15InitializeClassEvEN45FixedUpdateDirectorFixedSampleTimeRegistrator7ForwardEv
Vib:__ZNK8Material16MarkDependenciesER27GarbageCollectorThreadState
cue:_Slider_set_handleRect_m1101657556
qof:_DateTimeOffset_ToString_m3985341516_AdjustorThunk
e3g:_Collection_1_System_Collections_IList_Contains_m3348135931_gshared
Jsc:__ZL17Transfer_GUIStyleI9JSONWriteLb0EEvRK29SerializationCommandArgumentsR31RuntimeSerializationCommandInfo
rQb:__Z28GetHaloVertexPositionsStereoP8Vector3fRKS_S2_f
jBa:__ZN6prcoreL27StretchGenericFloatBilinearI15TexFormatRGHalfEEvPKNS_9InnerInfoE
jNh:__ZL25UnresolvedVirtualCall_241P12Il2CppObjectiPK10MethodInfo
U7:__GLOBAL__sub_I_runtime_misc_0_cpp
l_e:_Dictionary_2_System_Collections_IDictionary_GetEnumerator_m751864982_gshared
Pxf:_SortKey_GetHashCode_m3547067087
iBb:__Z18Transfer_BlittableI18StreamedBinaryReadILb0EELb1E9BoundsIntEvRK29SerializationCommandArgumentsR31RuntimeSerializationCommandInfo
qzj:__ZL71SpriteState_t1362986479_CustomAttributesCacheGenerator_m_DisabledSpriteP21CustomAttributesCache
gLh:__ZL25UnresolvedVirtualCall_130P12Il2CppObjectiPK10MethodInfo
G3e:_PublicKey_DecodeDSA_m3490622362
vjc:__Z49Register_UnityEngine_Resources_GetBuiltinResourcev
n$f:_Type_GetMethod_m1479779718
eFc:_tt_cmap10_char_index
wsh:_TlsException__ctor_m3242533711
jbf:_BitConverterLE_GetUIntBytes_m795219058
C5:__Z18GetITerrainManagerv
Mzd:_SortedList__ctor_m3676552745
KTh:__ZN15dense_hashtableINSt3__24pairIK10KeyWrapperIPK22Il2CppGenericParameterEP11Il2CppClassEES6_N6il2cpp5utils11PointerHashIS4_EEN14dense_hash_mapIS6_S9_SE_NS6_14EqualsComparerINS0_8equal_toIS5_EEEENS0_9allocatorISA_EEE9SelectKeyESJ_SL_E3endEv
RVh:__ZNK15dense_hashtableINSt3__24pairIK10KeyWrapperIPK11Il2CppClassEPKcEES6_N6il2cpp5utils11PointerHashIS3_EEN14dense_hash_mapIS6_S9_SE_NS6_14EqualsComparerINS0_8equal_toIS5_EEEENS0_9allocatorISA_EEE9SelectKeyESJ_SL_E8min_sizeEjj
pqb:__Z35Transfer_Blittable_SingleValueFieldI14SafeBinaryReadjEvRT_R17GeneralMonoObjectRK23StaticTransferFieldInfo
UP:__ZN11AudioSource24ClearExtensionPropertiesE12PropertyName
Qlh:_Array_InternalArray__set_Item_TisColor32_t2600501292_m1891325855_gshared
Nla:__ZN9ShaderLab22SerializedBindChannels8TransferI19StreamedBinaryWriteILb0EEEEvRT_
Gmg:__Z52RuntimeInvoker_Decimal_t2948259380_Int32_t2950945753PFvvEPK10MethodInfoPvPS4_
drb:__ZN15SerializeTraitsI5RectTIiEE8TransferI14SafeBinaryReadEEvRS1_RT_
ooc:__ZN5IMGUI20MoveWindowFromLayoutER8GUIStateiRK5RectTIfE
Btg:__Z50RuntimeInvoker_SByte_t1669577662_Int64_t3736567304PFvvEPK10MethodInfoPvPS4_
KBc:_UNITY_FT_Stream_ReadUShort
w0g:_Collection_1_System_Collections_IList_get_Item_m1677338752_gshared
Zhc:__Z51Register_UnityEngine_GUILayer_INTERNAL_CALL_HitTestv
Sha:__ZNSt3__26__treeINS_12__value_typeIN4core12basic_stringIcNS2_20StringStorageDefaultIcEEEES6_EENS_19__map_value_compareIS6_S7_NS_4lessIS6_EELb1EEE13stl_allocatorIS7_L18MemLabelIdentifier1ELi16EEE7destroyEPNS_11__tree_nodeIS7_PvEE
LXd:_DerivedType_IsAssignableFrom_m1623073368
pYf:_Thread_get_ManagedThreadId_m1068113671
jwa:__Z13IsDepthFormat14GraphicsFormat
oeb:__ZN12AspectRatios8TransferI24GenerateTypeTreeTransferEEvRT_
SRd:_MonoType_GetFields_m4176012508
Hxc:__Z12FormatBufferPciPKcz
xAb:__ZN18StreamedBinaryReadILb1EE21TransferSTLStyleArrayI13dynamic_arrayI8Vector2fLj4EEEEvRT_17TransferMetaFlags
UJc:__ZN15SerializeTraitsI13dynamic_arrayI4PPtrIN13TextRendering4FontEELj4EEE19ResizeSTLStyleArrayERS5_i
tag:_EqualityComparer_1_System_Collections_IEqualityComparer_GetHashCode_m3423304513_gshared
T0i:__ZL57FileSystemInfo_t3745885336_CustomAttributesCacheGeneratorP21CustomAttributesCache
XTh:__ZN6il2cpp2vm5Class13GetArrayClassEP11Il2CppClassj
u3c:_StandaloneInputModule_set_inputActionsPerSecond_m4057208843
THb:__ZN19RuntimeSceneManager18LoadSceneAsyncIntoER10UnitySceneRKN4core12basic_stringIcNS2_20StringStorageDefaultIcEEEENS_11LoadingModeEb
uPd:_TextWriter_Write_m164803641
csc:__Z35Transfer_Blittable_FixedBufferFieldI9JSONWritetEvRK29SerializationCommandArgumentsR31RuntimeSerializationCommandInfo
voc:__ZN11IMGUIModule12AddGUIScriptER8ListNodeI13MonoBehaviourE
nb:invoke_difi
GEh:_GUILayoutUtility_BeginWindow_m2240221150
ENj:_glDeleteSamplers__wrapper
dBe:_KeyGeneratedEventHandler_EndInvoke_m1628355235
V_e:_HybridDictionary_set_Item_m2997363718
EQb:__ZN29MotionVectorRenderLoopScratch15ThreadedCleanupEv
aMa:__ZNSt3__26__treeIiNS_4lessIiEE13stl_allocatorIiL18MemLabelIdentifier1ELi16EEE7destroyEPNS_11__tree_nodeIiPvEE
SPe:_InternalEnumerator_1_get_Current_m1477715453_AdjustorThunk
Rbh:__ZN28GenericInterfaceFuncInvoker1IiP12Il2CppObjectE6InvokeEPK10MethodInfoS1_S1_
xja:__ZN15SerializeTraitsI13dynamic_arrayItLj2EEE19ResizeSTLStyleArrayERS1_i
m2f:_UInt64_System_IConvertible_ToUInt32_m2784653358
Qva:__ZN21GLESGpuProgramApplier11ApplyVectorERKN20GpuProgramParameters14ValueParameterEPK8Vector4ft
aVb:__Z17PrepareSceneNodesP11CullResults
gBa:__ZN6prcoreL27StretchGenericFloatBilinearI18TexFormatRGBAFloatEEvPKNS_9InnerInfoE
eki:__ZN15dense_hashtableINSt3__24pairIK10KeyWrapperIP14Il2CppIUnknownEjEES5_N6il2cpp5utils11PointerHashIS3_EEN14dense_hash_mapIS5_jSB_NS5_14EqualsComparerINS0_8equal_toIS4_EEEENS0_9allocatorIS7_EEE9SelectKeyESG_SI_E12expand_arrayEjN21dense_hash_map_traits17integral_constantIbLb0EEE
Efd:_SByte_System_IConvertible_ToDecimal_m2548745278
Kyc:_cff_size_done
BVb:__ZN29ExtractProjectionPlanesHelperILb1EE5ApplyERK10Matrix4x4fP5Plane
i8b:__ZN13ProduceHelperI7CubemapLb0EE7ProduceE10MemLabelId18ObjectCreationMode
KZb:__ZN6Camera34UpdatePreviousViewProjectionMatrixEv
Hma:__ZN9ShaderLab11ShaderState25RemoveUnsupportedProgramsEPK6Shader
pNc:__Z28Font_Get_Custom_PropMaterialP12Il2CppObject
gLi:_Mathf_Abs_m3281243566
bPd:_SynchronizedWriter_WriteLine_m1552352268
p6d:_DefaultDependencyAttribute__ctor_m502524668
Dwg:__Z44RuntimeInvoker_X509KeyUsageFlags_t1431795504PFvvEPK10MethodInfoPvPS4_
mPi:_Rect_get_zero_m4034156123
Scc:__Z26scripting_class_has_parent17ScriptingClassPtrS_
Vba:__ZN13RuntimeStaticI21AssetReferenceStorageLb0EE16StaticInitializeEPv
BWc:__ZNSt3__26__treeINS_12__value_typeIN4core12basic_stringIcNS2_20StringStorageDefaultIcEEEEN11UnityEngine7Connect19RemoteSettingsValueEEENS_19__map_value_compareIS6_SA_NS_4lessIS6_EELb1EEE13stl_allocatorISA_L18MemLabelIdentifier6ELi16EEE16__construct_nodeERKNS_4pairIKS6_S9_EE
KGd:_Int32_System_IConvertible_ToByte_m3832391412_AdjustorThunk
EQ:__Z71Register_UnityEngine_AudioSource_INTERNAL_CALL_ClearExtensionPropertiesv
XCi:__ZN6il2cpp8metadata25Il2CppGenericClassCompare7CompareEPK18Il2CppGenericClassS4_
zC:__ZNK8Animator20IsInMatchTargetStateEv
aMe:_InternalEnumerator_1_System_Collections_IEnumerator_get_Current_m4088805473_gshared
apc:__Z36Register_UnityEngine_GUI_set_changedv
Tae:_Context_GetServerContextSinkChain_m3154465897
s6d:_FixedBufferAttribute_get_Length_m1478886548
Wpe:_GetRayIntersectionAllCallback_EndInvoke_m1583561415
yFh:_GUIStyle_get_fixedHeight_m2868324709
Wkd:__ZN30GenericInterfaceActionInvoker2IiiE6InvokeEPK10MethodInfoP12Il2CppObjectii
QCd:_Convert_ToInt64_m2075293963
ACj:__GLOBAL__sub_I_Il2CppCodeRegistration_cpp
Fw:__ZN7mecanim28TransformValueArrayBlendNodeEiiiRKNS_10ValueArrayERKNS_14ValueArrayMaskERS0_RS3_RNS_16ValueArrayWeightEf
INf:__ZN21InterfaceFuncInvoker2Ii20UICharInfo_t75501106S0_E6InvokeEjP11Il2CppClassP12Il2CppObjectS0_S0_
Ihh:_UnityAction_2_BeginInvoke_m1322091188_gshared
Z8c:_Dropdown_set_value_m1048320169
jVa:__ZN20TierGraphicsSettings8TransferI18StreamedBinaryReadILb0EEEEvRT_
TAf:_SHA384Managed_adjustByteCounts_m2921970088
Bmj:__ZL59PropertyNameUtils_t539849043_CustomAttributesCacheGeneratorP21CustomAttributesCache
hHd:_Int32_System_IConvertible_ToUInt64_m2502338186_AdjustorThunk
Bfa:__Z33CleanupCubemapGPUUtilityMaterialsPv
a0a:__ZN14SafeBinaryRead8TransferINSt3__24pairIN9ShaderLab16FastPropertyNameE10ColorRGBAfEEEEvRT_PKc17TransferMetaFlags
KSh:__ZL9rshift128PyS_
Nld:__ZN23InterfaceActionInvoker1IP25SmallXmlParser_t973787839E6InvokeEjP11Il2CppClassP12Il2CppObjectS1_
ogg:_Enumerator_VerifyState_m169680537_AdjustorThunk
qai:__ZN14dense_hash_mapI10KeyWrapperINSt3__24pairIPK12PropertyInfoP11Il2CppClassEEEj17ReflectionMapHashIS8_ENS9_14EqualsComparerINS1_8equal_toIS8_EEEENS1_9allocatorINS2_IKS9_jEEEEE13set_empty_keyERSH_
Ng:_glRenderbufferStorage
Xki:__ZNK15dense_hashtableINSt3__24pairIK10KeyWrapperINS1_IPKcS4_EEEiEES6_24NamespaceAndNamePairHashN14dense_hash_mapIS6_iS9_NS6_14EqualsComparerI26NamespaceAndNamePairEqualsEENS0_9allocatorIS8_EEE9SelectKeyESD_SF_E13find_positionERS7_
Dic:__Z45Register_UnityEngine_Input_get_touchSupportedv
dVc:__ZN11UnityEngine15PlatformWrapper28GetTextureFormatSupportFlagsEv
LDc:_sfnt_is_postscript
C_b:__ZNSt3__26vectorINS_4pairIN4core12basic_stringIcNS2_20StringStorageDefaultIcEEEES6_EE13stl_allocatorIS7_L18MemLabelIdentifier38ELi16EEE26__swap_out_circular_bufferERNS_14__split_bufferIS7_RSA_EEPS7_
HCh:_Uri_EscapeString_m3864445955
xzc:_cf2_setError
zAj:__ZL78LayoutRebuilder_t541313304_CustomAttributesCacheGenerator_U3CU3Ef__mgU24cache0P21CustomAttributesCache
$9a:__ZN14SafeBinaryRead21TransferSTLStyleArrayI13dynamic_arrayI12BoneWeights4Lj16EEEEvRT_17TransferMetaFlags
cTe:_Enumerator_MoveNext_m465222849_AdjustorThunk
RKb:__ZZ23InitPlayerLoopCallbacksvEN35PreUpdateSendMouseEventsRegistrator7ForwardEv
lCf:_X509Certificate__ctor_m1321742168
Jle:_U3CMouseDragOutsideRectU3Ec__Iterator1_System_Collections_Generic_IEnumeratorU3CobjectU3E_get_Current_m3688496850
KEa:__ZNK6Camera25GetNormalizedViewportRectEP13RenderTextureb
_8c:_Dropdown_Awake_m3140021404
_g:_glDisable
eHg:__Z52RuntimeInvoker_Void_t1185182177_UriScheme_t722425697PFvvEPK10MethodInfoPvPS4_
e_a:__ZN13RenderTexture8TransferI24GenerateTypeTreeTransferEEvRT_
m3i:__ZL53IsVolatile_t2097058663_CustomAttributesCacheGeneratorP21CustomAttributesCache
gVi:_Vector2_get_sqrMagnitude_m837837635
oKa:__ZN4PPtrI9Texture2DE8TransferI14SafeBinaryReadEEvRT_
Tfj:__ZL59WritableAttribute_t812406054_CustomAttributesCacheGeneratorP21CustomAttributesCache
wti:__ZN6il2cpp5utils11StringUtils15StringDuplicateEPKDsj
sE:__ZZN8Animator15InitializeClassEvEN37FunctorImpl_417kDidModifyOverrideClip4CallEPviR11MessageData
vAh:_Regex_Match_m4145799399
Dv:__ZN17AnimationPlayable17ProcessRootMotionEP35AnimationPlayableEvaluationConstantP32AnimationPlayableEvaluationInputP33AnimationPlayableEvaluationOutput
vHf:_String_IsNullOrEmpty_m2969720369
LXe:_Enumerator_MoveNext_m2602845255_gshared
iQh:_TextGenerator_GetPreferredHeight_m3514897836
pye:_BigInteger_LowestSetBit_m3082714978
Zkg:__Z78RuntimeInvoker_Int16_t2552820387_RuntimeObject_Int32_t2950945753_RuntimeObjectPFvvEPK10MethodInfoPvPS4_
rSj:b118
sSj:b119
ykj:__ZL81Object_t631007953_CustomAttributesCacheGenerator_Object_set_hideFlags_m1648752846P21CustomAttributesCache
PLb:__ZNK8Material12GetPassCountEv
Kzf:_RSAParameters_t1728406613_marshal_pinvoke
U8e:_Interval_IsDisjoint_m1532171337_AdjustorThunk
lSj:b112
lHj:_bitshift64Ashr
nSj:b114
oSj:b115
pSj:b116
qSj:b117
LYh:__ZN30dense_hashtable_const_iteratorINSt3__24pairIK10KeyWrapperIN6il2cpp5utils13dynamic_arrayIPK10Il2CppTypeLj4EEEEPFvvEEESA_NS3_8metadata19Il2CppSignatureHashEN14dense_hash_mapISA_SD_SG_NSA_14EqualsComparerINSF_22Il2CppSignatureCompareEEENS0_9allocatorISE_EEE9SelectKeyESK_SM_E30advance_past_empty_and_deletedEv
IIj:dynCall_diii
Fne:_LayoutUtility_GetFlexibleWidth_m22831835
Qge:_BinaryFormatter__ctor_m971003555
eFe:_ArrayReadOnlyList_1_ReadOnlyError_m865416608_gshared
$wg:__Z91RuntimeInvoker_Void_t1185182177_Int32_t2950945753_Int32U26_t1369213839_Int32U26_t1369213839PFvvEPK10MethodInfoPvPS4_
UHi:_DisplaysUpdatedDelegate_EndInvoke_m3857124817
Cxd:_CollectionBase_System_Collections_IList_get_Item_m3743372945
CDf:_Evidence_GetEnumerator_m302914965
Jxa:__ZN4crnd12crn_unpacker22decode_alpha_endpointsEv
xWg:_Queue_1__ctor_m2068090025_gshared
gWb:__Z23CullDynamicObjectsUmbraPK4AABBPKN5Umbra15OcclusionBufferER9IndexList
Xrh:_SslStreamBase_RaiseRemoteCertificateValidation2_m2908038766
VIh:__ZL23UnresolvedVirtualCall_9P12Il2CppObjectS0_iPK10MethodInfo
sFc:_tt_cmap4_char_next
I2f:_UIntPtr__ctor_m4250165422_AdjustorThunk
a_:__ZN4core8hash_mapIi17ThreadedAwakeDataNS_4hashIiEENSt3__28equal_toIiEEE4growEi
Wkg:__Z50RuntimeInvoker_Boolean_t97287965_Int16_t2552820387PFvvEPK10MethodInfoPvPS4_
ZBd:_Convert_ToDecimal_m1233667008
qOe:_InternalEnumerator_1_MoveNext_m2734554195_gshared
$Z:__ZN4core8hash_mapIi17ThreadedAwakeDataNS_4hashIiEENSt3__28equal_toIiEEE4growEv
y7:__GLOBAL__sub_I_runtime_assetbundles_1_cpp
rcf:_MD5SHA1_HashCore_m4171647335
KI:__ZN4FMOD7Channel11setPositionEjj
Sh:_glBindSampler
Ref:_ClientContext_get_ClientHelloProtocol_m1654639078
Wh:_glGetVertexAttribiv
aYe:_Enumerator_System_Collections_IEnumerator_get_Current_m1975949486_gshared
Oyh:_PatternCompiler_EmitSub_m193323684
Zug:__Z74RuntimeInvoker_RuntimeObject_RuntimeObject_SByte_t1669577662_RuntimeObjectPFvvEPK10MethodInfoPvPS4_
JOc:__ZN2UI11CanvasGroup23VirtualRedirectTransferER18StreamedBinaryReadILb0EE
IHd:_Int64_System_IConvertible_ToByte_m375085029
Ovc:__ZN8JSONRead8TransferIbEEvRT_PKc17TransferMetaFlagsb
QGi:_CullingGroup_t2096318768_marshal_pinvoke
e_f:_TimeSpan_ToString_m1128692466
NRi:_RequireComponent__ctor_m886241599
wHh:_AesManaged_CreateEncryptor_m2294080233
nJh:__ZL24UnresolvedVirtualCall_29P12Il2CppObjectS0_iPK10MethodInfo
mEh:_Event_GetHashCode_m3559153592
roc:__Z26RegisterModuleICalls_IMGUIv
uma:__ZN9ShaderLab9SubShaderD2Ev
Pxc:__ZN19ControllerHitReport13onObstacleHitERKN5physx23PxControllerObstacleHitE
ptg:__Z51RuntimeInvoker_Int16_t2552820387_Single_t1397266774PFvvEPK10MethodInfoPvPS4_
Hvi:_GC_promote_black_lists
IBd:_Convert_ToChar_m3757390865
Cwc:__Z29Transfer_Blittable_ArrayFieldI8JSONRead8Vector4fEvRT_R9ArrayInfoRK23StaticTransferFieldInfo
Sn:FUNCTION_TABLE_vf
vVd:_Binder_GetDerivedLevel_m3216810447
qo:FUNCTION_TABLE_vd
h8e:_RepeatContext_get_Start_m1076992038
S8:__ZN13RuntimeStaticI37UnityShaderCompilerExtPluginConfigureLb0EE16StaticInitializeEPv
lVf:_StringBuilder_AppendFormat_m2403596038
Yhd:_DSASignatureDeformatter_SetHashAlgorithm_m3186995552
F5g:_ReadOnlyCollection_1_System_Collections_Generic_ICollectionU3CTU3E_Clear_m2772202961_gshared
Rtc:__ZN9JSONWrite8TransferI13dynamic_arrayI4AABBLj4EEEEvRT_PKc17TransferMetaFlags
SE:__ZNK8Animator17HasBoundPlayablesEv
e6d:_ResourceSet_ReadResources_m3663669011
T$g:_Collection_1_GetEnumerator_m3990758110_gshared
OXf:_SynchronizationContext_SetSynchronizationContext_m1249070039
$dj:__ZL74X509Crl_t1148767388_CustomAttributesCacheGenerator_U3CU3Ef__switchU24map13P21CustomAttributesCache
HTg:_List_1_AddEnumerable_m1267044261_gshared
SEc:_tt_cmap13_char_index
G2h:__ZN6il2cpp2vm7Runtime9SetConfigEPKc
Dqc:__ZN5Unity9rapidjson12PrettyWriterI16TempBufferWriterNS0_4UTF8IcEES4_13JSONAllocatorE10StartArrayEv
ta:invoke_iiifiii
$Qi:_RectTransform_INTERNAL_get_pivot_m2970933031
khh:_UnityAction_1_Invoke_m927447181_gshared
Ihi:__ZN6il2cpp2vm9Exception11FromNameMsgEPK11Il2CppImagePKcS6_S6_
Tli:__ZNSt3__26__treeINS_12__value_typeIP24Il2CppReflectionAssemblyPvEENS_19__map_value_compareIS3_S5_NS_4lessIS3_EELb1EEENS_9allocatorIS5_EEE12__find_equalIS3_EERPNS_16__tree_node_baseIS4_EESH_RKT_
cn:FUNCTION_TABLE_fiiifii
Vea:__Z14GetTimeManagerv
kGi:_Color32_op_Implicit_m213813866
BQi:_RectOffset_set_top_m713260669
JZi:__ZL61ArrayReadOnlyList_1_t221793636_CustomAttributesCacheGeneratorP21CustomAttributesCache
AYc:__ZN19TransportJavaScript7CleanupEv
NPa:__Z12GUIDToStringRK9UnityGUIDPc
Tba:__ZN15FileSystemEntry4LockE12FileLockModeP12FileAccessor
qQj:_emscripten_glDrawArrays__wrapper
qHd:_Int32_Equals_m2976157357
Vxg:__Z110RuntimeInvoker_Int32_t2950945753_Int32_t2950945753_Int32_t2950945753_Int32U26_t1369213839_Int32U26_t1369213839PFvvEPK10MethodInfoPvPS4_
xUg:_List_1_System_Collections_IList_get_IsReadOnly_m1601400230_gshared
Qwd:_BitArray_get_IsSynchronized_m3546284417
hM:__ZN11AudioSource22UnmuteActiveVideoSinksEv
oth:_TlsException__ctor_m3717683709
tti:__ZN4utf88internal20is_overlong_sequenceIiEEbjT_
ixe:_SortKeyBuffer__ctor_m1384677558
N9c:_U3CDelayedDestroyDropdownListU3Ec__Iterator0_System_Collections_IEnumerator_get_Current_m1619733476
kbj:__ZL79Convert_t2465617642_CustomAttributesCacheGenerator_Convert_ToUInt16_m4064261444P21CustomAttributesCache
sRa:__Z9SetLocalR15TransformAccessRKN4math7_float4Ey
dSb:__Z30SetupBakedOcclusionForGeometrybRK26SharedLightmapSettingsDataRK15LightmapIndicesR17ShaderPassContext
x9:__ZN13RuntimeStaticI13ModuleManagerLb0EE13StaticDestroyEPv
Lgc:__Z41Register_UnityEngine_Cursor_get_lockStatev
BRb:__Z14SetupLightmapsRK8Vector4fS1_R17ShaderPassContext
Q8h:__ZN14dense_hash_mapI10KeyWrapperIPK14Il2CppAssemblyEPK22Il2CppMonoAssemblyNameN6il2cpp5utils11PointerHashIS2_EENS4_14EqualsComparerINSt3__28equal_toIS3_EEEENSD_9allocatorINSD_4pairIKS4_S7_EEEEE13set_empty_keyERSJ_
Z_a:__ZL20InitializeGUIShadersv
myf:_Guid_CompareTo_m243656946
A1b:__Z20DestroyObjectDelayedP6Objectf
AW:__ZN20DynamicHeapAllocatorI17LowLevelAllocatorED0Ev
XId:_IntPtr_ToPointer_m4157623054
Ygf:_Context_get_LastHandshakeMsg_m2730646725
h5b:__ZN11TimeManagerC2E10MemLabelId18ObjectCreationMode
ZOb:__ZN9DepthPassD2Ev
CH:__ZN11AudioFilter6GetDSPEv
MCe:_SymmetricTransform_CFB_m1051508796
v8d:_UrlAttribute_GetPropertiesForNewContext_m2281450996
Jzf:_RSACryptoServiceProvider_OnKeyGenerated_m863837376
pQg:_List_1_get_Capacity_m3047075120_gshared
sCg:__Z31RuntimeInvoker_Mode_t1066900953PFvvEPK10MethodInfoPvPS4_
Zqe:_Scrollbar_OnDrag_m4289602768
Gaa:__ZN19RuntimeSceneManager14CanUnloadSceneEP10UnityScene
$Ob:__Z22ExtractRenderNodeQueueRK11CullResults15ExtractionFlagsR15RenderNodeQueue
Rcg:_GenericEqualityComparer_1_GetHashCode_m457148860_gshared
Kqi:__ZN6il2cpp2vm6Method7GetNameEPK10MethodInfo
asa:__ZN9GfxDevice16CreateTimerQueryEv
HG:__ZN24AudioScriptBufferManagerC2Ev
bLc:__ZNSt3__26vectorIh13stl_allocatorIhL18MemLabelIdentifier1ELi16EEE8__appendEj
WNe:_InternalEnumerator_1_System_Collections_IEnumerator_get_Current_m3854084659_AdjustorThunk
qie:_OnValidateInput_Invoke_m1009124904
hEe:_U3CGetEnumeratorU3Ec__Iterator0_System_Collections_IEnumerator_get_Current_m283764921_gshared
Sag:_EqualityComparer_1_System_Collections_IEqualityComparer_GetHashCode_m3578195399_gshared
dLc:__ZN20TextRenderingPrivate8FontImpl16ResetPackingDataEv
pvf:_CultureInfo_get_IcuName_m2258611679
Brc:__Z18Transfer_BlittableI9JSONWriteLb0EfEvRK29SerializationCommandArgumentsR31RuntimeSerializationCommandInfo
Wwa:__Z21GetAsyncUploadManagerv
Jj:_emscripten_glDetachShader
kXe:_Transform_1_BeginInvoke_m3697921475_gshared
rRi:_Vector2_op_Subtraction_m73004381
Kwa:__ZN17GenericDynamicVBO20ReleaseChunkInternalERK21DynamicVBOChunkHandlejj
oNc:__ZL27CleanupModule_TextRenderingv
ODj:_fmodl
JKe:_InternalEnumerator_1__ctor_m39232262_gshared
NCe:_SymmetricTransform_OFB_m3842617151
JV:__Z37RegisterModuleICalls_CloudWebServicesv
VMa:__ZNSt3__26vectorIiNS_9allocatorIiEEE21__push_back_slow_pathIKiEEvRT_
evj:__ZL81StandaloneInputModule_t2760469101_CustomAttributesCacheGenerator_m_HorizontalAxisP21CustomAttributesCache
YHb:__ZN19RuntimeSceneManager11CreateSceneEv
PFi:_Color__ctor_m286683560
vyh:_PatternCompiler_Emit_m1540115729
CDc:_ps_get_standard_strings
cSb:__Z27SetupBakedOcclusionForLightbRK15SharedLightDataR17ShaderPassContext
jBi:__ZN6il2cpp2os5Mutex6UnlockEv
sNd:_NullStream_get_Position_m4048431226
ZSf:_EncoderFallbackException__ctor_m1051987327
D2g:__ZN21InterfaceFuncInvoker1I19Vector2_t2156229523iE6InvokeEjP11Il2CppClassP12Il2CppObjecti
ohf:_Context_set_RandomSC_m2364786761
F6i:__ZL73AsymmetricSignatureDeformatter_t2681190756_CustomAttributesCacheGeneratorP21CustomAttributesCache
f4g:_Collection_1_CopyTo_m2335349786_gshared
xye:_BigInteger_ToString_m3278248272
upf:_Decimal_System_IConvertible_ToBoolean_m1123794670
EFg:__Z98RuntimeInvoker_Int32_t2950945753_RaycastResult_t3360306849_RaycastResult_t3360306849_RuntimeObjectPFvvEPK10MethodInfoPvPS4_
Xaa:__Z17CommitBatchDeleteR11BatchDelete
Qne:_Mask__ctor_m1269055150
N9i:__ZL99WaitHandle_t1743403487_CustomAttributesCacheGenerator_WaitHandle_t1743403487____Handle_PropertyInfoP21CustomAttributesCache
F2e:_WebRequest_AddPrefix_m3187775913
_uj:__ZL98PointerEventData_t3807901092_CustomAttributesCacheGenerator_PointerEventData_get_button_m359423249P21CustomAttributesCache
vmj:__ZL48Plane_t1000493321_CustomAttributesCacheGeneratorP21CustomAttributesCache
bxf:_NumberFormatInfo_get_CurrencyNegativePattern_m2134016253
xfj:__ZL85UriParser_t3890150400_CustomAttributesCacheGenerator_UriParser_OnRegister_m3283921560P21CustomAttributesCache
ewj:__ZL59Dropdown_t2274391225_CustomAttributesCacheGenerator_m_ValueP21CustomAttributesCache
vMb:__Z18RenderImageFiltersR10RenderLoopb
ZRc:__Z43CanvasRenderer_Get_Custom_PropMaterialCountP12Il2CppObject
nSb:__ZNSt3__227__insertion_sort_incompleteIR23CompareReflectionProbesP31RuntimeReflectionProbeBlendInfoEEbT0_S5_T_
hQg:_List_1_Remove_m1457733883_gshared
Xwc:__ZN8JSONRead21TransferSTLStyleArrayI13dynamic_arrayI11QuaternionfLj4EEEEvRT_17TransferMetaFlags
aZa:__ZN13PlayableGraph17ConnectionChangedEv
jfc:__ZNK9BlobWrite24HasOffsetPtrWithDebugPtrEv
uXi:__ZL80String_t_CustomAttributesCacheGenerator_String_FormatHelper_m3913915042____args3P21CustomAttributesCache
t2d:_MonoEventInfo_GetEventInfo_m873645389
aEd:_Convert_ToUInt64_m1745056470
fcf:_MD4Managed_Encode_m386285215
kca:__ZN10InputEventD2Ev
Awb:__Z18Transfer_BlittableI19StreamedBinaryWriteILb0EELb0E5RectTIfEEvRK29SerializationCommandArgumentsR31RuntimeSerializationCommandInfo
pEf:_SecurityElement_get_Children_m1231540612
vNe:_InternalEnumerator_1_MoveNext_m1590908934_AdjustorThunk
HZc:__ZN22UnityWebRequestManagerD2Ev
aEh:_Event_get_character_m1666742088
wKg:__Z112RuntimeInvoker_Boolean_t97287965_CustomAttributeNamedArgument_t287865710_CustomAttributeNamedArgument_t287865710PFvvEPK10MethodInfoPvPS4_
tDj:_isalpha
xre:_U3CClickRepeatU3Ec__Iterator0_Dispose_m4248496038
EBd:_Convert_ToChar_m1442101407
Dkf:_SslClientStream_OnLocalPrivateKeySelection_m1934775249
rFh:_GUILayoutEntry_CalcWidth_m3962591050
F4b:__ZZL31RegisterRectTransformPropertiesR22GenericPropertyBindingEN28Wrapper_RectTransformPivoty113SetFloatValueEPvf
Ybd:__ZN21InterfaceFuncInvoker1IP19Graphic_t1660335611iE6InvokeEjP11Il2CppClassP12Il2CppObjecti
sof:_DateTimeOffset_get_Offset_m2040541042_AdjustorThunk
Ynj:__ZL80Logger_t274032455_CustomAttributesCacheGenerator_U3ClogHandlerU3Ek__BackingFieldP21CustomAttributesCache
n0h:__ZN6il2cpp2vmL17IsSocketAsyncCallEP14Il2CppDelegate
pzd:_Slot_t3975888750_marshal_pinvoke_back
Eti:__ZN6il2cpp2vm6String6NewLenEPKcj
g0i:__ZL62DateTimeFormatFlags_t1884407083_CustomAttributesCacheGeneratorP21CustomAttributesCache
_4:__Z25GetBuiltinTexEnvParamNamei
TFb:__ZN17PersistentManager9AddStreamEv
Spi:__ZN6il2cpp2os6Thread12GetApartmentEv
xJa:__ZN9GfxDevice28UpdateComputeConstantBuffersEjP12ObjectHandleI18ConstantBuffer_TagPvEjjPKhPKjS8_PKi
_k:_time
f7c:_ContentSizeFitter_set_verticalFit_m1831566876
fCf:_TripleDESCryptoServiceProvider_CreateDecryptor_m740960117
Dmc:__ZN16memory_pool_implILi28EE15AutoPoolWrapper12UninitializeEPv
RBg:__Z122RuntimeInvoker_Void_t1185182177_Color_t2555686324_Single_t1397266774_SByte_t1669577662_SByte_t1669577662_SByte_t1669577662PFvvEPK10MethodInfoPvPS4_
_Ki:_Material_EnableKeyword_m329692301
kAc:_cf2_stack_free
bBf:_SHA512Managed_HashCore_m2377807474
qId:_Int64_Parse_m3309897583
Wvf:_CompareInfo_IndexOf_m667936183
iUg:_List_1__ctor_m2203182218_gshared
rv:__ZN7mecanim9animation19EvaluateFloatValuesEPKNS0_18ClipMuscleConstantEPKNS_18ValueArrayConstantEPKNS0_12ClipBindingsEPKNS0_10ClipOutputEPNS0_18AnimationNodeStateEfbb
DPi:_Rect_get_min_m847841034_AdjustorThunk
dD:__ZN8Animator31ClearInternalControllerPlayableEv
WHa:__ZN26SinglePassStereoSupportExt18AfterSetViewMatrixEv
yEi:_Bounds__ctor_m1937678907_AdjustorThunk
wSi:_SetupCoroutine_InvokeMember_m2661944898
Kdg:_HashSet_1__ctor_m620629637_gshared
g3e:_X509EnhancedKeyUsageExtension_ToString_m350388564
V_d:_MethodBuilder_get_Module_m2693263127
C4h:__ZN15dense_hashtableINSt3__24pairIK10KeyWrapperINS1_IPK9FieldInfoP11Il2CppClassEEEjEES9_17ReflectionMapHashIS8_EN14dense_hash_mapIS9_jSD_NS9_14EqualsComparerINS0_8equal_toIS8_EEEENS0_9allocatorISB_EEE9SelectKeyESI_SK_E4findERSA_
gwd:_SimpleEnumerator_MoveNext_m3113120129
vfd:_RuntimeTypeHandle_GetHashCode_m3999856879_AdjustorThunk
XHb:__ZN13LoadOperationC2E10MemLabelId
sie:_InputField_SendOnValueChanged_m2560301445
vBh:_CapturingGroup_get_Name_m3747712535
JXb:__ZN13RenderTexture19SetAutoGenerateMipsEb
qya:__Z20GetTextureFormatInfo13TextureFormat
l0e:_TypeConverterAttribute_Equals_m1580461255
jdf:_RSAManaged_ToXmlString_m2369501989
cy:__ZN26AnimatorControllerPlayable8GetFloatEiRf
Ale:_InputField_get_layoutPriority_m2945430764
Flf:_DateTime_System_IConvertible_ToSingle_m2193708681_AdjustorThunk
T8e:_Interval_get_Size_m4163671410_AdjustorThunk
zAh:_Regex_ToString_m1548107455
yPf:_NoAllocHelpers_SafeLength_TisVector2_t2156229523_m3807819939_gshared
$Oc:__ZN2UI14CanvasRenderer13AwakeFromLoadE17AwakeFromLoadMode
mXi:__ZL64String_t_CustomAttributesCacheGenerator_String_Split_m3580120853P21CustomAttributesCache
pzb:__ZN18StreamedBinaryReadILb1EE5AlignEv
Dzi:__ZN6il2cpp5utils10MemoryPool6MallocEj
$F:__ZN11SoundHandle8InstanceD2Ev
Q5d:_ResourceEnumerator_Reset_m3754276504
xfa:__ZN31CanvasBatchIntermediateRenderer13StaticDestroyEPv
k$:__ZNSt3__23mapIiP15MonoScriptCacheNS_4lessIiEE13stl_allocatorINS_4pairIKiS2_EEL18MemLabelIdentifier78ELi16EEEixERS7_
k_h:__ZNK15dense_hashtableINSt3__24pairIK10KeyWrapperIPK11Il2CppClassEPKcEES6_N6il2cpp5utils11PointerHashIS3_EEN14dense_hash_mapIS6_S9_SE_NS6_14EqualsComparerINS0_8equal_toIS5_EEEENS0_9allocatorISA_EEE9SelectKeyESJ_SL_E10test_emptyERK24dense_hashtable_iteratorISA_S6_SE_SN_SJ_SL_E
Qsj:__ZL102CanvasRenderer_t2598313366_CustomAttributesCacheGenerator_CanvasRenderer_set_materialCount_m4286588063P21CustomAttributesCache
qng:__Z78RuntimeInvoker_Int32_t2950945753_RuntimeObject_RuntimeObject_Int32_t2950945753PFvvEPK10MethodInfoPvPS4_
hTa:__Z26scripting_method_get_class18ScriptingMethodPtr
bOj:_emscripten_glBindProgramARB__wrapper
Igc:__Z41Register_UnityEngine_CullingGroup_Disposev
Syh:_PatternCompiler_EmitRepeat_m697083858
R2a:__ZN7Cubemap23VirtualRedirectTransferER19StreamedBinaryWriteILb0EE
R2h:__ZN6il2cpp2vm7Runtime47RaiseExecutionEngineExceptionIfMethodIsNotFoundEPK10MethodInfoPK19Il2CppGenericMethod
R7d:_ConstructionLevelActivator__ctor_m3779412964
yOa:__ZN25MultiBlocksMemoryFileData5WriteEyyPKv
K2g:_Collection_1_GetEnumerator_m344341702_gshared
C7h:__ZNSt3__218uninitialized_fillIPNS_4pairIK10KeyWrapperINS1_IPK12PropertyInfoP11Il2CppClassEEEjEESB_EEvT_SD_RKT0_
t5d:_ResourceReader_Read7BitEncodedInt_m3568166465
u8c:_DefaultControls_CreateInputField_m1003102365
qmj:__ZL95Mesh_t3648964284_CustomAttributesCacheGenerator_Mesh_GetIndices_m1466450660____applyBaseVertex1P21CustomAttributesCache
SQh:_CanvasGroup_set_alpha_m4032573
rod:_Array_get_LongLength_m978104875
_Ba:__ZL17ProgramUniform2fvPK7ApiGLESjiihPKv
XOj:b83
Kkg:__Z68RuntimeInvoker_Boolean_t97287965_RuntimeObject_UInt64U26_t1265593412PFvvEPK10MethodInfoPvPS4_
ZKc:__ZN20TextRenderingPrivate8FontImpl21HasCharacterInTextureEjijfPj
C8c:_OptionData__ctor_m2529924901
sUi:_Transform_SetAsFirstSibling_m253439912
pdj:__ZL54MemberFilter_t426314064_CustomAttributesCacheGeneratorP21CustomAttributesCache
gmf:_DateTime_System_IConvertible_ToUInt16_m4182197229_AdjustorThunk
M8e:_Interval_get_IsDiscontiguous_m3016063288
Zrh:_SslStreamBase_get_CheckCertRevocationStatus_m2739906607
PEj:_htonl
_ta:__Z20GetBufferManagerGLESv
WOj:b82
lBf:_SHA512Managed_Sigma1_m922902398
eCb:__ZN18StreamedBinaryReadILb0EE21TransferSTLStyleArrayI31ArrayOfManagedObjectsTransfererEEvRT_17TransferMetaFlags
Cua:__ZNSt3__26__treeI22DeviceStencilStateGLES14MemoryCompLessI18DeviceStencilStateENS_9allocatorIS1_EEE12__find_equalIS1_EERPNS_16__tree_node_baseIPvEESD_RKT_
QEj:_htons
Muc:__Z18Transfer_BlittableI8JSONReadLb0EtEvRK29SerializationCommandArgumentsR31RuntimeSerializationCommandInfo
b8h:__ZN15dense_hashtableINSt3__24pairIK10KeyWrapperINS1_IPK9EventInfoP11Il2CppClassEEEjEES9_17ReflectionMapHashIS8_EN14dense_hash_mapIS9_jSD_NS9_14EqualsComparerINS0_8equal_toIS8_EEEENS0_9allocatorISB_EEE9SelectKeyESI_SK_E12expand_arrayEjN21dense_hash_map_traits17integral_constantIbLb0EEE
Eyb:__Z18Transfer_BlittableI18StreamedBinaryReadILb1EELb0E5RectTIiEEvRK29SerializationCommandArgumentsR31RuntimeSerializationCommandInfo
FZ:__Z16GenerateTypeTreeRK6ObjectR8TypeTree24TransferInstructionFlags
Mwf:_CultureInfo_CreateCulture_m1493441763
ZBf:_TripleDES_IsWeakKey_m2147489852
d3a:__ZNK7Cubemap20GetTextureLayerCountEv
Qy:__ZN34AnimationStateMachineMixerPlayable13EndTransitionEv
mti:__ZNSt3__212basic_stringIDsNS_11char_traitsIDsEENS_9allocatorIDsEEE9__grow_byEjjjjjj
zMh:__ZL25UnresolvedVirtualCall_203P12Il2CppObjectiS0_PK10MethodInfo
_Ag:__Z65RuntimeInvoker_Void_t1185182177_RuntimeObject_RectU26_t1284589061PFvvEPK10MethodInfoPvPS4_
kI:__ZN12AudioManager21FixMasterGroupRoutingEv
z9a:__ZNK19ShaderPropertySheet11HasPropertyERKN9ShaderLab16FastPropertyNameE
ZIj:dynCall_viffffii
bC:__ZN15AllocatorTraitsIN8Animator11AnimatorJobELb0EE13CopyConstructEPS1_RKS1_10MemLabelId
CEg:__Z81RuntimeInvoker_Boolean_t97287965_NavigationU26_t1807167253_Navigation_t3049316579PFvvEPK10MethodInfoPvPS4_
hQj:_emscripten_glUniform1fv__wrapper
qkb:__ZN2UI13RectTransform19SetAnchoredPositionERK8Vector2f
qcd:_GridLayoutGroup_SetLayoutHorizontal_m2838109254
Yvg:__Z65RuntimeInvoker_SecurityProtocolType_t1513093309_Int16_t2552820387PFvvEPK10MethodInfoPvPS4_
x8c:_Dropdown_RefreshShownValue_m2806045241
vob:__Z18Transfer_BlittableI14SafeBinaryReadLb1E4AABBEvRK29SerializationCommandArgumentsR31RuntimeSerializationCommandInfo
ppi:__ZN6il2cpp6icalls8mscorlib6System4Enum12get_hashcodeEP12Il2CppObject
Fyi:_GC_set_no_dls
A6c:_ColorBlock_set_normalColor_m254595671_AdjustorThunk
$Ci:__ZN6il2cpp8metadata26Il2CppGenericMethodCompare6EqualsEPK19Il2CppGenericMethodS4_
N2g:_Collection_1_InsertItem_m1996433897_gshared
ZMe:_InternalEnumerator_1_get_Current_m1007906068_gshared
s6a:__ZNK13ScreenManager16GetScreenTimeoutEv
JVh:__ZN15dense_hashtableINSt3__24pairIK10KeyWrapperIPK11Il2CppClassEPKcEES6_N6il2cpp5utils11PointerHashIS3_EEN14dense_hash_mapIS6_S9_SE_NS6_14EqualsComparerINS0_8equal_toIS5_EEEENS0_9allocatorISA_EEE9SelectKeyESJ_SL_E15set_deleted_keyERKSA_
iwd:_SimpleEnumerator_Reset_m1520014659
_7i:__ZL53IPrincipal_t2343618843_CustomAttributesCacheGeneratorP21CustomAttributesCache
IXf:_SendOrPostCallback__ctor_m1566534627
PG:__ZN9AudioClip7WWWOpenEPKciPjPPvS4_
mob:__Z18Transfer_BlittableI14SafeBinaryReadLb0E8Vector2fEvRK29SerializationCommandArgumentsR31RuntimeSerializationCommandInfo
Sgf:_Context_set_ProtocolNegotiated_m2904861662
Q0i:__ZL54FileOptions_t1024913468_CustomAttributesCacheGeneratorP21CustomAttributesCache
Vki:__ZN15dense_hashtableINSt3__24pairIK10KeyWrapperINS1_IPKcS4_EEEiEES6_24NamespaceAndNamePairHashN14dense_hash_mapIS6_iS9_NS6_14EqualsComparerI26NamespaceAndNamePairEqualsEENS0_9allocatorIS8_EEE9SelectKeyESD_SF_E12resize_deltaEjj
Afe:_RemotingServices_GetRemoteObject_m2117098022
hRh:_CanvasRenderer_SetTexture_m1600559835
PXc:__ZN13dynamic_arrayIiLj4EE6insertEPiPKiS3_
L1g:_Collection_1_System_Collections_IList_IndexOf_m4256072926_gshared
gog:__Z132RuntimeInvoker_Boolean_t97287965_RuntimeObject_Int32_t2950945753_Int32_t2950945753_RuntimeObject_Int32_t2950945753_Int32_t2950945753PFvvEPK10MethodInfoPvPS4_
xic:__Z53Register_UnityEngine_Input_INTERNAL_get_mousePositionv
Tta:__ZN7ApiGLES12DrawElementsE16GfxPrimitiveTypePKvjjjj
cCe:_EncryptedPrivateKeyInfo_get_Salt_m3453455261
nnf:_DateTime__ParseNumber_m1240316250
xAe:_CryptoConvert_ToInt32LE_m3340980429
nJe:_InternalEnumerator_1_get_Current_m3839250771_gshared
mlc:__Z66Register_UnityEngine_Transform_INTERNAL_CALL_InverseTransformPointv
owf:_CultureInfo_get_TextInfo_m2342840448
V$c:_EventSystem_set_pixelDragThreshold_m890385646
zJa:__ZN9GfxDevice22DispatchComputeProgramE12ObjectHandleI18ComputeProgram_TagPvEjjj
fd:_SDL_GetTicks
y6h:__ZN15dense_hashtableINSt3__24pairIK10KeyWrapperINS1_IPK11Il2CppImageP11Il2CppClassEEEjEES9_17ReflectionMapHashIS8_EN14dense_hash_mapIS9_jSD_NS9_14EqualsComparerINS0_8equal_toIS8_EEEENS0_9allocatorISB_EEE9SelectKeyESI_SK_E6insertERKSB_
NVb:__Z21CreateShadowCullerJobP30CreateUmbraShadowCullerJobData
Z8g:_ReadOnlyCollection_1_System_Collections_Generic_ICollectionU3CTU3E_Remove_m4072504734_gshared
SBa:__ZL18ProgramUniform2uivPK7ApiGLESjiihPKv
i5c:_U3COnFinishSubmitU3Ec__Iterator0_MoveNext_m2729496168
JPj:_glUniform4iv__wrapper
NSb:__Z33GenerateShadowCasterPartsSortDataRK16ShadowCasterDatajRK15RenderNodeQueueRKNSt3__26vectorI20ShadowCasterPartData13stl_allocatorIS7_L18MemLabelIdentifier2ELi16EEEERK10Matrix4x4fRjP20ShadowCasterSortData
eLb:__ZZ23InitPlayerLoopCallbacksvEN51PostLateUpdateTriggerEndOfFrameCallbacksRegistrator7ForwardEv
JZf:_TimeSpan_Compare_m753151303
trb:__Z29Transfer_Blittable_ArrayFieldI14SafeBinaryRead9BoundsIntEvRT_R9ArrayInfoRK23StaticTransferFieldInfo
rzc:_cf2_computeDarkening
VRh:_AnimationLayerMixerPlayable__ctor_m860721801_AdjustorThunk
L3d:_MonoPropertyInfo_get_property_info_m1599555644
DTg:_List_1_Add_m2298161512_gshared
vhd:_DESTransform_CipherFunct_m3527261721
bwi:_GC_expand_hp_inner
Mmi:__ZNK15dense_hashtableI10KeyWrapperIP18Il2CppGenericClassES3_N6il2cpp8metadata22Il2CppGenericClassHashEN14dense_hash_setIS3_S6_NS3_14EqualsComparerINS5_25Il2CppGenericClassCompareEEENSt3__29allocatorIS3_EEE8IdentityESA_SD_E12test_deletedEj
Mlc:__Z25Screen_Get_Custom_PropDpiv
Gxb:__Z29Transfer_Blittable_ArrayFieldI19StreamedBinaryWriteILb0EEsEvRT_R9ArrayInfoRK23StaticTransferFieldInfo
Nzh:_Parser_ParseSpecial_m1961501104
wvj:__ZL80PhysicsRaycaster_t437419520_CustomAttributesCacheGenerator_m_MaxRayIntersectionsP21CustomAttributesCache
iti:__ZN4utf812find_invalidIPKcEET_S3_S3_
ske:_InputField_OnEndDrag_m4127187089
wbh:_ReadOnlyCollection_1_System_Collections_IList_RemoveAt_m2555465054_gshared
vvi:_GC_err_printf
Mrf:_StackFrame__ctor_m343464319
yT:__ZN11UnityEngine15CloudWebService20WebRequestRestClient7PrepareEv
V2d:_MonoField_CheckGeneric_m453069507
IKh:__ZL25UnresolvedVirtualCall_104P12Il2CppObjectiS0_iS0_S0_PK10MethodInfo
MKc:__ZN20TextRenderingPrivate19NativeTextGenerator23FixLineHorizontalOffsetEiii
M8f:_DefaultComparer_Equals_m3348496647_gshared
Ede:_MethodCall_Init_m86192062
owd:_SynchronizedArrayListWrapper_get_IsFixedSize_m3396437476
she:_ObjectReader_ReadArrayOfString_m3550800559
SQd:_MonoCustomAttrs_GetCustomAttributesInternal_m648304078
aA:__ZN7mecanim9animation19DestroyAnimationSetEPNS0_12AnimationSetERNS_6memory9AllocatorE
JKj:_emscripten_glDepthRange__wrapper
j0:__ZN14SerializedFile7ReleaseEv
wmb:__ZN16MemoryFileSystem4OpenER13FileEntryData14FilePermission16FileAutoBehavior
Rvf:_CompareInfo_GetSortKey_m1915852346
bIc:_ft_var_load_avar
mfa:__ZN13RuntimeStaticI13RendererSceneLb0EE13StaticDestroyEPv
lQe:_DefaultComparer_Compare_m1297750557_gshared
CW:__ZN20DynamicHeapAllocatorI17LowLevelAllocatorE10ReallocateEPvji
zP:__ZN12AudioManager12CleanupClassEv
Aub:__Z18Transfer_BlittableI24GenerateTypeTreeTransferLb1E12PropertyNameEvRK29SerializationCommandArgumentsR31RuntimeSerializationCommandInfo
ZHh:_Toggle_OnEnable_m1421694809
jdb:__ZN14SafeBinaryRead21TransferSTLStyleArrayI10vector_mapIPKN5Unity4TypeE7Hash128NSt3__24lessIS5_EENS7_9allocatorINS7_4pairIS5_S6_EEEEEEEvRT_17TransferMetaFlags
OG:__ZN9AudioClip18GetQueuedAudioDataEPPvj
bNc:__ZN20TextRenderingPrivate21TextMeshGeneratorImpl14GarbageCollectEv
u5c:_CanvasScaler_get_scaleFactor_m122574367
pbc:__ZNK9Texture2D17CheckHasPixelDataEv
nwb:__Z18Transfer_BlittableI19StreamedBinaryWriteILb0EELb0E9BoundsIntEvRK29SerializationCommandArgumentsR31RuntimeSerializationCommandInfo
IOb:__Z18SetShadowsKeywordsR17ShaderPassContext9LightType10ShadowType16ShadowProjectionbb
DKh:__ZL24UnresolvedVirtualCall_99P12Il2CppObjectS0_iS0_iPK10MethodInfo
ubd:_Graphic_GetPixelAdjustedRect_m3729397999
pai:__ZN14dense_hash_mapI10KeyWrapperINSt3__24pairIPK12PropertyInfoP11Il2CppClassEEEj17ReflectionMapHashIS8_ENS9_14EqualsComparerINS1_8equal_toIS8_EEEENS1_9allocatorINS2_IKS9_jEEEEEC2EjRKSB_RKSF_
v7b:__ZN17CollisionMeshDataC2Ev
G_e:_Dictionary_2_ToTValue_m692436965_gshared
Fzj:__ZL73AspectRatioFitter_t3312407083_CustomAttributesCacheGenerator_m_AspectModeP21CustomAttributesCache
hBh:_BalancingGroup_set_Balance_m3289053627
g7d:_Marshal_Copy_m1222846562
s4a:__ZN16LightmapSettings23VirtualRedirectTransferER19StreamedBinaryWriteILb0EE
hLb:__ZZ23InitPlayerLoopCallbacksvEN47PostLateUpdateMemoryFrameMaintenanceRegistrator7ForwardEv
Vta:__ZN7ApiGLES20SetVertexArrayAttribEjj12VertexFormathjPKv
vo:FUNCTION_TABLE_viiififii
Owi:_GC_push_next_marked
W9f:_EqualityComparer_1_System_Collections_IEqualityComparer_GetHashCode_m3539775155_gshared
Thb:__ZN18IDCollectorFunctor18GenerateInstanceIDEi17TransferMetaFlags
GPh:_TextGenerationSettings_Equals_m3618607189_AdjustorThunk
TGh:_SymmetricTransform_get_CanReuseTransform_m3495714228
b1d:_FieldInfo_get_UMarshal_m1217454798
K$e:_NameObjectCollectionBase_BaseAdd_m3437748750
a$f:_Type_internal_from_handle_m3156085815
kxg:__Z63RuntimeInvoker_RuntimeObject_RuntimeObject_Int32U26_t1369213839PFvvEPK10MethodInfoPvPS4_
ZFc:_ft_smooth_init
f7i:__ZL55MACTripleDES_t1631262397_CustomAttributesCacheGeneratorP21CustomAttributesCache
ZZh:__ZN6il2cpp2vm13MetadataCache25GetMethodGenericContainerEPK10MethodInfo
m7g:_ReadOnlyCollection_1_System_Collections_Generic_ICollectionU3CTU3E_Add_m69722965_gshared
yD:__ZN8Animator8TransferI19StreamedBinaryWriteILb0EEEEvRT_
G1:__ZNSt3__27__sort4IRNS_6__lessI14ObjectLoadDataS2_EEPS2_EEjT0_S6_S6_S6_T_
pNb:__ZNK25CameraStackRenderingState16GetCurrentCameraEv
DMf:_Array_InternalArray__IEnumerable_GetEnumerator_TisIntPtr_t_m2620447453_gshared
Ure:_ScrollRect_get_rectTransform_m2442061719
jMa:__ZN17PersistentManager4LockEv
b5i:__ZL51IMessage_t3593512748_CustomAttributesCacheGeneratorP21CustomAttributesCache
t9b:__Z22PlayableValidityChecksRK9HPlayableb
rjj:__ZL57AnimationCurve_t3046754366_CustomAttributesCacheGeneratorP21CustomAttributesCache
Peb:__ZN15ResourceManagerD2Ev
BMe:_InternalEnumerator_1__ctor_m3383770493_gshared
xgc:__Z41Register_UnityEngine_Camera_GetAllCamerasv
qIi:_InvokableCall__ctor_m2158562079
c0h:__ZN6il2cpp2gc9AllocatorIP17Il2CppAsyncResultE10deallocateEPvj
fAh:_Assertion__ctor_m2128950829
YWc:__ZN28PerformanceReportingSettings8TransferI14SafeBinaryReadEEvRT_
AZg:_Collection_1_System_Collections_ICollection_get_SyncRoot_m2514790028_gshared
kjb:__ZN15CacheWriterBase18GetAddressOfMemoryEv
tkd:_Buffer_BlockCopy_m2884209081
t7i:__ZL56RSAParameters_t1728406613_CustomAttributesCacheGeneratorP21CustomAttributesCache
Uuc:__Z18Transfer_BlittableI8JSONReadLb1E5RectTIiEEvRK29SerializationCommandArgumentsR31RuntimeSerializationCommandInfo
upj:__ZL84AudioSettings_t3587374600_CustomAttributesCacheGenerator_OnAudioConfigurationChangedP21CustomAttributesCache
ehi:__ZN6il2cpp2vm22EmbeddedResourceRecordC2ERKS1_
Jna:__ZNSt3__26vectorIN9ShaderLab20SerializedSubProgram15VectorParameterENS_9allocatorIS3_EEE21__push_back_slow_pathIKS3_EEvRT_
CIb:__ZL20DrawVBOChunkWithPassP6ShaderPN9ShaderLab4PassER17ShaderPassContextR10DynamicVBORK21DynamicVBOChunkHandle
$Zg:_Collection_1__ctor_m825528237_gshared
M2a:__ZN9Texture2D13AwakeFromLoadE17AwakeFromLoadMode
VLf:_SetPropertyUtility_SetStruct_TisColorBlock_t2139031574_m1748367426_gshared
TMi:_PlayerConnection_get_instance_m1750121257
Joi:__ZN6il2cpp2vm3RCW14QueryInterfaceILb0EEEP14Il2CppIUnknownP15Il2CppComObjectRK10Il2CppGuid
b6i:__ZL61FormatterConverter_t2760117746_CustomAttributesCacheGeneratorP21CustomAttributesCache
Awh:_X509Store_get_Certificates_m56224934
Aee:_ReturnMessage_set_Uri_m3134200303
Yza:__ZN6prcoreL17RemapGenericFloatI15TexFormatRFloat18TexFormatARGBFloatEEvPKNS_9InnerInfoE
Krg:__Z85RuntimeInvoker_Void_t1185182177_Int64_t3736567304_Int32_t2950945753_Int64_t3736567304PFvvEPK10MethodInfoPvPS4_
lef:_CipherSuite__ctor_m2440635082
Ozf:_RSAPKCS1KeyExchangeFormatter_SetRSAKey_m1477802943
Ryh:_PatternCompiler_EmitJump_m3915926156
kAf:_SHA1CryptoServiceProvider_HashCore_m3575298072
HDf:_EvidenceEnumerator_get_Current_m1264365535
VXc:__ZN11UnityEngine15PlatformWrapper20GetPlayerPrefsUInt64ERKN4core12basic_stringIcNS1_20StringStorageDefaultIcEEEEy
f7d:_Marshal_copy_from_unmanaged_m2834266824
kJj:dynCall_iiiifii
rSb:__ZN20ReflectionProbeCacheC2ER13BatchRendererR15RenderLoopStats
czf:_RIPEMD160Managed_G_m3625715749
H_a:__ZN7Texture23VirtualRedirectTransferER18StreamedBinaryReadILb0EE
XPi:_Rect_set_xMax_m1720695099_AdjustorThunk
wug:__Z59RuntimeInvoker_Int32_t2950945753_DateTimeOffset_t3229287507PFvvEPK10MethodInfoPvPS4_
ulb:__ZNK12HandlerChain6ExistsERK13FileEntryData
Wuf:_Calendar__ctor_m106290643
bTb:__Z30FindDirectAttenuationFromProbeP18ForwardLightsBlockbiRK10RenderNodeRK23FindForwardLightsParamsf
Ibc:__ZNSt3__26vectorIj13stl_allocatorIjL18MemLabelIdentifier1ELi16EEE6assignIPKjEENS_9enable_ifIXaasr21__is_forward_iteratorIT_EE5valuesr16is_constructibleIjNS_15iterator_traitsIS9_E9referenceEEE5valueEvE4typeES9_S9_
vcb:__ZN12InputManager23VirtualRedirectTransferER24GenerateTypeTreeTransfer
zkb:__ZN9Transform23VirtualRedirectTransferER24GenerateTypeTreeTransfer
Z5a:__Z18GetLODGroupManagerv
inc:__ZN12GUIClipState10BeginOnGUIER10InputEvent
Dna:__ZNSt3__26vectorIN9ShaderLab20SerializedSubProgram12UAVParameterENS_9allocatorIS3_EEE21__push_back_slow_pathIKS3_EEvRT_
Jsj:__ZL100CanvasGroup_t4083511760_CustomAttributesCacheGenerator_CanvasGroup_get_ignoreParentGroups_m865591534P21CustomAttributesCache
$vg:__Z87RuntimeInvoker_RuntimeObject_Byte_t1134296376_RuntimeObject_RuntimeObject_RuntimeObjectPFvvEPK10MethodInfoPvPS4_
Vff:_HandshakeMessage_Process_m810828609
qeg:_KeyValuePair_2_get_Value_m1339120122_AdjustorThunk
wGc:_UNITY_tt_size_ready_bytecode
wJc:__ZN13TextRendering4FontD2Ev
Cdb:__ZN27GenericSlowGarbageCollectorD2Ev
KOi:_Quaternion_Inverse_m1311579081
dMc:_UNITY_FT_Stream_Open
M4c:_AspectRatioFitter_get_aspectRatio_m1928877056
cfh:__ZN28GenericInterfaceFuncInvoker1Ib20UIVertex_t4057497605E6InvokeEPK10MethodInfoP12Il2CppObjectS0_
jed:_SerializationEntry_t648286436_marshal_pinvoke_back
Cvb:__Z29Transfer_Blittable_ArrayFieldI24GenerateTypeTreeTransfer9BoundsIntEvRT_R9ArrayInfoRK23StaticTransferFieldInfo
acd:_GraphicRegistry__cctor_m1805310505
DEi:_Bounds_Equals_m3920299735
PWa:__ZN8keywords18KeywordSetToStringERK16ShaderKeywordSetRN4core12basic_stringIcNS3_20StringStorageDefaultIcEEEE
a_d:_GenericTypeParameterBuilder_GetGenericArguments_m2988765390
uCc:_otv_MATH_validate
Uqg:__Z77RuntimeInvoker_Void_t1185182177_Int64_t3736567304_ResourceInfoU26_t1611441338PFvvEPK10MethodInfoPvPS4_
UIb:__ZNSt3__26vectorIN22BuiltinResourceManager8ResourceENS_9allocatorIS2_EEE21__push_back_slow_pathIKS2_EEvRT_
yGg:__Z53RuntimeInvoker_Int32_t2950945753_Keyframe_t4206410242PFvvEPK10MethodInfoPvPS4_
oF:__ZN4FMOD3DSP12setParameterEif
oGb:__ZN13MemoryManager16StaticInitializeEv
qwf:_CultureInfo_Equals_m1360976324
Keg:_KeyValuePair_2_set_Key_m3170517671_AdjustorThunk
lf:___cxa_free_exception
hnj:__ZL69PersistentCall_t3407714124_CustomAttributesCacheGenerator_m_CallStateP21CustomAttributesCache
Fbh:_ReadOnlyCollection_1_GetEnumerator_m122912648_gshared
bIi:_ArgumentCache_get_floatArgument_m3471193103
sJ:__ZN4FMOD22FakeModChannelCallbackEPv
R_c:_BaseInput_get_compositionString_m1887614380
rf:_emscripten_glValidateProgram
zVa:__ZN4Mesh10CreateMeshEv
bld:_X509Certificate_get_IssuerName_m605048065
Ujd:_RijndaelManagedTransform__ctor_m1033522223
x0e:_WebHeaderCollection__ctor_m896654210
Mmf:_DateTime_CompareTo_m3889078633
